
CAN_Rx.elf:     file format elf32-littlearm

Sections:
Idx Name          Size      VMA       LMA       File off  Algn
  0 .boot2        00000100  10000000  10000000  00010000  2**0
                  CONTENTS, ALLOC, LOAD, READONLY, CODE
  1 .text         0000b340  10000100  10000100  00010100  2**3
                  CONTENTS, ALLOC, LOAD, READONLY, CODE
  2 .rodata       000006fc  1000b440  1000b440  0001b440  2**3
                  CONTENTS, ALLOC, LOAD, READONLY, DATA
  3 .binary_info  0000001c  1000bb3c  1000bb3c  0001bb3c  2**2
                  CONTENTS, ALLOC, LOAD, DATA
  4 .ram_vector_table 000000c0  20000000  20000000  00020b54  2**2
                  CONTENTS
  5 .data         00000a94  200000c0  1000bb58  000200c0  2**4
                  CONTENTS, ALLOC, LOAD, CODE
  6 .uninitialized_data 00000000  20000b54  20000b54  00020c14  2**0
                  CONTENTS
  7 .scratch_x    00000000  20040000  20040000  00020c14  2**0
                  CONTENTS
  8 .scratch_y    00000000  20041000  20041000  00020c14  2**0
                  CONTENTS
  9 .bss          00001424  20000b58  20000b58  00020b58  2**3
                  ALLOC
 10 .heap         00000800  20001f7c  20001f7c  00020c14  2**2
                  CONTENTS, READONLY
 11 .stack1_dummy 00000800  20040000  20040000  00021414  2**2
                  CONTENTS
 12 .stack_dummy  00000800  20041000  20041000  00021c20  2**5
                  CONTENTS, READONLY
 13 .ARM.attributes 00000028  00000000  00000000  00022420  2**0
                  CONTENTS, READONLY
 14 .comment      0000007f  00000000  00000000  00022448  2**0
                  CONTENTS, READONLY
 15 .debug_frame  000007fc  00000000  00000000  000224c8  2**2
                  CONTENTS, READONLY, DEBUGGING
 16 .stab         0000006c  00000000  00000000  00022cc4  2**2
                  CONTENTS, READONLY, DEBUGGING
 17 .stabstr      000000e3  00000000  00000000  00022d30  2**0
                  CONTENTS, READONLY, DEBUGGING

CAN_Rx.elf:     file format elf32-littlearm


Disassembly of section .boot2:

10000000 <__boot2_start__>:
10000000:	4b32b500 	.word	0x4b32b500
10000004:	60582021 	.word	0x60582021
10000008:	21026898 	.word	0x21026898
1000000c:	60984388 	.word	0x60984388
10000010:	611860d8 	.word	0x611860d8
10000014:	4b2e6158 	.word	0x4b2e6158
10000018:	60992100 	.word	0x60992100
1000001c:	61592102 	.word	0x61592102
10000020:	22f02101 	.word	0x22f02101
10000024:	492b5099 	.word	0x492b5099
10000028:	21016019 	.word	0x21016019
1000002c:	20356099 	.word	0x20356099
10000030:	f844f000 	.word	0xf844f000
10000034:	42902202 	.word	0x42902202
10000038:	2106d014 	.word	0x2106d014
1000003c:	f0006619 	.word	0xf0006619
10000040:	6e19f834 	.word	0x6e19f834
10000044:	66192101 	.word	0x66192101
10000048:	66182000 	.word	0x66182000
1000004c:	f000661a 	.word	0xf000661a
10000050:	6e19f82c 	.word	0x6e19f82c
10000054:	6e196e19 	.word	0x6e196e19
10000058:	f0002005 	.word	0xf0002005
1000005c:	2101f82f 	.word	0x2101f82f
10000060:	d1f94208 	.word	0xd1f94208
10000064:	60992100 	.word	0x60992100
10000068:	6019491b 	.word	0x6019491b
1000006c:	60592100 	.word	0x60592100
10000070:	481b491a 	.word	0x481b491a
10000074:	21016001 	.word	0x21016001
10000078:	21eb6099 	.word	0x21eb6099
1000007c:	21a06619 	.word	0x21a06619
10000080:	f0006619 	.word	0xf0006619
10000084:	2100f812 	.word	0x2100f812
10000088:	49166099 	.word	0x49166099
1000008c:	60014814 	.word	0x60014814
10000090:	60992101 	.word	0x60992101
10000094:	2800bc01 	.word	0x2800bc01
10000098:	4700d000 	.word	0x4700d000
1000009c:	49134812 	.word	0x49134812
100000a0:	c8036008 	.word	0xc8036008
100000a4:	8808f380 	.word	0x8808f380
100000a8:	b5034708 	.word	0xb5034708
100000ac:	20046a99 	.word	0x20046a99
100000b0:	d0fb4201 	.word	0xd0fb4201
100000b4:	42012001 	.word	0x42012001
100000b8:	bd03d1f8 	.word	0xbd03d1f8
100000bc:	6618b502 	.word	0x6618b502
100000c0:	f7ff6618 	.word	0xf7ff6618
100000c4:	6e18fff2 	.word	0x6e18fff2
100000c8:	bd026e18 	.word	0xbd026e18
100000cc:	40020000 	.word	0x40020000
100000d0:	18000000 	.word	0x18000000
100000d4:	00070000 	.word	0x00070000
100000d8:	005f0300 	.word	0x005f0300
100000dc:	00002221 	.word	0x00002221
100000e0:	180000f4 	.word	0x180000f4
100000e4:	a0002022 	.word	0xa0002022
100000e8:	10000100 	.word	0x10000100
100000ec:	e000ed08 	.word	0xe000ed08
	...
100000fc:	7a4eb274 	.word	0x7a4eb274

Disassembly of section .text:

10000100 <__logical_binary_start>:
10000100:	20042000 	.word	0x20042000
10000104:	100001f7 	.word	0x100001f7
10000108:	100001c3 	.word	0x100001c3
1000010c:	100001c5 	.word	0x100001c5
10000110:	100001c1 	.word	0x100001c1
10000114:	100001c1 	.word	0x100001c1
10000118:	100001c1 	.word	0x100001c1
1000011c:	100001c1 	.word	0x100001c1
10000120:	100001c1 	.word	0x100001c1
10000124:	100001c1 	.word	0x100001c1
10000128:	100001c1 	.word	0x100001c1
1000012c:	100001c7 	.word	0x100001c7
10000130:	100001c1 	.word	0x100001c1
10000134:	100001c1 	.word	0x100001c1
10000138:	100001c9 	.word	0x100001c9
1000013c:	100001cb 	.word	0x100001cb
10000140:	100001cd 	.word	0x100001cd
10000144:	100001cd 	.word	0x100001cd
10000148:	100001cd 	.word	0x100001cd
1000014c:	100001cd 	.word	0x100001cd
10000150:	100001cd 	.word	0x100001cd
10000154:	100001cd 	.word	0x100001cd
10000158:	100001cd 	.word	0x100001cd
1000015c:	100001cd 	.word	0x100001cd
10000160:	100001cd 	.word	0x100001cd
10000164:	100001cd 	.word	0x100001cd
10000168:	100001cd 	.word	0x100001cd
1000016c:	100001cd 	.word	0x100001cd
10000170:	100001cd 	.word	0x100001cd
10000174:	100001cd 	.word	0x100001cd
10000178:	100001cd 	.word	0x100001cd
1000017c:	100001cd 	.word	0x100001cd
10000180:	100001cd 	.word	0x100001cd
10000184:	100001cd 	.word	0x100001cd
10000188:	100001cd 	.word	0x100001cd
1000018c:	100001cd 	.word	0x100001cd
10000190:	100001cd 	.word	0x100001cd
10000194:	100001cd 	.word	0x100001cd
10000198:	100001cd 	.word	0x100001cd
1000019c:	100001cd 	.word	0x100001cd
100001a0:	100001cd 	.word	0x100001cd
100001a4:	100001cd 	.word	0x100001cd
100001a8:	100001cd 	.word	0x100001cd
100001ac:	100001cd 	.word	0x100001cd
100001b0:	100001cd 	.word	0x100001cd
100001b4:	100001cd 	.word	0x100001cd
100001b8:	100001cd 	.word	0x100001cd
100001bc:	100001cd 	.word	0x100001cd

100001c0 <isr_invalid>:
100001c0:	be00      	bkpt	0x0000

100001c2 <isr_nmi>:
100001c2:	be00      	bkpt	0x0000

100001c4 <isr_hardfault>:
100001c4:	be00      	bkpt	0x0000

100001c6 <isr_svcall>:
100001c6:	be00      	bkpt	0x0000

100001c8 <isr_pendsv>:
100001c8:	be00      	bkpt	0x0000

100001ca <isr_systick>:
100001ca:	be00      	bkpt	0x0000

100001cc <__unhandled_user_irq>:
100001cc:	f000 f84b 	bl	10000266 <__get_current_exception>
100001d0:	3810      	subs	r0, #16

100001d2 <unhandled_user_irq_num_in_r0>:
100001d2:	be00      	bkpt	0x0000

100001d4 <binary_info_header>:
100001d4:	7188ebf2 	.word	0x7188ebf2
100001d8:	1000bb3c 	.word	0x1000bb3c
100001dc:	1000bb58 	.word	0x1000bb58
100001e0:	10000234 	.word	0x10000234
100001e4:	e71aa390 	.word	0xe71aa390

100001e8 <_entry_point>:
100001e8:	2000      	movs	r0, #0
100001ea:	4921      	ldr	r1, [pc, #132]	; (10000270 <__get_current_exception+0xa>)
100001ec:	6008      	str	r0, [r1, #0]
100001ee:	c806      	ldmia	r0!, {r1, r2}
100001f0:	f381 8808 	msr	MSP, r1
100001f4:	4710      	bx	r2

100001f6 <_reset_handler>:
100001f6:	481f      	ldr	r0, [pc, #124]	; (10000274 <__get_current_exception+0xe>)
100001f8:	6800      	ldr	r0, [r0, #0]
100001fa:	2800      	cmp	r0, #0
100001fc:	d12f      	bne.n	1000025e <hold_non_core0_in_bootrom>
100001fe:	a40d      	add	r4, pc, #52	; (adr r4, 10000234 <data_cpy_table>)
10000200:	cc0e      	ldmia	r4!, {r1, r2, r3}
10000202:	2900      	cmp	r1, #0
10000204:	d002      	beq.n	1000020c <_reset_handler+0x16>
10000206:	f000 f812 	bl	1000022e <data_cpy>
1000020a:	e7f9      	b.n	10000200 <_reset_handler+0xa>
1000020c:	491a      	ldr	r1, [pc, #104]	; (10000278 <__get_current_exception+0x12>)
1000020e:	4a1b      	ldr	r2, [pc, #108]	; (1000027c <__get_current_exception+0x16>)
10000210:	2000      	movs	r0, #0
10000212:	e000      	b.n	10000216 <bss_fill_test>

10000214 <bss_fill_loop>:
10000214:	c101      	stmia	r1!, {r0}

10000216 <bss_fill_test>:
10000216:	4291      	cmp	r1, r2
10000218:	d1fc      	bne.n	10000214 <bss_fill_loop>

1000021a <platform_entry>:
1000021a:	4919      	ldr	r1, [pc, #100]	; (10000280 <__get_current_exception+0x1a>)
1000021c:	4788      	blx	r1
1000021e:	4919      	ldr	r1, [pc, #100]	; (10000284 <__get_current_exception+0x1e>)
10000220:	4788      	blx	r1
10000222:	4919      	ldr	r1, [pc, #100]	; (10000288 <__get_current_exception+0x22>)
10000224:	4788      	blx	r1
10000226:	be00      	bkpt	0x0000
10000228:	e7fd      	b.n	10000226 <platform_entry+0xc>

1000022a <data_cpy_loop>:
1000022a:	c901      	ldmia	r1!, {r0}
1000022c:	c201      	stmia	r2!, {r0}

1000022e <data_cpy>:
1000022e:	429a      	cmp	r2, r3
10000230:	d3fb      	bcc.n	1000022a <data_cpy_loop>
10000232:	4770      	bx	lr

10000234 <data_cpy_table>:
10000234:	1000bb58 	.word	0x1000bb58
10000238:	200000c0 	.word	0x200000c0
1000023c:	20000b54 	.word	0x20000b54
10000240:	1000c5ec 	.word	0x1000c5ec
10000244:	20040000 	.word	0x20040000
10000248:	20040000 	.word	0x20040000
1000024c:	1000c5ec 	.word	0x1000c5ec
10000250:	20041000 	.word	0x20041000
10000254:	20041000 	.word	0x20041000
10000258:	00000000 	.word	0x00000000
1000025c:	4770      	bx	lr

1000025e <hold_non_core0_in_bootrom>:
1000025e:	480b      	ldr	r0, [pc, #44]	; (1000028c <__get_current_exception+0x26>)
10000260:	f006 fb5a 	bl	10006918 <rom_func_lookup>
10000264:	4700      	bx	r0

10000266 <__get_current_exception>:
10000266:	f3ef 8005 	mrs	r0, IPSR
1000026a:	b2c0      	uxtb	r0, r0
1000026c:	4770      	bx	lr
1000026e:	0000      	.short	0x0000
10000270:	e000ed08 	.word	0xe000ed08
10000274:	d0000000 	.word	0xd0000000
10000278:	20000b58 	.word	0x20000b58
1000027c:	20001f7c 	.word	0x20001f7c
10000280:	10004881 	.word	0x10004881
10000284:	100004b5 	.word	0x100004b5
10000288:	100049a5 	.word	0x100049a5
1000028c:	00005657 	.word	0x00005657

10000290 <__bi_46>:
10000290:	50520006 5360b3ab 1000b8b8              ..RP..`S....

1000029c <__bi_34>:
1000029c:	50520006 02031c86 1000b8c8              ..RP........

100002a8 <__bi_26>:
100002a8:	50520006 9da22254 1000b8d0              ..RPT"......

100002b4 <__bi_18>:
100002b4:	50520005 68f465de 1000c5ec              ..RP.e.h....

100002c0 <_init>:
100002c0:	b5f8      	push	{r3, r4, r5, r6, r7, lr}
100002c2:	46c0      	nop			; (mov r8, r8)

100002c4 <__do_global_dtors_aux>:
100002c4:	b510      	push	{r4, lr}
100002c6:	4c06      	ldr	r4, [pc, #24]	; (100002e0 <__do_global_dtors_aux+0x1c>)
100002c8:	7823      	ldrb	r3, [r4, #0]
100002ca:	2b00      	cmp	r3, #0
100002cc:	d107      	bne.n	100002de <__do_global_dtors_aux+0x1a>
100002ce:	4b05      	ldr	r3, [pc, #20]	; (100002e4 <__do_global_dtors_aux+0x20>)
100002d0:	2b00      	cmp	r3, #0
100002d2:	d002      	beq.n	100002da <__do_global_dtors_aux+0x16>
100002d4:	4804      	ldr	r0, [pc, #16]	; (100002e8 <__do_global_dtors_aux+0x24>)
100002d6:	e000      	b.n	100002da <__do_global_dtors_aux+0x16>
100002d8:	bf00      	nop
100002da:	2301      	movs	r3, #1
100002dc:	7023      	strb	r3, [r4, #0]
100002de:	bd10      	pop	{r4, pc}
100002e0:	20000b60 	.word	0x20000b60
100002e4:	00000000 	.word	0x00000000
100002e8:	1000b440 	.word	0x1000b440

100002ec <frame_dummy>:
100002ec:	4b08      	ldr	r3, [pc, #32]	; (10000310 <frame_dummy+0x24>)
100002ee:	b510      	push	{r4, lr}
100002f0:	2b00      	cmp	r3, #0
100002f2:	d003      	beq.n	100002fc <frame_dummy+0x10>
100002f4:	4907      	ldr	r1, [pc, #28]	; (10000314 <frame_dummy+0x28>)
100002f6:	4808      	ldr	r0, [pc, #32]	; (10000318 <frame_dummy+0x2c>)
100002f8:	e000      	b.n	100002fc <frame_dummy+0x10>
100002fa:	bf00      	nop
100002fc:	4807      	ldr	r0, [pc, #28]	; (1000031c <frame_dummy+0x30>)
100002fe:	6803      	ldr	r3, [r0, #0]
10000300:	2b00      	cmp	r3, #0
10000302:	d100      	bne.n	10000306 <frame_dummy+0x1a>
10000304:	bd10      	pop	{r4, pc}
10000306:	4b06      	ldr	r3, [pc, #24]	; (10000320 <frame_dummy+0x34>)
10000308:	2b00      	cmp	r3, #0
1000030a:	d0fb      	beq.n	10000304 <frame_dummy+0x18>
1000030c:	4798      	blx	r3
1000030e:	e7f9      	b.n	10000304 <frame_dummy+0x18>
10000310:	00000000 	.word	0x00000000
10000314:	20000b64 	.word	0x20000b64
10000318:	1000b440 	.word	0x1000b440
1000031c:	20000b54 	.word	0x20000b54
10000320:	00000000 	.word	0x00000000

10000324 <button_callback>:
10000324:	b510      	push	{r4, lr}
10000326:	2001      	movs	r0, #1
10000328:	f009 ff7a 	bl	1000a220 <multicore_fifo_push_blocking>
1000032c:	bd10      	pop	{r4, pc}
1000032e:	46c0      	nop			; (mov r8, r8)

10000330 <core2_main>:
10000330:	b5f0      	push	{r4, r5, r6, r7, lr}
10000332:	46c6      	mov	lr, r8
10000334:	b500      	push	{lr}
10000336:	4c57      	ldr	r4, [pc, #348]	; (10000494 <core2_main+0x164>)
10000338:	b084      	sub	sp, #16
1000033a:	4957      	ldr	r1, [pc, #348]	; (10000498 <core2_main+0x168>)
1000033c:	0020      	movs	r0, r4
1000033e:	f009 fded 	bl	10009f1c <pio_add_program>
10000342:	2101      	movs	r1, #1
10000344:	0005      	movs	r5, r0
10000346:	0020      	movs	r0, r4
10000348:	f009 fdca 	bl	10009ee0 <pio_claim_unused_sm>
1000034c:	2380      	movs	r3, #128	; 0x80
1000034e:	03db      	lsls	r3, r3, #15
10000350:	4680      	mov	r8, r0
10000352:	001a      	movs	r2, r3
10000354:	0001      	movs	r1, r0
10000356:	0020      	movs	r0, r4
10000358:	f009 fe48 	bl	10009fec <pio_sm_set_pins_with_mask>
1000035c:	2380      	movs	r3, #128	; 0x80
1000035e:	03db      	lsls	r3, r3, #15
10000360:	001a      	movs	r2, r3
10000362:	4641      	mov	r1, r8
10000364:	0020      	movs	r0, r4
10000366:	f009 fe81 	bl	1000a06c <pio_sm_set_pindirs_with_mask>
1000036a:	2107      	movs	r1, #7
1000036c:	2016      	movs	r0, #22
1000036e:	f003 f887 	bl	10003480 <gpio_set_function>
10000372:	2380      	movs	r3, #128	; 0x80
10000374:	025b      	lsls	r3, r3, #9
10000376:	9300      	str	r3, [sp, #0]
10000378:	002b      	movs	r3, r5
1000037a:	3314      	adds	r3, #20
1000037c:	01ea      	lsls	r2, r5, #7
1000037e:	031b      	lsls	r3, r3, #12
10000380:	4313      	orrs	r3, r2
10000382:	4a46      	ldr	r2, [pc, #280]	; (1000049c <core2_main+0x16c>)
10000384:	2005      	movs	r0, #5
10000386:	4013      	ands	r3, r2
10000388:	2280      	movs	r2, #128	; 0x80
1000038a:	05d2      	lsls	r2, r2, #23
1000038c:	4313      	orrs	r3, r2
1000038e:	9301      	str	r3, [sp, #4]
10000390:	23c0      	movs	r3, #192	; 0xc0
10000392:	02db      	lsls	r3, r3, #11
10000394:	9302      	str	r3, [sp, #8]
10000396:	4b42      	ldr	r3, [pc, #264]	; (100004a0 <core2_main+0x170>)
10000398:	9303      	str	r3, [sp, #12]
1000039a:	f004 fc99 	bl	10004cd0 <clock_get_hz>
1000039e:	f007 f967 	bl	10007670 <__wrap___aeabi_ui2f>
100003a2:	4940      	ldr	r1, [pc, #256]	; (100004a4 <core2_main+0x174>)
100003a4:	f007 f95b 	bl	1000765e <__wrap___aeabi_fdiv>
100003a8:	1c07      	adds	r7, r0, #0
100003aa:	f007 f989 	bl	100076c0 <__wrap___aeabi_f2uiz>
100003ae:	b286      	uxth	r6, r0
100003b0:	0030      	movs	r0, r6
100003b2:	f007 f963 	bl	1000767c <__wrap___aeabi_i2f>
100003b6:	1c01      	adds	r1, r0, #0
100003b8:	1c38      	adds	r0, r7, #0
100003ba:	f007 f94a 	bl	10007652 <__wrap___aeabi_fsub>
100003be:	2187      	movs	r1, #135	; 0x87
100003c0:	05c9      	lsls	r1, r1, #23
100003c2:	f007 f94f 	bl	10007664 <__wrap___aeabi_fmul>
100003c6:	f007 f97b 	bl	100076c0 <__wrap___aeabi_f2uiz>
100003ca:	002a      	movs	r2, r5
100003cc:	2501      	movs	r5, #1
100003ce:	b2c3      	uxtb	r3, r0
100003d0:	0436      	lsls	r6, r6, #16
100003d2:	021b      	lsls	r3, r3, #8
100003d4:	4333      	orrs	r3, r6
100003d6:	9300      	str	r3, [sp, #0]
100003d8:	4641      	mov	r1, r8
100003da:	466b      	mov	r3, sp
100003dc:	0020      	movs	r0, r4
100003de:	f009 fecf 	bl	1000a180 <pio_sm_init>
100003e2:	4641      	mov	r1, r8
100003e4:	002a      	movs	r2, r5
100003e6:	408a      	lsls	r2, r1
100003e8:	6823      	ldr	r3, [r4, #0]
100003ea:	200f      	movs	r0, #15
100003ec:	4393      	bics	r3, r2
100003ee:	4313      	orrs	r3, r2
100003f0:	6023      	str	r3, [r4, #0]
100003f2:	f003 f8b1 	bl	10003558 <gpio_init>
100003f6:	2280      	movs	r2, #128	; 0x80
100003f8:	23d0      	movs	r3, #208	; 0xd0
100003fa:	0212      	lsls	r2, r2, #8
100003fc:	061b      	lsls	r3, r3, #24
100003fe:	4f2a      	ldr	r7, [pc, #168]	; (100004a8 <core2_main+0x178>)
10000400:	625a      	str	r2, [r3, #36]	; 0x24
10000402:	4b2a      	ldr	r3, [pc, #168]	; (100004ac <core2_main+0x17c>)
10000404:	0038      	movs	r0, r7
10000406:	803b      	strh	r3, [r7, #0]
10000408:	2308      	movs	r3, #8
1000040a:	70bb      	strb	r3, [r7, #2]
1000040c:	2300      	movs	r3, #0
1000040e:	70fb      	strb	r3, [r7, #3]
10000410:	3302      	adds	r3, #2
10000412:	717b      	strb	r3, [r7, #5]
10000414:	3301      	adds	r3, #1
10000416:	71bb      	strb	r3, [r7, #6]
10000418:	3301      	adds	r3, #1
1000041a:	71fb      	strb	r3, [r7, #7]
1000041c:	3301      	adds	r3, #1
1000041e:	723b      	strb	r3, [r7, #8]
10000420:	3301      	adds	r3, #1
10000422:	727b      	strb	r3, [r7, #9]
10000424:	3301      	adds	r3, #1
10000426:	713d      	strb	r5, [r7, #4]
10000428:	72bb      	strb	r3, [r7, #10]
1000042a:	f000 f965 	bl	100006f8 <CRCCalculator>
1000042e:	4643      	mov	r3, r8
10000430:	3310      	adds	r3, #16
10000432:	409d      	lsls	r5, r3
10000434:	4643      	mov	r3, r8
10000436:	46a4      	mov	ip, r4
10000438:	009e      	lsls	r6, r3, #2
1000043a:	81b8      	strh	r0, [r7, #12]
1000043c:	4466      	add	r6, ip
1000043e:	f009 fef9 	bl	1000a234 <multicore_fifo_pop_blocking>
10000442:	2801      	cmp	r0, #1
10000444:	d01c      	beq.n	10000480 <core2_main+0x150>
10000446:	2802      	cmp	r0, #2
10000448:	d1f9      	bne.n	1000043e <core2_main+0x10e>
1000044a:	6863      	ldr	r3, [r4, #4]
1000044c:	421d      	tst	r5, r3
1000044e:	d1fc      	bne.n	1000044a <core2_main+0x11a>
10000450:	4b17      	ldr	r3, [pc, #92]	; (100004b0 <core2_main+0x180>)
10000452:	6133      	str	r3, [r6, #16]
10000454:	6863      	ldr	r3, [r4, #4]
10000456:	421d      	tst	r5, r3
10000458:	d1fc      	bne.n	10000454 <core2_main+0x124>
1000045a:	2301      	movs	r3, #1
1000045c:	425b      	negs	r3, r3
1000045e:	6133      	str	r3, [r6, #16]
10000460:	6863      	ldr	r3, [r4, #4]
10000462:	421d      	tst	r5, r3
10000464:	d1fc      	bne.n	10000460 <core2_main+0x130>
10000466:	2301      	movs	r3, #1
10000468:	425b      	negs	r3, r3
1000046a:	6133      	str	r3, [r6, #16]
1000046c:	6863      	ldr	r3, [r4, #4]
1000046e:	421d      	tst	r5, r3
10000470:	d1fc      	bne.n	1000046c <core2_main+0x13c>
10000472:	2301      	movs	r3, #1
10000474:	425b      	negs	r3, r3
10000476:	6133      	str	r3, [r6, #16]
10000478:	f009 fedc 	bl	1000a234 <multicore_fifo_pop_blocking>
1000047c:	2801      	cmp	r0, #1
1000047e:	d1e2      	bne.n	10000446 <core2_main+0x116>
10000480:	4642      	mov	r2, r8
10000482:	4904      	ldr	r1, [pc, #16]	; (10000494 <core2_main+0x164>)
10000484:	0038      	movs	r0, r7
10000486:	f001 fbc5 	bl	10001c14 <CAN_Send_Message>
1000048a:	20fa      	movs	r0, #250	; 0xfa
1000048c:	0080      	lsls	r0, r0, #2
1000048e:	f003 fcc1 	bl	10003e14 <sleep_ms>
10000492:	e7d4      	b.n	1000043e <core2_main+0x10e>
10000494:	50300000 	.word	0x50300000
10000498:	1000b480 	.word	0x1000b480
1000049c:	9fffffff 	.word	0x9fffffff
100004a0:	40105816 	.word	0x40105816
100004a4:	49f42400 	.word	0x49f42400
100004a8:	20001678 	.word	0x20001678
100004ac:	00000446 	.word	0x00000446
100004b0:	7fffffff 	.word	0x7fffffff

100004b4 <main>:
100004b4:	b5f0      	push	{r4, r5, r6, r7, lr}
100004b6:	46de      	mov	lr, fp
100004b8:	4657      	mov	r7, sl
100004ba:	464e      	mov	r6, r9
100004bc:	4645      	mov	r5, r8
100004be:	b5e0      	push	{r5, r6, r7, lr}
100004c0:	4c84      	ldr	r4, [pc, #528]	; (100006d4 <main+0x220>)
100004c2:	b08d      	sub	sp, #52	; 0x34
100004c4:	f007 fba2 	bl	10007c0c <stdio_init_all>
100004c8:	4983      	ldr	r1, [pc, #524]	; (100006d8 <main+0x224>)
100004ca:	0020      	movs	r0, r4
100004cc:	f009 fd26 	bl	10009f1c <pio_add_program>
100004d0:	2101      	movs	r1, #1
100004d2:	0006      	movs	r6, r0
100004d4:	0020      	movs	r0, r4
100004d6:	f009 fd03 	bl	10009ee0 <pio_claim_unused_sm>
100004da:	2300      	movs	r3, #0
100004dc:	4680      	mov	r8, r0
100004de:	2215      	movs	r2, #21
100004e0:	0001      	movs	r1, r0
100004e2:	9003      	str	r0, [sp, #12]
100004e4:	9300      	str	r3, [sp, #0]
100004e6:	0020      	movs	r0, r4
100004e8:	3301      	adds	r3, #1
100004ea:	f009 fe01 	bl	1000a0f0 <pio_sm_set_consecutive_pindirs>
100004ee:	2106      	movs	r1, #6
100004f0:	2015      	movs	r0, #21
100004f2:	f002 ffc5 	bl	10003480 <gpio_set_function>
100004f6:	2200      	movs	r2, #0
100004f8:	2101      	movs	r1, #1
100004fa:	2015      	movs	r0, #21
100004fc:	f002 ffd8 	bl	100034b0 <gpio_set_pulls>
10000500:	2210      	movs	r2, #16
10000502:	2100      	movs	r1, #0
10000504:	a808      	add	r0, sp, #32
10000506:	f007 f93b 	bl	10007780 <__wrap_memset>
1000050a:	2380      	movs	r3, #128	; 0x80
1000050c:	025b      	lsls	r3, r3, #9
1000050e:	9308      	str	r3, [sp, #32]
10000510:	23f8      	movs	r3, #248	; 0xf8
10000512:	025b      	lsls	r3, r3, #9
10000514:	9309      	str	r3, [sp, #36]	; 0x24
10000516:	23c0      	movs	r3, #192	; 0xc0
10000518:	031b      	lsls	r3, r3, #12
1000051a:	930a      	str	r3, [sp, #40]	; 0x28
1000051c:	ab08      	add	r3, sp, #32
1000051e:	0019      	movs	r1, r3
10000520:	2210      	movs	r2, #16
10000522:	a804      	add	r0, sp, #16
10000524:	f007 f932 	bl	1000778c <__wrap___aeabi_memcpy>
10000528:	0033      	movs	r3, r6
1000052a:	331b      	adds	r3, #27
1000052c:	01f2      	lsls	r2, r6, #7
1000052e:	031b      	lsls	r3, r3, #12
10000530:	4313      	orrs	r3, r2
10000532:	9305      	str	r3, [sp, #20]
10000534:	ab04      	add	r3, sp, #16
10000536:	2210      	movs	r2, #16
10000538:	0019      	movs	r1, r3
1000053a:	a808      	add	r0, sp, #32
1000053c:	f007 f926 	bl	1000778c <__wrap___aeabi_memcpy>
10000540:	23a8      	movs	r3, #168	; 0xa8
10000542:	031b      	lsls	r3, r3, #12
10000544:	930b      	str	r3, [sp, #44]	; 0x2c
10000546:	23c8      	movs	r3, #200	; 0xc8
10000548:	2005      	movs	r0, #5
1000054a:	035b      	lsls	r3, r3, #13
1000054c:	930a      	str	r3, [sp, #40]	; 0x28
1000054e:	f004 fbbf 	bl	10004cd0 <clock_get_hz>
10000552:	f007 f88d 	bl	10007670 <__wrap___aeabi_ui2f>
10000556:	4961      	ldr	r1, [pc, #388]	; (100006dc <main+0x228>)
10000558:	f007 f881 	bl	1000765e <__wrap___aeabi_fdiv>
1000055c:	1c07      	adds	r7, r0, #0
1000055e:	f007 f8af 	bl	100076c0 <__wrap___aeabi_f2uiz>
10000562:	b285      	uxth	r5, r0
10000564:	0028      	movs	r0, r5
10000566:	f007 f889 	bl	1000767c <__wrap___aeabi_i2f>
1000056a:	1c01      	adds	r1, r0, #0
1000056c:	1c38      	adds	r0, r7, #0
1000056e:	f007 f870 	bl	10007652 <__wrap___aeabi_fsub>
10000572:	2187      	movs	r1, #135	; 0x87
10000574:	05c9      	lsls	r1, r1, #23
10000576:	f007 f875 	bl	10007664 <__wrap___aeabi_fmul>
1000057a:	f007 f8a1 	bl	100076c0 <__wrap___aeabi_f2uiz>
1000057e:	b2c3      	uxtb	r3, r0
10000580:	042d      	lsls	r5, r5, #16
10000582:	021b      	lsls	r3, r3, #8
10000584:	432b      	orrs	r3, r5
10000586:	2501      	movs	r5, #1
10000588:	4641      	mov	r1, r8
1000058a:	0032      	movs	r2, r6
1000058c:	9308      	str	r3, [sp, #32]
1000058e:	0020      	movs	r0, r4
10000590:	ab08      	add	r3, sp, #32
10000592:	f009 fdf5 	bl	1000a180 <pio_sm_init>
10000596:	4647      	mov	r7, r8
10000598:	002a      	movs	r2, r5
1000059a:	40ba      	lsls	r2, r7
1000059c:	6823      	ldr	r3, [r4, #0]
1000059e:	4850      	ldr	r0, [pc, #320]	; (100006e0 <main+0x22c>)
100005a0:	4393      	bics	r3, r2
100005a2:	4313      	orrs	r3, r2
100005a4:	6023      	str	r3, [r4, #0]
100005a6:	f009 fe53 	bl	1000a250 <multicore_launch_core1>
100005aa:	200e      	movs	r0, #14
100005ac:	f002 ffd4 	bl	10003558 <gpio_init>
100005b0:	26d0      	movs	r6, #208	; 0xd0
100005b2:	2380      	movs	r3, #128	; 0x80
100005b4:	0636      	lsls	r6, r6, #24
100005b6:	01db      	lsls	r3, r3, #7
100005b8:	62b3      	str	r3, [r6, #40]	; 0x28
100005ba:	2200      	movs	r2, #0
100005bc:	2101      	movs	r1, #1
100005be:	200e      	movs	r0, #14
100005c0:	f002 ff76 	bl	100034b0 <gpio_set_pulls>
100005c4:	4b47      	ldr	r3, [pc, #284]	; (100006e4 <main+0x230>)
100005c6:	2201      	movs	r2, #1
100005c8:	2104      	movs	r1, #4
100005ca:	200e      	movs	r0, #14
100005cc:	f002 ff8a 	bl	100034e4 <gpio_set_irq_enabled_with_callback>
100005d0:	1d3b      	adds	r3, r7, #4
100005d2:	409d      	lsls	r5, r3
100005d4:	4b44      	ldr	r3, [pc, #272]	; (100006e8 <main+0x234>)
100005d6:	46ab      	mov	fp, r5
100005d8:	4699      	mov	r9, r3
100005da:	4b44      	ldr	r3, [pc, #272]	; (100006ec <main+0x238>)
100005dc:	4f44      	ldr	r7, [pc, #272]	; (100006f0 <main+0x23c>)
100005de:	469a      	mov	sl, r3
100005e0:	4c3c      	ldr	r4, [pc, #240]	; (100006d4 <main+0x220>)
100005e2:	464a      	mov	r2, r9
100005e4:	9903      	ldr	r1, [sp, #12]
100005e6:	0020      	movs	r0, r4
100005e8:	f002 fc78 	bl	10002edc <CAN_Rx_program_getc>
100005ec:	20fa      	movs	r0, #250	; 0xfa
100005ee:	0040      	lsls	r0, r0, #1
100005f0:	f003 fc10 	bl	10003e14 <sleep_ms>
100005f4:	464b      	mov	r3, r9
100005f6:	681b      	ldr	r3, [r3, #0]
100005f8:	483e      	ldr	r0, [pc, #248]	; (100006f4 <main+0x240>)
100005fa:	00d9      	lsls	r1, r3, #3
100005fc:	1ac9      	subs	r1, r1, r3
100005fe:	0049      	lsls	r1, r1, #1
10000600:	187a      	adds	r2, r7, r1
10000602:	8993      	ldrh	r3, [r2, #12]
10000604:	5a79      	ldrh	r1, [r7, r1]
10000606:	7892      	ldrb	r2, [r2, #2]
10000608:	f007 faf4 	bl	10007bf4 <__wrap_printf>
1000060c:	464b      	mov	r3, r9
1000060e:	681b      	ldr	r3, [r3, #0]
10000610:	00d9      	lsls	r1, r3, #3
10000612:	1aca      	subs	r2, r1, r3
10000614:	0052      	lsls	r2, r2, #1
10000616:	18ba      	adds	r2, r7, r2
10000618:	7892      	ldrb	r2, [r2, #2]
1000061a:	2a00      	cmp	r2, #0
1000061c:	d055      	beq.n	100006ca <main+0x216>
1000061e:	2400      	movs	r4, #0
10000620:	1acb      	subs	r3, r1, r3
10000622:	005b      	lsls	r3, r3, #1
10000624:	18fb      	adds	r3, r7, r3
10000626:	191b      	adds	r3, r3, r4
10000628:	78da      	ldrb	r2, [r3, #3]
1000062a:	0021      	movs	r1, r4
1000062c:	4650      	mov	r0, sl
1000062e:	f007 fae1 	bl	10007bf4 <__wrap_printf>
10000632:	464b      	mov	r3, r9
10000634:	681b      	ldr	r3, [r3, #0]
10000636:	3401      	adds	r4, #1
10000638:	00d9      	lsls	r1, r3, #3
1000063a:	1aca      	subs	r2, r1, r3
1000063c:	0052      	lsls	r2, r2, #1
1000063e:	18ba      	adds	r2, r7, r2
10000640:	7892      	ldrb	r2, [r2, #2]
10000642:	42a2      	cmp	r2, r4
10000644:	dcec      	bgt.n	10000620 <main+0x16c>
10000646:	465d      	mov	r5, fp
10000648:	4c22      	ldr	r4, [pc, #136]	; (100006d4 <main+0x220>)
1000064a:	6820      	ldr	r0, [r4, #0]
1000064c:	4328      	orrs	r0, r5
1000064e:	6020      	str	r0, [r4, #0]
10000650:	2580      	movs	r5, #128	; 0x80
10000652:	2000      	movs	r0, #0
10000654:	022d      	lsls	r5, r5, #8
10000656:	4680      	mov	r8, r0
10000658:	2a00      	cmp	r2, #0
1000065a:	d02c      	beq.n	100006b6 <main+0x202>
1000065c:	1acb      	subs	r3, r1, r3
1000065e:	005b      	lsls	r3, r3, #1
10000660:	18fb      	adds	r3, r7, r3
10000662:	4443      	add	r3, r8
10000664:	78db      	ldrb	r3, [r3, #3]
10000666:	2400      	movs	r4, #0
10000668:	2b00      	cmp	r3, #0
1000066a:	d014      	beq.n	10000696 <main+0x1e2>
1000066c:	20fa      	movs	r0, #250	; 0xfa
1000066e:	6175      	str	r5, [r6, #20]
10000670:	0040      	lsls	r0, r0, #1
10000672:	f003 fbcf 	bl	10003e14 <sleep_ms>
10000676:	20fa      	movs	r0, #250	; 0xfa
10000678:	61b5      	str	r5, [r6, #24]
1000067a:	0040      	lsls	r0, r0, #1
1000067c:	f003 fbca 	bl	10003e14 <sleep_ms>
10000680:	464b      	mov	r3, r9
10000682:	681a      	ldr	r2, [r3, #0]
10000684:	3401      	adds	r4, #1
10000686:	00d3      	lsls	r3, r2, #3
10000688:	1a9b      	subs	r3, r3, r2
1000068a:	005b      	lsls	r3, r3, #1
1000068c:	18fb      	adds	r3, r7, r3
1000068e:	4443      	add	r3, r8
10000690:	78db      	ldrb	r3, [r3, #3]
10000692:	42a3      	cmp	r3, r4
10000694:	dcea      	bgt.n	1000066c <main+0x1b8>
10000696:	20fa      	movs	r0, #250	; 0xfa
10000698:	0080      	lsls	r0, r0, #2
1000069a:	f003 fbbb 	bl	10003e14 <sleep_ms>
1000069e:	2301      	movs	r3, #1
100006a0:	469c      	mov	ip, r3
100006a2:	464b      	mov	r3, r9
100006a4:	681b      	ldr	r3, [r3, #0]
100006a6:	44e0      	add	r8, ip
100006a8:	00d9      	lsls	r1, r3, #3
100006aa:	1aca      	subs	r2, r1, r3
100006ac:	0052      	lsls	r2, r2, #1
100006ae:	18ba      	adds	r2, r7, r2
100006b0:	7892      	ldrb	r2, [r2, #2]
100006b2:	4542      	cmp	r2, r8
100006b4:	dcd2      	bgt.n	1000065c <main+0x1a8>
100006b6:	4659      	mov	r1, fp
100006b8:	20fa      	movs	r0, #250	; 0xfa
100006ba:	4a06      	ldr	r2, [pc, #24]	; (100006d4 <main+0x220>)
100006bc:	0080      	lsls	r0, r0, #2
100006be:	6813      	ldr	r3, [r2, #0]
100006c0:	430b      	orrs	r3, r1
100006c2:	6013      	str	r3, [r2, #0]
100006c4:	f003 fba6 	bl	10003e14 <sleep_ms>
100006c8:	e78a      	b.n	100005e0 <main+0x12c>
100006ca:	465a      	mov	r2, fp
100006cc:	6823      	ldr	r3, [r4, #0]
100006ce:	4313      	orrs	r3, r2
100006d0:	6023      	str	r3, [r4, #0]
100006d2:	e7f0      	b.n	100006b6 <main+0x202>
100006d4:	50200000 	.word	0x50200000
100006d8:	1000b440 	.word	0x1000b440
100006dc:	49f42400 	.word	0x49f42400
100006e0:	10000331 	.word	0x10000331
100006e4:	10000325 	.word	0x10000325
100006e8:	20000240 	.word	0x20000240
100006ec:	1000b4d0 	.word	0x1000b4d0
100006f0:	20001718 	.word	0x20001718
100006f4:	1000b4b4 	.word	0x1000b4b4

100006f8 <CRCCalculator>:
100006f8:	b5f0      	push	{r4, r5, r6, r7, lr}
100006fa:	46de      	mov	lr, fp
100006fc:	4657      	mov	r7, sl
100006fe:	464e      	mov	r6, r9
10000700:	4645      	mov	r5, r8
10000702:	b5e0      	push	{r5, r6, r7, lr}
10000704:	7883      	ldrb	r3, [r0, #2]
10000706:	b083      	sub	sp, #12
10000708:	4684      	mov	ip, r0
1000070a:	2b00      	cmp	r3, #0
1000070c:	d000      	beq.n	10000710 <CRCCalculator+0x18>
1000070e:	e0a1      	b.n	10000854 <CRCCalculator+0x15c>
10000710:	8803      	ldrh	r3, [r0, #0]
10000712:	059a      	lsls	r2, r3, #22
10000714:	4691      	mov	r9, r2
10000716:	2201      	movs	r2, #1
10000718:	0559      	lsls	r1, r3, #21
1000071a:	d501      	bpl.n	10000720 <CRCCalculator+0x28>
1000071c:	f000 fdd1 	bl	100012c2 <CRCCalculator+0xbca>
10000720:	1259      	asrs	r1, r3, #9
10000722:	420a      	tst	r2, r1
10000724:	d001      	beq.n	1000072a <CRCCalculator+0x32>
10000726:	f001 f861 	bl	100017ec <CRCCalculator+0x10f4>
1000072a:	1219      	asrs	r1, r3, #8
1000072c:	420a      	tst	r2, r1
1000072e:	d001      	beq.n	10000734 <CRCCalculator+0x3c>
10000730:	f001 f85f 	bl	100017f2 <CRCCalculator+0x10fa>
10000734:	11d9      	asrs	r1, r3, #7
10000736:	420a      	tst	r2, r1
10000738:	d001      	beq.n	1000073e <CRCCalculator+0x46>
1000073a:	f001 f848 	bl	100017ce <CRCCalculator+0x10d6>
1000073e:	1199      	asrs	r1, r3, #6
10000740:	420a      	tst	r2, r1
10000742:	d001      	beq.n	10000748 <CRCCalculator+0x50>
10000744:	f001 f846 	bl	100017d4 <CRCCalculator+0x10dc>
10000748:	1159      	asrs	r1, r3, #5
1000074a:	420a      	tst	r2, r1
1000074c:	d001      	beq.n	10000752 <CRCCalculator+0x5a>
1000074e:	f001 f844 	bl	100017da <CRCCalculator+0x10e2>
10000752:	1119      	asrs	r1, r3, #4
10000754:	420a      	tst	r2, r1
10000756:	d001      	beq.n	1000075c <CRCCalculator+0x64>
10000758:	f001 f842 	bl	100017e0 <CRCCalculator+0x10e8>
1000075c:	10d9      	asrs	r1, r3, #3
1000075e:	420a      	tst	r2, r1
10000760:	d001      	beq.n	10000766 <CRCCalculator+0x6e>
10000762:	f001 f840 	bl	100017e6 <CRCCalculator+0x10ee>
10000766:	1099      	asrs	r1, r3, #2
10000768:	420a      	tst	r2, r1
1000076a:	d001      	beq.n	10000770 <CRCCalculator+0x78>
1000076c:	f001 f8a6 	bl	100018bc <CRCCalculator+0x11c4>
10000770:	079b      	lsls	r3, r3, #30
10000772:	d501      	bpl.n	10000778 <CRCCalculator+0x80>
10000774:	f001 f8a5 	bl	100018c2 <CRCCalculator+0x11ca>
10000778:	2701      	movs	r7, #1
1000077a:	4bb9      	ldr	r3, [pc, #740]	; (10000a60 <CRCCalculator+0x368>)
1000077c:	260f      	movs	r6, #15
1000077e:	881b      	ldrh	r3, [r3, #0]
10000780:	2501      	movs	r5, #1
10000782:	469a      	mov	sl, r3
10000784:	2300      	movs	r3, #0
10000786:	4698      	mov	r8, r3
10000788:	2380      	movs	r3, #128	; 0x80
1000078a:	01db      	lsls	r3, r3, #7
1000078c:	46d4      	mov	ip, sl
1000078e:	469b      	mov	fp, r3
10000790:	46c2      	mov	sl, r8
10000792:	3707      	adds	r7, #7
10000794:	1e78      	subs	r0, r7, #1
10000796:	b2c4      	uxtb	r4, r0
10000798:	1ba3      	subs	r3, r4, r6
1000079a:	b2db      	uxtb	r3, r3
1000079c:	2200      	movs	r2, #0
1000079e:	42a3      	cmp	r3, r4
100007a0:	d805      	bhi.n	100007ae <CRCCalculator+0xb6>
100007a2:	0029      	movs	r1, r5
100007a4:	4099      	lsls	r1, r3
100007a6:	3301      	adds	r3, #1
100007a8:	430a      	orrs	r2, r1
100007aa:	42a3      	cmp	r3, r4
100007ac:	d9f9      	bls.n	100007a2 <CRCCalculator+0xaa>
100007ae:	1b84      	subs	r4, r0, r6
100007b0:	d500      	bpl.n	100007b4 <CRCCalculator+0xbc>
100007b2:	e12f      	b.n	10000a14 <CRCCalculator+0x31c>
100007b4:	464b      	mov	r3, r9
100007b6:	4013      	ands	r3, r2
100007b8:	40e3      	lsrs	r3, r4
100007ba:	4642      	mov	r2, r8
100007bc:	431a      	orrs	r2, r3
100007be:	b293      	uxth	r3, r2
100007c0:	4662      	mov	r2, ip
100007c2:	4053      	eors	r3, r2
100007c4:	0bda      	lsrs	r2, r3, #15
100007c6:	d000      	beq.n	100007ca <CRCCalculator+0xd2>
100007c8:	e131      	b.n	10000a2e <CRCCalculator+0x336>
100007ca:	465a      	mov	r2, fp
100007cc:	4213      	tst	r3, r2
100007ce:	d000      	beq.n	100007d2 <CRCCalculator+0xda>
100007d0:	e136      	b.n	10000a40 <CRCCalculator+0x348>
100007d2:	2280      	movs	r2, #128	; 0x80
100007d4:	0192      	lsls	r2, r2, #6
100007d6:	4213      	tst	r3, r2
100007d8:	d000      	beq.n	100007dc <CRCCalculator+0xe4>
100007da:	e134      	b.n	10000a46 <CRCCalculator+0x34e>
100007dc:	2280      	movs	r2, #128	; 0x80
100007de:	0152      	lsls	r2, r2, #5
100007e0:	4213      	tst	r3, r2
100007e2:	d000      	beq.n	100007e6 <CRCCalculator+0xee>
100007e4:	e132      	b.n	10000a4c <CRCCalculator+0x354>
100007e6:	051a      	lsls	r2, r3, #20
100007e8:	d500      	bpl.n	100007ec <CRCCalculator+0xf4>
100007ea:	e132      	b.n	10000a52 <CRCCalculator+0x35a>
100007ec:	055a      	lsls	r2, r3, #21
100007ee:	d500      	bpl.n	100007f2 <CRCCalculator+0xfa>
100007f0:	e132      	b.n	10000a58 <CRCCalculator+0x360>
100007f2:	059a      	lsls	r2, r3, #22
100007f4:	d500      	bpl.n	100007f8 <CRCCalculator+0x100>
100007f6:	e375      	b.n	10000ee4 <CRCCalculator+0x7ec>
100007f8:	05da      	lsls	r2, r3, #23
100007fa:	d500      	bpl.n	100007fe <CRCCalculator+0x106>
100007fc:	e375      	b.n	10000eea <CRCCalculator+0x7f2>
100007fe:	061a      	lsls	r2, r3, #24
10000800:	d500      	bpl.n	10000804 <CRCCalculator+0x10c>
10000802:	e375      	b.n	10000ef0 <CRCCalculator+0x7f8>
10000804:	065a      	lsls	r2, r3, #25
10000806:	d500      	bpl.n	1000080a <CRCCalculator+0x112>
10000808:	e386      	b.n	10000f18 <CRCCalculator+0x820>
1000080a:	069a      	lsls	r2, r3, #26
1000080c:	d500      	bpl.n	10000810 <CRCCalculator+0x118>
1000080e:	e386      	b.n	10000f1e <CRCCalculator+0x826>
10000810:	06da      	lsls	r2, r3, #27
10000812:	d500      	bpl.n	10000816 <CRCCalculator+0x11e>
10000814:	e386      	b.n	10000f24 <CRCCalculator+0x82c>
10000816:	071a      	lsls	r2, r3, #28
10000818:	d500      	bpl.n	1000081c <CRCCalculator+0x124>
1000081a:	e386      	b.n	10000f2a <CRCCalculator+0x832>
1000081c:	075a      	lsls	r2, r3, #29
1000081e:	d500      	bpl.n	10000822 <CRCCalculator+0x12a>
10000820:	e386      	b.n	10000f30 <CRCCalculator+0x838>
10000822:	2202      	movs	r2, #2
10000824:	421a      	tst	r2, r3
10000826:	d000      	beq.n	1000082a <CRCCalculator+0x132>
10000828:	e385      	b.n	10000f36 <CRCCalculator+0x83e>
1000082a:	200e      	movs	r0, #14
1000082c:	320d      	adds	r2, #13
1000082e:	4093      	lsls	r3, r2
10000830:	b299      	uxth	r1, r3
10000832:	4688      	mov	r8, r1
10000834:	4651      	mov	r1, sl
10000836:	3601      	adds	r6, #1
10000838:	1bbf      	subs	r7, r7, r6
1000083a:	2900      	cmp	r1, #0
1000083c:	d103      	bne.n	10000846 <CRCCalculator+0x14e>
1000083e:	2f09      	cmp	r7, #9
10000840:	dc06      	bgt.n	10000850 <CRCCalculator+0x158>
10000842:	46d1      	mov	r9, sl
10000844:	370f      	adds	r7, #15
10000846:	2f00      	cmp	r7, #0
10000848:	dc00      	bgt.n	1000084c <CRCCalculator+0x154>
1000084a:	e0f4      	b.n	10000a36 <CRCCalculator+0x33e>
1000084c:	2301      	movs	r3, #1
1000084e:	469a      	mov	sl, r3
10000850:	0006      	movs	r6, r0
10000852:	e79f      	b.n	10000794 <CRCCalculator+0x9c>
10000854:	2b01      	cmp	r3, #1
10000856:	d100      	bne.n	1000085a <CRCCalculator+0x162>
10000858:	e104      	b.n	10000a64 <CRCCalculator+0x36c>
1000085a:	2b02      	cmp	r3, #2
1000085c:	d100      	bne.n	10000860 <CRCCalculator+0x168>
1000085e:	e36d      	b.n	10000f3c <CRCCalculator+0x844>
10000860:	2b03      	cmp	r3, #3
10000862:	d100      	bne.n	10000866 <CRCCalculator+0x16e>
10000864:	e1af      	b.n	10000bc6 <CRCCalculator+0x4ce>
10000866:	2b04      	cmp	r3, #4
10000868:	d101      	bne.n	1000086e <CRCCalculator+0x176>
1000086a:	f000 fc57 	bl	1000111c <CRCCalculator+0xa24>
1000086e:	2b05      	cmp	r3, #5
10000870:	d100      	bne.n	10000874 <CRCCalculator+0x17c>
10000872:	e263      	b.n	10000d3c <CRCCalculator+0x644>
10000874:	2b06      	cmp	r3, #6
10000876:	d101      	bne.n	1000087c <CRCCalculator+0x184>
10000878:	f000 fdce 	bl	10001418 <CRCCalculator+0xd20>
1000087c:	2b07      	cmp	r3, #7
1000087e:	d101      	bne.n	10000884 <CRCCalculator+0x18c>
10000880:	f000 fecc 	bl	1000161c <CRCCalculator+0xf24>
10000884:	2b08      	cmp	r3, #8
10000886:	d000      	beq.n	1000088a <CRCCalculator+0x192>
10000888:	e0ca      	b.n	10000a20 <CRCCalculator+0x328>
1000088a:	2480      	movs	r4, #128	; 0x80
1000088c:	78c2      	ldrb	r2, [r0, #3]
1000088e:	8803      	ldrh	r3, [r0, #0]
10000890:	0124      	lsls	r4, r4, #4
10000892:	4314      	orrs	r4, r2
10000894:	03da      	lsls	r2, r3, #15
10000896:	4314      	orrs	r4, r2
10000898:	055a      	lsls	r2, r3, #21
1000089a:	d501      	bpl.n	100008a0 <CRCCalculator+0x1a8>
1000089c:	f001 f917 	bl	10001ace <CRCCalculator+0x13d6>
100008a0:	2201      	movs	r2, #1
100008a2:	0599      	lsls	r1, r3, #22
100008a4:	d501      	bpl.n	100008aa <CRCCalculator+0x1b2>
100008a6:	f001 f91e 	bl	10001ae6 <CRCCalculator+0x13ee>
100008aa:	1219      	asrs	r1, r3, #8
100008ac:	420a      	tst	r2, r1
100008ae:	d001      	beq.n	100008b4 <CRCCalculator+0x1bc>
100008b0:	f001 f916 	bl	10001ae0 <CRCCalculator+0x13e8>
100008b4:	11d9      	asrs	r1, r3, #7
100008b6:	420a      	tst	r2, r1
100008b8:	d001      	beq.n	100008be <CRCCalculator+0x1c6>
100008ba:	f001 f90e 	bl	10001ada <CRCCalculator+0x13e2>
100008be:	1199      	asrs	r1, r3, #6
100008c0:	420a      	tst	r2, r1
100008c2:	d001      	beq.n	100008c8 <CRCCalculator+0x1d0>
100008c4:	f001 f906 	bl	10001ad4 <CRCCalculator+0x13dc>
100008c8:	1159      	asrs	r1, r3, #5
100008ca:	420a      	tst	r2, r1
100008cc:	d001      	beq.n	100008d2 <CRCCalculator+0x1da>
100008ce:	f001 f94e 	bl	10001b6e <CRCCalculator+0x1476>
100008d2:	1119      	asrs	r1, r3, #4
100008d4:	420a      	tst	r2, r1
100008d6:	d001      	beq.n	100008dc <CRCCalculator+0x1e4>
100008d8:	f001 f946 	bl	10001b68 <CRCCalculator+0x1470>
100008dc:	10d9      	asrs	r1, r3, #3
100008de:	420a      	tst	r2, r1
100008e0:	d001      	beq.n	100008e6 <CRCCalculator+0x1ee>
100008e2:	f001 f93e 	bl	10001b62 <CRCCalculator+0x146a>
100008e6:	1099      	asrs	r1, r3, #2
100008e8:	420a      	tst	r2, r1
100008ea:	d001      	beq.n	100008f0 <CRCCalculator+0x1f8>
100008ec:	f001 f936 	bl	10001b5c <CRCCalculator+0x1464>
100008f0:	105b      	asrs	r3, r3, #1
100008f2:	421a      	tst	r2, r3
100008f4:	d001      	beq.n	100008fa <CRCCalculator+0x202>
100008f6:	f001 f97e 	bl	10001bf6 <CRCCalculator+0x14fe>
100008fa:	2601      	movs	r6, #1
100008fc:	4b58      	ldr	r3, [pc, #352]	; (10000a60 <CRCCalculator+0x368>)
100008fe:	2200      	movs	r2, #0
10000900:	881b      	ldrh	r3, [r3, #0]
10000902:	2701      	movs	r7, #1
10000904:	469b      	mov	fp, r3
10000906:	230f      	movs	r3, #15
10000908:	4698      	mov	r8, r3
1000090a:	2300      	movs	r3, #0
1000090c:	4640      	mov	r0, r8
1000090e:	46e0      	mov	r8, ip
10000910:	4694      	mov	ip, r2
10000912:	360f      	adds	r6, #15
10000914:	9300      	str	r3, [sp, #0]
10000916:	466a      	mov	r2, sp
10000918:	1e73      	subs	r3, r6, #1
1000091a:	7113      	strb	r3, [r2, #4]
1000091c:	7912      	ldrb	r2, [r2, #4]
1000091e:	4699      	mov	r9, r3
10000920:	1a13      	subs	r3, r2, r0
10000922:	b2db      	uxtb	r3, r3
10000924:	2100      	movs	r1, #0
10000926:	4293      	cmp	r3, r2
10000928:	d805      	bhi.n	10000936 <CRCCalculator+0x23e>
1000092a:	003d      	movs	r5, r7
1000092c:	409d      	lsls	r5, r3
1000092e:	3301      	adds	r3, #1
10000930:	4329      	orrs	r1, r5
10000932:	4293      	cmp	r3, r2
10000934:	d9f9      	bls.n	1000092a <CRCCalculator+0x232>
10000936:	464b      	mov	r3, r9
10000938:	1a1b      	subs	r3, r3, r0
1000093a:	469a      	mov	sl, r3
1000093c:	d501      	bpl.n	10000942 <CRCCalculator+0x24a>
1000093e:	f000 ffdd 	bl	100018fc <CRCCalculator+0x1204>
10000942:	000b      	movs	r3, r1
10000944:	4652      	mov	r2, sl
10000946:	4023      	ands	r3, r4
10000948:	40d3      	lsrs	r3, r2
1000094a:	4662      	mov	r2, ip
1000094c:	431a      	orrs	r2, r3
1000094e:	b293      	uxth	r3, r2
10000950:	465a      	mov	r2, fp
10000952:	4053      	eors	r3, r2
10000954:	0bd9      	lsrs	r1, r3, #15
10000956:	d001      	beq.n	1000095c <CRCCalculator+0x264>
10000958:	f001 f870 	bl	10001a3c <CRCCalculator+0x1344>
1000095c:	2280      	movs	r2, #128	; 0x80
1000095e:	01d2      	lsls	r2, r2, #7
10000960:	4213      	tst	r3, r2
10000962:	d001      	beq.n	10000968 <CRCCalculator+0x270>
10000964:	f001 f8ac 	bl	10001ac0 <CRCCalculator+0x13c8>
10000968:	2280      	movs	r2, #128	; 0x80
1000096a:	0192      	lsls	r2, r2, #6
1000096c:	4213      	tst	r3, r2
1000096e:	d001      	beq.n	10000974 <CRCCalculator+0x27c>
10000970:	f001 f8a2 	bl	10001ab8 <CRCCalculator+0x13c0>
10000974:	2280      	movs	r2, #128	; 0x80
10000976:	0152      	lsls	r2, r2, #5
10000978:	4213      	tst	r3, r2
1000097a:	d001      	beq.n	10000980 <CRCCalculator+0x288>
1000097c:	f001 f898 	bl	10001ab0 <CRCCalculator+0x13b8>
10000980:	051a      	lsls	r2, r3, #20
10000982:	d501      	bpl.n	10000988 <CRCCalculator+0x290>
10000984:	f001 f890 	bl	10001aa8 <CRCCalculator+0x13b0>
10000988:	055a      	lsls	r2, r3, #21
1000098a:	d501      	bpl.n	10000990 <CRCCalculator+0x298>
1000098c:	f001 f888 	bl	10001aa0 <CRCCalculator+0x13a8>
10000990:	059a      	lsls	r2, r3, #22
10000992:	d501      	bpl.n	10000998 <CRCCalculator+0x2a0>
10000994:	f001 f880 	bl	10001a98 <CRCCalculator+0x13a0>
10000998:	05da      	lsls	r2, r3, #23
1000099a:	d501      	bpl.n	100009a0 <CRCCalculator+0x2a8>
1000099c:	f001 f878 	bl	10001a90 <CRCCalculator+0x1398>
100009a0:	061a      	lsls	r2, r3, #24
100009a2:	d501      	bpl.n	100009a8 <CRCCalculator+0x2b0>
100009a4:	f001 f870 	bl	10001a88 <CRCCalculator+0x1390>
100009a8:	065a      	lsls	r2, r3, #25
100009aa:	d501      	bpl.n	100009b0 <CRCCalculator+0x2b8>
100009ac:	f001 f85a 	bl	10001a64 <CRCCalculator+0x136c>
100009b0:	069a      	lsls	r2, r3, #26
100009b2:	d501      	bpl.n	100009b8 <CRCCalculator+0x2c0>
100009b4:	f001 f852 	bl	10001a5c <CRCCalculator+0x1364>
100009b8:	06da      	lsls	r2, r3, #27
100009ba:	d501      	bpl.n	100009c0 <CRCCalculator+0x2c8>
100009bc:	f001 f84a 	bl	10001a54 <CRCCalculator+0x135c>
100009c0:	071a      	lsls	r2, r3, #28
100009c2:	d501      	bpl.n	100009c8 <CRCCalculator+0x2d0>
100009c4:	f001 f842 	bl	10001a4c <CRCCalculator+0x1354>
100009c8:	075a      	lsls	r2, r3, #29
100009ca:	d501      	bpl.n	100009d0 <CRCCalculator+0x2d8>
100009cc:	f001 f852 	bl	10001a74 <CRCCalculator+0x137c>
100009d0:	2202      	movs	r2, #2
100009d2:	421a      	tst	r2, r3
100009d4:	d001      	beq.n	100009da <CRCCalculator+0x2e2>
100009d6:	f001 f849 	bl	10001a6c <CRCCalculator+0x1374>
100009da:	320c      	adds	r2, #12
100009dc:	310f      	adds	r1, #15
100009de:	408b      	lsls	r3, r1
100009e0:	3001      	adds	r0, #1
100009e2:	b29d      	uxth	r5, r3
100009e4:	46ac      	mov	ip, r5
100009e6:	1a36      	subs	r6, r6, r0
100009e8:	d501      	bpl.n	100009ee <CRCCalculator+0x2f6>
100009ea:	f000 fc78 	bl	100012de <CRCCalculator+0xbe6>
100009ee:	2e09      	cmp	r6, #9
100009f0:	dc0e      	bgt.n	10000a10 <CRCCalculator+0x318>
100009f2:	9800      	ldr	r0, [sp, #0]
100009f4:	2800      	cmp	r0, #0
100009f6:	d000      	beq.n	100009fa <CRCCalculator+0x302>
100009f8:	e27d      	b.n	10000ef6 <CRCCalculator+0x7fe>
100009fa:	4643      	mov	r3, r8
100009fc:	4641      	mov	r1, r8
100009fe:	791b      	ldrb	r3, [r3, #4]
10000a00:	0224      	lsls	r4, r4, #8
10000a02:	4323      	orrs	r3, r4
10000a04:	794c      	ldrb	r4, [r1, #5]
10000a06:	021b      	lsls	r3, r3, #8
10000a08:	431c      	orrs	r4, r3
10000a0a:	2301      	movs	r3, #1
10000a0c:	3610      	adds	r6, #16
10000a0e:	9300      	str	r3, [sp, #0]
10000a10:	0010      	movs	r0, r2
10000a12:	e780      	b.n	10000916 <CRCCalculator+0x21e>
10000a14:	4684      	mov	ip, r0
10000a16:	4663      	mov	r3, ip
10000a18:	4640      	mov	r0, r8
10000a1a:	1af6      	subs	r6, r6, r3
10000a1c:	4130      	asrs	r0, r6
10000a1e:	b280      	uxth	r0, r0
10000a20:	b003      	add	sp, #12
10000a22:	bc3c      	pop	{r2, r3, r4, r5}
10000a24:	4690      	mov	r8, r2
10000a26:	4699      	mov	r9, r3
10000a28:	46a2      	mov	sl, r4
10000a2a:	46ab      	mov	fp, r5
10000a2c:	bdf0      	pop	{r4, r5, r6, r7, pc}
10000a2e:	2001      	movs	r0, #1
10000a30:	2200      	movs	r2, #0
10000a32:	4240      	negs	r0, r0
10000a34:	e6fb      	b.n	1000082e <CRCCalculator+0x136>
10000a36:	0418      	lsls	r0, r3, #16
10000a38:	0c00      	lsrs	r0, r0, #16
10000a3a:	4110      	asrs	r0, r2
10000a3c:	b280      	uxth	r0, r0
10000a3e:	e7ef      	b.n	10000a20 <CRCCalculator+0x328>
10000a40:	2000      	movs	r0, #0
10000a42:	2201      	movs	r2, #1
10000a44:	e6f3      	b.n	1000082e <CRCCalculator+0x136>
10000a46:	2001      	movs	r0, #1
10000a48:	2202      	movs	r2, #2
10000a4a:	e6f0      	b.n	1000082e <CRCCalculator+0x136>
10000a4c:	2002      	movs	r0, #2
10000a4e:	2203      	movs	r2, #3
10000a50:	e6ed      	b.n	1000082e <CRCCalculator+0x136>
10000a52:	2003      	movs	r0, #3
10000a54:	2204      	movs	r2, #4
10000a56:	e6ea      	b.n	1000082e <CRCCalculator+0x136>
10000a58:	2004      	movs	r0, #4
10000a5a:	2205      	movs	r2, #5
10000a5c:	e6e7      	b.n	1000082e <CRCCalculator+0x136>
10000a5e:	46c0      	nop			; (mov r8, r8)
10000a60:	20000244 	.word	0x20000244
10000a64:	2180      	movs	r1, #128	; 0x80
10000a66:	8802      	ldrh	r2, [r0, #0]
10000a68:	78c0      	ldrb	r0, [r0, #3]
10000a6a:	0049      	lsls	r1, r1, #1
10000a6c:	4301      	orrs	r1, r0
10000a6e:	03d0      	lsls	r0, r2, #15
10000a70:	4301      	orrs	r1, r0
10000a72:	4688      	mov	r8, r1
10000a74:	1291      	asrs	r1, r2, #10
10000a76:	420b      	tst	r3, r1
10000a78:	d001      	beq.n	10000a7e <CRCCalculator+0x386>
10000a7a:	f001 f802 	bl	10001a82 <CRCCalculator+0x138a>
10000a7e:	1251      	asrs	r1, r2, #9
10000a80:	420b      	tst	r3, r1
10000a82:	d001      	beq.n	10000a88 <CRCCalculator+0x390>
10000a84:	f000 fffa 	bl	10001a7c <CRCCalculator+0x1384>
10000a88:	1211      	asrs	r1, r2, #8
10000a8a:	420b      	tst	r3, r1
10000a8c:	d001      	beq.n	10000a92 <CRCCalculator+0x39a>
10000a8e:	f000 ffae 	bl	100019ee <CRCCalculator+0x12f6>
10000a92:	11d1      	asrs	r1, r2, #7
10000a94:	420b      	tst	r3, r1
10000a96:	d001      	beq.n	10000a9c <CRCCalculator+0x3a4>
10000a98:	f000 ffa6 	bl	100019e8 <CRCCalculator+0x12f0>
10000a9c:	1191      	asrs	r1, r2, #6
10000a9e:	420b      	tst	r3, r1
10000aa0:	d001      	beq.n	10000aa6 <CRCCalculator+0x3ae>
10000aa2:	f000 ff9e 	bl	100019e2 <CRCCalculator+0x12ea>
10000aa6:	1151      	asrs	r1, r2, #5
10000aa8:	420b      	tst	r3, r1
10000aaa:	d001      	beq.n	10000ab0 <CRCCalculator+0x3b8>
10000aac:	f000 ff96 	bl	100019dc <CRCCalculator+0x12e4>
10000ab0:	1111      	asrs	r1, r2, #4
10000ab2:	420b      	tst	r3, r1
10000ab4:	d001      	beq.n	10000aba <CRCCalculator+0x3c2>
10000ab6:	f000 ff8e 	bl	100019d6 <CRCCalculator+0x12de>
10000aba:	10d1      	asrs	r1, r2, #3
10000abc:	420b      	tst	r3, r1
10000abe:	d001      	beq.n	10000ac4 <CRCCalculator+0x3cc>
10000ac0:	f000 ff86 	bl	100019d0 <CRCCalculator+0x12d8>
10000ac4:	0751      	lsls	r1, r2, #29
10000ac6:	d501      	bpl.n	10000acc <CRCCalculator+0x3d4>
10000ac8:	f000 ff7f 	bl	100019ca <CRCCalculator+0x12d2>
10000acc:	1052      	asrs	r2, r2, #1
10000ace:	4213      	tst	r3, r2
10000ad0:	d001      	beq.n	10000ad6 <CRCCalculator+0x3de>
10000ad2:	f000 ff77 	bl	100019c4 <CRCCalculator+0x12cc>
10000ad6:	2701      	movs	r7, #1
10000ad8:	4b97      	ldr	r3, [pc, #604]	; (10000d38 <CRCCalculator+0x640>)
10000ada:	2200      	movs	r2, #0
10000adc:	881b      	ldrh	r3, [r3, #0]
10000ade:	260f      	movs	r6, #15
10000ae0:	469a      	mov	sl, r3
10000ae2:	2300      	movs	r3, #0
10000ae4:	4699      	mov	r9, r3
10000ae6:	2380      	movs	r3, #128	; 0x80
10000ae8:	01db      	lsls	r3, r3, #7
10000aea:	469b      	mov	fp, r3
10000aec:	4643      	mov	r3, r8
10000aee:	4648      	mov	r0, r9
10000af0:	2501      	movs	r5, #1
10000af2:	4690      	mov	r8, r2
10000af4:	46d1      	mov	r9, sl
10000af6:	370f      	adds	r7, #15
10000af8:	9301      	str	r3, [sp, #4]
10000afa:	466a      	mov	r2, sp
10000afc:	1e7b      	subs	r3, r7, #1
10000afe:	7013      	strb	r3, [r2, #0]
10000b00:	7812      	ldrb	r2, [r2, #0]
10000b02:	469c      	mov	ip, r3
10000b04:	1b93      	subs	r3, r2, r6
10000b06:	b2db      	uxtb	r3, r3
10000b08:	2100      	movs	r1, #0
10000b0a:	4293      	cmp	r3, r2
10000b0c:	d805      	bhi.n	10000b1a <CRCCalculator+0x422>
10000b0e:	002c      	movs	r4, r5
10000b10:	409c      	lsls	r4, r3
10000b12:	3301      	adds	r3, #1
10000b14:	4321      	orrs	r1, r4
10000b16:	4293      	cmp	r3, r2
10000b18:	d9f9      	bls.n	10000b0e <CRCCalculator+0x416>
10000b1a:	4663      	mov	r3, ip
10000b1c:	1b9b      	subs	r3, r3, r6
10000b1e:	469a      	mov	sl, r3
10000b20:	d500      	bpl.n	10000b24 <CRCCalculator+0x42c>
10000b22:	e2b8      	b.n	10001096 <CRCCalculator+0x99e>
10000b24:	4652      	mov	r2, sl
10000b26:	9b01      	ldr	r3, [sp, #4]
10000b28:	400b      	ands	r3, r1
10000b2a:	40d3      	lsrs	r3, r2
10000b2c:	4642      	mov	r2, r8
10000b2e:	431a      	orrs	r2, r3
10000b30:	b293      	uxth	r3, r2
10000b32:	464a      	mov	r2, r9
10000b34:	4053      	eors	r3, r2
10000b36:	0bd9      	lsrs	r1, r3, #15
10000b38:	d000      	beq.n	10000b3c <CRCCalculator+0x444>
10000b3a:	e2c3      	b.n	100010c4 <CRCCalculator+0x9cc>
10000b3c:	465a      	mov	r2, fp
10000b3e:	4213      	tst	r3, r2
10000b40:	d000      	beq.n	10000b44 <CRCCalculator+0x44c>
10000b42:	e2c3      	b.n	100010cc <CRCCalculator+0x9d4>
10000b44:	2280      	movs	r2, #128	; 0x80
10000b46:	0192      	lsls	r2, r2, #6
10000b48:	4213      	tst	r3, r2
10000b4a:	d000      	beq.n	10000b4e <CRCCalculator+0x456>
10000b4c:	e2c1      	b.n	100010d2 <CRCCalculator+0x9da>
10000b4e:	2280      	movs	r2, #128	; 0x80
10000b50:	0152      	lsls	r2, r2, #5
10000b52:	4213      	tst	r3, r2
10000b54:	d000      	beq.n	10000b58 <CRCCalculator+0x460>
10000b56:	e2bf      	b.n	100010d8 <CRCCalculator+0x9e0>
10000b58:	051a      	lsls	r2, r3, #20
10000b5a:	d500      	bpl.n	10000b5e <CRCCalculator+0x466>
10000b5c:	e2c2      	b.n	100010e4 <CRCCalculator+0x9ec>
10000b5e:	055a      	lsls	r2, r3, #21
10000b60:	d500      	bpl.n	10000b64 <CRCCalculator+0x46c>
10000b62:	e2bc      	b.n	100010de <CRCCalculator+0x9e6>
10000b64:	059a      	lsls	r2, r3, #22
10000b66:	d500      	bpl.n	10000b6a <CRCCalculator+0x472>
10000b68:	e38f      	b.n	1000128a <CRCCalculator+0xb92>
10000b6a:	05da      	lsls	r2, r3, #23
10000b6c:	d500      	bpl.n	10000b70 <CRCCalculator+0x478>
10000b6e:	e389      	b.n	10001284 <CRCCalculator+0xb8c>
10000b70:	061a      	lsls	r2, r3, #24
10000b72:	d500      	bpl.n	10000b76 <CRCCalculator+0x47e>
10000b74:	e390      	b.n	10001298 <CRCCalculator+0xba0>
10000b76:	065a      	lsls	r2, r3, #25
10000b78:	d500      	bpl.n	10000b7c <CRCCalculator+0x484>
10000b7a:	e390      	b.n	1000129e <CRCCalculator+0xba6>
10000b7c:	069a      	lsls	r2, r3, #26
10000b7e:	d500      	bpl.n	10000b82 <CRCCalculator+0x48a>
10000b80:	e393      	b.n	100012aa <CRCCalculator+0xbb2>
10000b82:	06da      	lsls	r2, r3, #27
10000b84:	d500      	bpl.n	10000b88 <CRCCalculator+0x490>
10000b86:	e38d      	b.n	100012a4 <CRCCalculator+0xbac>
10000b88:	071a      	lsls	r2, r3, #28
10000b8a:	d500      	bpl.n	10000b8e <CRCCalculator+0x496>
10000b8c:	e3d4      	b.n	10001338 <CRCCalculator+0xc40>
10000b8e:	075a      	lsls	r2, r3, #29
10000b90:	d500      	bpl.n	10000b94 <CRCCalculator+0x49c>
10000b92:	e3ce      	b.n	10001332 <CRCCalculator+0xc3a>
10000b94:	2202      	movs	r2, #2
10000b96:	421a      	tst	r2, r3
10000b98:	d000      	beq.n	10000b9c <CRCCalculator+0x4a4>
10000b9a:	e3c7      	b.n	1000132c <CRCCalculator+0xc34>
10000b9c:	320c      	adds	r2, #12
10000b9e:	310f      	adds	r1, #15
10000ba0:	408b      	lsls	r3, r1
10000ba2:	3601      	adds	r6, #1
10000ba4:	b29c      	uxth	r4, r3
10000ba6:	46a0      	mov	r8, r4
10000ba8:	1bbf      	subs	r7, r7, r6
10000baa:	2800      	cmp	r0, #0
10000bac:	d105      	bne.n	10000bba <CRCCalculator+0x4c2>
10000bae:	2f09      	cmp	r7, #9
10000bb0:	dc07      	bgt.n	10000bc2 <CRCCalculator+0x4ca>
10000bb2:	9801      	ldr	r0, [sp, #4]
10000bb4:	370f      	adds	r7, #15
10000bb6:	03c0      	lsls	r0, r0, #15
10000bb8:	9001      	str	r0, [sp, #4]
10000bba:	2f00      	cmp	r7, #0
10000bbc:	dc00      	bgt.n	10000bc0 <CRCCalculator+0x4c8>
10000bbe:	e1a6      	b.n	10000f0e <CRCCalculator+0x816>
10000bc0:	2001      	movs	r0, #1
10000bc2:	0016      	movs	r6, r2
10000bc4:	e799      	b.n	10000afa <CRCCalculator+0x402>
10000bc6:	22c0      	movs	r2, #192	; 0xc0
10000bc8:	78c1      	ldrb	r1, [r0, #3]
10000bca:	8803      	ldrh	r3, [r0, #0]
10000bcc:	0092      	lsls	r2, r2, #2
10000bce:	430a      	orrs	r2, r1
10000bd0:	03d9      	lsls	r1, r3, #15
10000bd2:	430a      	orrs	r2, r1
10000bd4:	4690      	mov	r8, r2
10000bd6:	2201      	movs	r2, #1
10000bd8:	0559      	lsls	r1, r3, #21
10000bda:	d501      	bpl.n	10000be0 <CRCCalculator+0x4e8>
10000bdc:	f001 f805 	bl	10001bea <CRCCalculator+0x14f2>
10000be0:	1259      	asrs	r1, r3, #9
10000be2:	420a      	tst	r2, r1
10000be4:	d001      	beq.n	10000bea <CRCCalculator+0x4f2>
10000be6:	f001 f812 	bl	10001c0e <CRCCalculator+0x1516>
10000bea:	1219      	asrs	r1, r3, #8
10000bec:	420a      	tst	r2, r1
10000bee:	d001      	beq.n	10000bf4 <CRCCalculator+0x4fc>
10000bf0:	f001 f80a 	bl	10001c08 <CRCCalculator+0x1510>
10000bf4:	11d9      	asrs	r1, r3, #7
10000bf6:	420a      	tst	r2, r1
10000bf8:	d001      	beq.n	10000bfe <CRCCalculator+0x506>
10000bfa:	f001 f802 	bl	10001c02 <CRCCalculator+0x150a>
10000bfe:	1199      	asrs	r1, r3, #6
10000c00:	420a      	tst	r2, r1
10000c02:	d001      	beq.n	10000c08 <CRCCalculator+0x510>
10000c04:	f000 fffa 	bl	10001bfc <CRCCalculator+0x1504>
10000c08:	1159      	asrs	r1, r3, #5
10000c0a:	420a      	tst	r2, r1
10000c0c:	d001      	beq.n	10000c12 <CRCCalculator+0x51a>
10000c0e:	f000 ffc6 	bl	10001b9e <CRCCalculator+0x14a6>
10000c12:	06d9      	lsls	r1, r3, #27
10000c14:	d501      	bpl.n	10000c1a <CRCCalculator+0x522>
10000c16:	f000 ffbf 	bl	10001b98 <CRCCalculator+0x14a0>
10000c1a:	10d9      	asrs	r1, r3, #3
10000c1c:	420a      	tst	r2, r1
10000c1e:	d001      	beq.n	10000c24 <CRCCalculator+0x52c>
10000c20:	f000 ffb7 	bl	10001b92 <CRCCalculator+0x149a>
10000c24:	1099      	asrs	r1, r3, #2
10000c26:	420a      	tst	r2, r1
10000c28:	d001      	beq.n	10000c2e <CRCCalculator+0x536>
10000c2a:	f000 ffaf 	bl	10001b8c <CRCCalculator+0x1494>
10000c2e:	105b      	asrs	r3, r3, #1
10000c30:	421a      	tst	r2, r3
10000c32:	d001      	beq.n	10000c38 <CRCCalculator+0x540>
10000c34:	f000 ffd6 	bl	10001be4 <CRCCalculator+0x14ec>
10000c38:	2701      	movs	r7, #1
10000c3a:	4b3f      	ldr	r3, [pc, #252]	; (10000d38 <CRCCalculator+0x640>)
10000c3c:	2200      	movs	r2, #0
10000c3e:	881b      	ldrh	r3, [r3, #0]
10000c40:	260f      	movs	r6, #15
10000c42:	469b      	mov	fp, r3
10000c44:	2300      	movs	r3, #0
10000c46:	469a      	mov	sl, r3
10000c48:	4643      	mov	r3, r8
10000c4a:	2501      	movs	r5, #1
10000c4c:	4690      	mov	r8, r2
10000c4e:	46d9      	mov	r9, fp
10000c50:	370f      	adds	r7, #15
10000c52:	9300      	str	r3, [sp, #0]
10000c54:	1e7c      	subs	r4, r7, #1
10000c56:	b2e2      	uxtb	r2, r4
10000c58:	1b93      	subs	r3, r2, r6
10000c5a:	b2db      	uxtb	r3, r3
10000c5c:	2100      	movs	r1, #0
10000c5e:	4293      	cmp	r3, r2
10000c60:	d805      	bhi.n	10000c6e <CRCCalculator+0x576>
10000c62:	0028      	movs	r0, r5
10000c64:	4098      	lsls	r0, r3
10000c66:	3301      	adds	r3, #1
10000c68:	4301      	orrs	r1, r0
10000c6a:	4293      	cmp	r3, r2
10000c6c:	d9f9      	bls.n	10000c62 <CRCCalculator+0x56a>
10000c6e:	1ba3      	subs	r3, r4, r6
10000c70:	469b      	mov	fp, r3
10000c72:	d500      	bpl.n	10000c76 <CRCCalculator+0x57e>
10000c74:	e367      	b.n	10001346 <CRCCalculator+0xc4e>
10000c76:	465a      	mov	r2, fp
10000c78:	9b00      	ldr	r3, [sp, #0]
10000c7a:	400b      	ands	r3, r1
10000c7c:	40d3      	lsrs	r3, r2
10000c7e:	4642      	mov	r2, r8
10000c80:	431a      	orrs	r2, r3
10000c82:	b293      	uxth	r3, r2
10000c84:	464a      	mov	r2, r9
10000c86:	4053      	eors	r3, r2
10000c88:	0bd9      	lsrs	r1, r3, #15
10000c8a:	d000      	beq.n	10000c8e <CRCCalculator+0x596>
10000c8c:	e357      	b.n	1000133e <CRCCalculator+0xc46>
10000c8e:	2280      	movs	r2, #128	; 0x80
10000c90:	01d2      	lsls	r2, r2, #7
10000c92:	4213      	tst	r3, r2
10000c94:	d000      	beq.n	10000c98 <CRCCalculator+0x5a0>
10000c96:	e36f      	b.n	10001378 <CRCCalculator+0xc80>
10000c98:	2280      	movs	r2, #128	; 0x80
10000c9a:	0192      	lsls	r2, r2, #6
10000c9c:	4213      	tst	r3, r2
10000c9e:	d000      	beq.n	10000ca2 <CRCCalculator+0x5aa>
10000ca0:	e373      	b.n	1000138a <CRCCalculator+0xc92>
10000ca2:	2280      	movs	r2, #128	; 0x80
10000ca4:	0152      	lsls	r2, r2, #5
10000ca6:	4213      	tst	r3, r2
10000ca8:	d000      	beq.n	10000cac <CRCCalculator+0x5b4>
10000caa:	e36b      	b.n	10001384 <CRCCalculator+0xc8c>
10000cac:	051a      	lsls	r2, r3, #20
10000cae:	d500      	bpl.n	10000cb2 <CRCCalculator+0x5ba>
10000cb0:	e365      	b.n	1000137e <CRCCalculator+0xc86>
10000cb2:	055a      	lsls	r2, r3, #21
10000cb4:	d500      	bpl.n	10000cb8 <CRCCalculator+0x5c0>
10000cb6:	e377      	b.n	100013a8 <CRCCalculator+0xcb0>
10000cb8:	059a      	lsls	r2, r3, #22
10000cba:	d500      	bpl.n	10000cbe <CRCCalculator+0x5c6>
10000cbc:	e380      	b.n	100013c0 <CRCCalculator+0xcc8>
10000cbe:	05da      	lsls	r2, r3, #23
10000cc0:	d500      	bpl.n	10000cc4 <CRCCalculator+0x5cc>
10000cc2:	e37a      	b.n	100013ba <CRCCalculator+0xcc2>
10000cc4:	061a      	lsls	r2, r3, #24
10000cc6:	d500      	bpl.n	10000cca <CRCCalculator+0x5d2>
10000cc8:	e374      	b.n	100013b4 <CRCCalculator+0xcbc>
10000cca:	065a      	lsls	r2, r3, #25
10000ccc:	d500      	bpl.n	10000cd0 <CRCCalculator+0x5d8>
10000cce:	e36e      	b.n	100013ae <CRCCalculator+0xcb6>
10000cd0:	069a      	lsls	r2, r3, #26
10000cd2:	d500      	bpl.n	10000cd6 <CRCCalculator+0x5de>
10000cd4:	e39a      	b.n	1000140c <CRCCalculator+0xd14>
10000cd6:	06da      	lsls	r2, r3, #27
10000cd8:	d501      	bpl.n	10000cde <CRCCalculator+0x5e6>
10000cda:	f000 fd71 	bl	100017c0 <CRCCalculator+0x10c8>
10000cde:	071a      	lsls	r2, r3, #28
10000ce0:	d501      	bpl.n	10000ce6 <CRCCalculator+0x5ee>
10000ce2:	f000 fd8d 	bl	10001800 <CRCCalculator+0x1108>
10000ce6:	075a      	lsls	r2, r3, #29
10000ce8:	d501      	bpl.n	10000cee <CRCCalculator+0x5f6>
10000cea:	f000 fd85 	bl	100017f8 <CRCCalculator+0x1100>
10000cee:	2202      	movs	r2, #2
10000cf0:	421a      	tst	r2, r3
10000cf2:	d001      	beq.n	10000cf8 <CRCCalculator+0x600>
10000cf4:	f000 fd88 	bl	10001808 <CRCCalculator+0x1110>
10000cf8:	310e      	adds	r1, #14
10000cfa:	320d      	adds	r2, #13
10000cfc:	4093      	lsls	r3, r2
10000cfe:	3601      	adds	r6, #1
10000d00:	b298      	uxth	r0, r3
10000d02:	4680      	mov	r8, r0
10000d04:	1bbf      	subs	r7, r7, r6
10000d06:	2f09      	cmp	r7, #9
10000d08:	dc13      	bgt.n	10000d32 <CRCCalculator+0x63a>
10000d0a:	4650      	mov	r0, sl
10000d0c:	2800      	cmp	r0, #0
10000d0e:	d000      	beq.n	10000d12 <CRCCalculator+0x61a>
10000d10:	e0dd      	b.n	10000ece <CRCCalculator+0x7d6>
10000d12:	9800      	ldr	r0, [sp, #0]
10000d14:	3710      	adds	r7, #16
10000d16:	0204      	lsls	r4, r0, #8
10000d18:	4660      	mov	r0, ip
10000d1a:	7900      	ldrb	r0, [r0, #4]
10000d1c:	4320      	orrs	r0, r4
10000d1e:	4664      	mov	r4, ip
10000d20:	7964      	ldrb	r4, [r4, #5]
10000d22:	0200      	lsls	r0, r0, #8
10000d24:	4304      	orrs	r4, r0
10000d26:	2001      	movs	r0, #1
10000d28:	4682      	mov	sl, r0
10000d2a:	9400      	str	r4, [sp, #0]
10000d2c:	2f00      	cmp	r7, #0
10000d2e:	dc00      	bgt.n	10000d32 <CRCCalculator+0x63a>
10000d30:	e0c8      	b.n	10000ec4 <CRCCalculator+0x7cc>
10000d32:	000e      	movs	r6, r1
10000d34:	e78e      	b.n	10000c54 <CRCCalculator+0x55c>
10000d36:	46c0      	nop			; (mov r8, r8)
10000d38:	20000244 	.word	0x20000244
10000d3c:	22a0      	movs	r2, #160	; 0xa0
10000d3e:	78c1      	ldrb	r1, [r0, #3]
10000d40:	8803      	ldrh	r3, [r0, #0]
10000d42:	00d2      	lsls	r2, r2, #3
10000d44:	430a      	orrs	r2, r1
10000d46:	03d9      	lsls	r1, r3, #15
10000d48:	430a      	orrs	r2, r1
10000d4a:	4690      	mov	r8, r2
10000d4c:	2201      	movs	r2, #1
10000d4e:	0559      	lsls	r1, r3, #21
10000d50:	d501      	bpl.n	10000d56 <CRCCalculator+0x65e>
10000d52:	f000 feec 	bl	10001b2e <CRCCalculator+0x1436>
10000d56:	1259      	asrs	r1, r3, #9
10000d58:	420a      	tst	r2, r1
10000d5a:	d001      	beq.n	10000d60 <CRCCalculator+0x668>
10000d5c:	f000 fee4 	bl	10001b28 <CRCCalculator+0x1430>
10000d60:	1219      	asrs	r1, r3, #8
10000d62:	420a      	tst	r2, r1
10000d64:	d001      	beq.n	10000d6a <CRCCalculator+0x672>
10000d66:	f000 fed6 	bl	10001b16 <CRCCalculator+0x141e>
10000d6a:	11d9      	asrs	r1, r3, #7
10000d6c:	420a      	tst	r2, r1
10000d6e:	d001      	beq.n	10000d74 <CRCCalculator+0x67c>
10000d70:	f000 fece 	bl	10001b10 <CRCCalculator+0x1418>
10000d74:	0659      	lsls	r1, r3, #25
10000d76:	d501      	bpl.n	10000d7c <CRCCalculator+0x684>
10000d78:	f000 fec7 	bl	10001b0a <CRCCalculator+0x1412>
10000d7c:	1159      	asrs	r1, r3, #5
10000d7e:	420a      	tst	r2, r1
10000d80:	d001      	beq.n	10000d86 <CRCCalculator+0x68e>
10000d82:	f000 febf 	bl	10001b04 <CRCCalculator+0x140c>
10000d86:	1119      	asrs	r1, r3, #4
10000d88:	420a      	tst	r2, r1
10000d8a:	d001      	beq.n	10000d90 <CRCCalculator+0x698>
10000d8c:	f000 fedb 	bl	10001b46 <CRCCalculator+0x144e>
10000d90:	10d9      	asrs	r1, r3, #3
10000d92:	420a      	tst	r2, r1
10000d94:	d001      	beq.n	10000d9a <CRCCalculator+0x6a2>
10000d96:	f000 fed3 	bl	10001b40 <CRCCalculator+0x1448>
10000d9a:	1099      	asrs	r1, r3, #2
10000d9c:	420a      	tst	r2, r1
10000d9e:	d001      	beq.n	10000da4 <CRCCalculator+0x6ac>
10000da0:	f000 fecb 	bl	10001b3a <CRCCalculator+0x1442>
10000da4:	105b      	asrs	r3, r3, #1
10000da6:	421a      	tst	r2, r3
10000da8:	d001      	beq.n	10000dae <CRCCalculator+0x6b6>
10000daa:	f000 fec3 	bl	10001b34 <CRCCalculator+0x143c>
10000dae:	2601      	movs	r6, #1
10000db0:	4bd9      	ldr	r3, [pc, #868]	; (10001118 <CRCCalculator+0xa20>)
10000db2:	2200      	movs	r2, #0
10000db4:	881b      	ldrh	r3, [r3, #0]
10000db6:	4640      	mov	r0, r8
10000db8:	469b      	mov	fp, r3
10000dba:	2300      	movs	r3, #0
10000dbc:	270f      	movs	r7, #15
10000dbe:	2501      	movs	r5, #1
10000dc0:	4690      	mov	r8, r2
10000dc2:	46da      	mov	sl, fp
10000dc4:	360f      	adds	r6, #15
10000dc6:	9301      	str	r3, [sp, #4]
10000dc8:	466a      	mov	r2, sp
10000dca:	1e73      	subs	r3, r6, #1
10000dcc:	7013      	strb	r3, [r2, #0]
10000dce:	7812      	ldrb	r2, [r2, #0]
10000dd0:	4699      	mov	r9, r3
10000dd2:	1bd3      	subs	r3, r2, r7
10000dd4:	b2db      	uxtb	r3, r3
10000dd6:	2100      	movs	r1, #0
10000dd8:	4293      	cmp	r3, r2
10000dda:	d805      	bhi.n	10000de8 <CRCCalculator+0x6f0>
10000ddc:	002c      	movs	r4, r5
10000dde:	409c      	lsls	r4, r3
10000de0:	3301      	adds	r3, #1
10000de2:	4321      	orrs	r1, r4
10000de4:	4293      	cmp	r3, r2
10000de6:	d9f9      	bls.n	10000ddc <CRCCalculator+0x6e4>
10000de8:	464b      	mov	r3, r9
10000dea:	1bdb      	subs	r3, r3, r7
10000dec:	469b      	mov	fp, r3
10000dee:	d501      	bpl.n	10000df4 <CRCCalculator+0x6fc>
10000df0:	f000 fd0e 	bl	10001810 <CRCCalculator+0x1118>
10000df4:	000b      	movs	r3, r1
10000df6:	465a      	mov	r2, fp
10000df8:	4003      	ands	r3, r0
10000dfa:	40d3      	lsrs	r3, r2
10000dfc:	4642      	mov	r2, r8
10000dfe:	431a      	orrs	r2, r3
10000e00:	b293      	uxth	r3, r2
10000e02:	4652      	mov	r2, sl
10000e04:	4053      	eors	r3, r2
10000e06:	0bd9      	lsrs	r1, r3, #15
10000e08:	d001      	beq.n	10000e0e <CRCCalculator+0x716>
10000e0a:	f000 fd12 	bl	10001832 <CRCCalculator+0x113a>
10000e0e:	2280      	movs	r2, #128	; 0x80
10000e10:	01d2      	lsls	r2, r2, #7
10000e12:	4213      	tst	r3, r2
10000e14:	d001      	beq.n	10000e1a <CRCCalculator+0x722>
10000e16:	f000 fd08 	bl	1000182a <CRCCalculator+0x1132>
10000e1a:	2280      	movs	r2, #128	; 0x80
10000e1c:	0192      	lsls	r2, r2, #6
10000e1e:	4213      	tst	r3, r2
10000e20:	d001      	beq.n	10000e26 <CRCCalculator+0x72e>
10000e22:	f000 fd0f 	bl	10001844 <CRCCalculator+0x114c>
10000e26:	2280      	movs	r2, #128	; 0x80
10000e28:	0152      	lsls	r2, r2, #5
10000e2a:	4213      	tst	r3, r2
10000e2c:	d001      	beq.n	10000e32 <CRCCalculator+0x73a>
10000e2e:	f000 fd05 	bl	1000183c <CRCCalculator+0x1144>
10000e32:	051a      	lsls	r2, r3, #20
10000e34:	d501      	bpl.n	10000e3a <CRCCalculator+0x742>
10000e36:	f000 fd21 	bl	1000187c <CRCCalculator+0x1184>
10000e3a:	055a      	lsls	r2, r3, #21
10000e3c:	d501      	bpl.n	10000e42 <CRCCalculator+0x74a>
10000e3e:	f000 fd19 	bl	10001874 <CRCCalculator+0x117c>
10000e42:	059a      	lsls	r2, r3, #22
10000e44:	d501      	bpl.n	10000e4a <CRCCalculator+0x752>
10000e46:	f000 fd29 	bl	1000189c <CRCCalculator+0x11a4>
10000e4a:	05da      	lsls	r2, r3, #23
10000e4c:	d501      	bpl.n	10000e52 <CRCCalculator+0x75a>
10000e4e:	f000 fd21 	bl	10001894 <CRCCalculator+0x119c>
10000e52:	061a      	lsls	r2, r3, #24
10000e54:	d501      	bpl.n	10000e5a <CRCCalculator+0x762>
10000e56:	f000 fd19 	bl	1000188c <CRCCalculator+0x1194>
10000e5a:	065a      	lsls	r2, r3, #25
10000e5c:	d501      	bpl.n	10000e62 <CRCCalculator+0x76a>
10000e5e:	f000 fd11 	bl	10001884 <CRCCalculator+0x118c>
10000e62:	069a      	lsls	r2, r3, #26
10000e64:	d501      	bpl.n	10000e6a <CRCCalculator+0x772>
10000e66:	f000 fd01 	bl	1000186c <CRCCalculator+0x1174>
10000e6a:	06da      	lsls	r2, r3, #27
10000e6c:	d501      	bpl.n	10000e72 <CRCCalculator+0x77a>
10000e6e:	f000 fcf9 	bl	10001864 <CRCCalculator+0x116c>
10000e72:	071a      	lsls	r2, r3, #28
10000e74:	d501      	bpl.n	10000e7a <CRCCalculator+0x782>
10000e76:	f000 fcf1 	bl	1000185c <CRCCalculator+0x1164>
10000e7a:	075a      	lsls	r2, r3, #29
10000e7c:	d501      	bpl.n	10000e82 <CRCCalculator+0x78a>
10000e7e:	f000 fce9 	bl	10001854 <CRCCalculator+0x115c>
10000e82:	2202      	movs	r2, #2
10000e84:	421a      	tst	r2, r3
10000e86:	d001      	beq.n	10000e8c <CRCCalculator+0x794>
10000e88:	f000 fce0 	bl	1000184c <CRCCalculator+0x1154>
10000e8c:	310e      	adds	r1, #14
10000e8e:	320d      	adds	r2, #13
10000e90:	4093      	lsls	r3, r2
10000e92:	3701      	adds	r7, #1
10000e94:	b29c      	uxth	r4, r3
10000e96:	46a0      	mov	r8, r4
10000e98:	1bf6      	subs	r6, r6, r7
10000e9a:	2e09      	cmp	r6, #9
10000e9c:	dd00      	ble.n	10000ea0 <CRCCalculator+0x7a8>
10000e9e:	e22d      	b.n	100012fc <CRCCalculator+0xc04>
10000ea0:	9c01      	ldr	r4, [sp, #4]
10000ea2:	2c00      	cmp	r4, #0
10000ea4:	d000      	beq.n	10000ea8 <CRCCalculator+0x7b0>
10000ea6:	e22b      	b.n	10001300 <CRCCalculator+0xc08>
10000ea8:	0204      	lsls	r4, r0, #8
10000eaa:	4660      	mov	r0, ip
10000eac:	7900      	ldrb	r0, [r0, #4]
10000eae:	3610      	adds	r6, #16
10000eb0:	4320      	orrs	r0, r4
10000eb2:	4664      	mov	r4, ip
10000eb4:	7964      	ldrb	r4, [r4, #5]
10000eb6:	0200      	lsls	r0, r0, #8
10000eb8:	4320      	orrs	r0, r4
10000eba:	2401      	movs	r4, #1
10000ebc:	9401      	str	r4, [sp, #4]
10000ebe:	2e00      	cmp	r6, #0
10000ec0:	dd00      	ble.n	10000ec4 <CRCCalculator+0x7cc>
10000ec2:	e21b      	b.n	100012fc <CRCCalculator+0xc04>
10000ec4:	0418      	lsls	r0, r3, #16
10000ec6:	0c00      	lsrs	r0, r0, #16
10000ec8:	4110      	asrs	r0, r2
10000eca:	b280      	uxth	r0, r0
10000ecc:	e5a8      	b.n	10000a20 <CRCCalculator+0x328>
10000ece:	4650      	mov	r0, sl
10000ed0:	2801      	cmp	r0, #1
10000ed2:	d000      	beq.n	10000ed6 <CRCCalculator+0x7de>
10000ed4:	e72a      	b.n	10000d2c <CRCCalculator+0x634>
10000ed6:	9800      	ldr	r0, [sp, #0]
10000ed8:	370f      	adds	r7, #15
10000eda:	03c0      	lsls	r0, r0, #15
10000edc:	9000      	str	r0, [sp, #0]
10000ede:	2002      	movs	r0, #2
10000ee0:	4682      	mov	sl, r0
10000ee2:	e723      	b.n	10000d2c <CRCCalculator+0x634>
10000ee4:	2005      	movs	r0, #5
10000ee6:	2206      	movs	r2, #6
10000ee8:	e4a1      	b.n	1000082e <CRCCalculator+0x136>
10000eea:	2006      	movs	r0, #6
10000eec:	2207      	movs	r2, #7
10000eee:	e49e      	b.n	1000082e <CRCCalculator+0x136>
10000ef0:	2007      	movs	r0, #7
10000ef2:	2208      	movs	r2, #8
10000ef4:	e49b      	b.n	1000082e <CRCCalculator+0x136>
10000ef6:	2801      	cmp	r0, #1
10000ef8:	d100      	bne.n	10000efc <CRCCalculator+0x804>
10000efa:	e36f      	b.n	100015dc <CRCCalculator+0xee4>
10000efc:	2802      	cmp	r0, #2
10000efe:	d100      	bne.n	10000f02 <CRCCalculator+0x80a>
10000f00:	e35e      	b.n	100015c0 <CRCCalculator+0xec8>
10000f02:	2803      	cmp	r0, #3
10000f04:	d100      	bne.n	10000f08 <CRCCalculator+0x810>
10000f06:	e350      	b.n	100015aa <CRCCalculator+0xeb2>
10000f08:	2e00      	cmp	r6, #0
10000f0a:	d000      	beq.n	10000f0e <CRCCalculator+0x816>
10000f0c:	e580      	b.n	10000a10 <CRCCalculator+0x318>
10000f0e:	0418      	lsls	r0, r3, #16
10000f10:	0c00      	lsrs	r0, r0, #16
10000f12:	4108      	asrs	r0, r1
10000f14:	b280      	uxth	r0, r0
10000f16:	e583      	b.n	10000a20 <CRCCalculator+0x328>
10000f18:	2008      	movs	r0, #8
10000f1a:	2209      	movs	r2, #9
10000f1c:	e487      	b.n	1000082e <CRCCalculator+0x136>
10000f1e:	2009      	movs	r0, #9
10000f20:	220a      	movs	r2, #10
10000f22:	e484      	b.n	1000082e <CRCCalculator+0x136>
10000f24:	200a      	movs	r0, #10
10000f26:	220b      	movs	r2, #11
10000f28:	e481      	b.n	1000082e <CRCCalculator+0x136>
10000f2a:	200b      	movs	r0, #11
10000f2c:	220c      	movs	r2, #12
10000f2e:	e47e      	b.n	1000082e <CRCCalculator+0x136>
10000f30:	200c      	movs	r0, #12
10000f32:	220d      	movs	r2, #13
10000f34:	e47b      	b.n	1000082e <CRCCalculator+0x136>
10000f36:	200d      	movs	r0, #13
10000f38:	220e      	movs	r2, #14
10000f3a:	e478      	b.n	1000082e <CRCCalculator+0x136>
10000f3c:	2280      	movs	r2, #128	; 0x80
10000f3e:	78c1      	ldrb	r1, [r0, #3]
10000f40:	8803      	ldrh	r3, [r0, #0]
10000f42:	0092      	lsls	r2, r2, #2
10000f44:	430a      	orrs	r2, r1
10000f46:	03d9      	lsls	r1, r3, #15
10000f48:	430a      	orrs	r2, r1
10000f4a:	4690      	mov	r8, r2
10000f4c:	2201      	movs	r2, #1
10000f4e:	0559      	lsls	r1, r3, #21
10000f50:	d501      	bpl.n	10000f56 <CRCCalculator+0x85e>
10000f52:	f000 fd34 	bl	100019be <CRCCalculator+0x12c6>
10000f56:	1259      	asrs	r1, r3, #9
10000f58:	420a      	tst	r2, r1
10000f5a:	d001      	beq.n	10000f60 <CRCCalculator+0x868>
10000f5c:	f000 fd2c 	bl	100019b8 <CRCCalculator+0x12c0>
10000f60:	1219      	asrs	r1, r3, #8
10000f62:	420a      	tst	r2, r1
10000f64:	d001      	beq.n	10000f6a <CRCCalculator+0x872>
10000f66:	f000 fd24 	bl	100019b2 <CRCCalculator+0x12ba>
10000f6a:	11d9      	asrs	r1, r3, #7
10000f6c:	420a      	tst	r2, r1
10000f6e:	d001      	beq.n	10000f74 <CRCCalculator+0x87c>
10000f70:	f000 fd1c 	bl	100019ac <CRCCalculator+0x12b4>
10000f74:	1199      	asrs	r1, r3, #6
10000f76:	420a      	tst	r2, r1
10000f78:	d001      	beq.n	10000f7e <CRCCalculator+0x886>
10000f7a:	f000 fd14 	bl	100019a6 <CRCCalculator+0x12ae>
10000f7e:	1159      	asrs	r1, r3, #5
10000f80:	420a      	tst	r2, r1
10000f82:	d001      	beq.n	10000f88 <CRCCalculator+0x890>
10000f84:	f000 fd0c 	bl	100019a0 <CRCCalculator+0x12a8>
10000f88:	1119      	asrs	r1, r3, #4
10000f8a:	420a      	tst	r2, r1
10000f8c:	d001      	beq.n	10000f92 <CRCCalculator+0x89a>
10000f8e:	f000 fd04 	bl	1000199a <CRCCalculator+0x12a2>
10000f92:	0719      	lsls	r1, r3, #28
10000f94:	d501      	bpl.n	10000f9a <CRCCalculator+0x8a2>
10000f96:	f000 fcfd 	bl	10001994 <CRCCalculator+0x129c>
10000f9a:	1099      	asrs	r1, r3, #2
10000f9c:	420a      	tst	r2, r1
10000f9e:	d001      	beq.n	10000fa4 <CRCCalculator+0x8ac>
10000fa0:	f000 fdbf 	bl	10001b22 <CRCCalculator+0x142a>
10000fa4:	105b      	asrs	r3, r3, #1
10000fa6:	421a      	tst	r2, r3
10000fa8:	d001      	beq.n	10000fae <CRCCalculator+0x8b6>
10000faa:	f000 fdb7 	bl	10001b1c <CRCCalculator+0x1424>
10000fae:	2001      	movs	r0, #1
10000fb0:	4b59      	ldr	r3, [pc, #356]	; (10001118 <CRCCalculator+0xa20>)
10000fb2:	2200      	movs	r2, #0
10000fb4:	881b      	ldrh	r3, [r3, #0]
10000fb6:	270f      	movs	r7, #15
10000fb8:	469a      	mov	sl, r3
10000fba:	2300      	movs	r3, #0
10000fbc:	9300      	str	r3, [sp, #0]
10000fbe:	2380      	movs	r3, #128	; 0x80
10000fc0:	01db      	lsls	r3, r3, #7
10000fc2:	2601      	movs	r6, #1
10000fc4:	469b      	mov	fp, r3
10000fc6:	4691      	mov	r9, r2
10000fc8:	300f      	adds	r0, #15
10000fca:	1e42      	subs	r2, r0, #1
10000fcc:	b2d5      	uxtb	r5, r2
10000fce:	1beb      	subs	r3, r5, r7
10000fd0:	b2db      	uxtb	r3, r3
10000fd2:	2100      	movs	r1, #0
10000fd4:	42ab      	cmp	r3, r5
10000fd6:	d805      	bhi.n	10000fe4 <CRCCalculator+0x8ec>
10000fd8:	0034      	movs	r4, r6
10000fda:	409c      	lsls	r4, r3
10000fdc:	3301      	adds	r3, #1
10000fde:	4321      	orrs	r1, r4
10000fe0:	42ab      	cmp	r3, r5
10000fe2:	d9f9      	bls.n	10000fd8 <CRCCalculator+0x8e0>
10000fe4:	1bd4      	subs	r4, r2, r7
10000fe6:	d500      	bpl.n	10000fea <CRCCalculator+0x8f2>
10000fe8:	e07f      	b.n	100010ea <CRCCalculator+0x9f2>
10000fea:	4643      	mov	r3, r8
10000fec:	400b      	ands	r3, r1
10000fee:	40e3      	lsrs	r3, r4
10000ff0:	464a      	mov	r2, r9
10000ff2:	431a      	orrs	r2, r3
10000ff4:	b293      	uxth	r3, r2
10000ff6:	4652      	mov	r2, sl
10000ff8:	4053      	eors	r3, r2
10000ffa:	0bda      	lsrs	r2, r3, #15
10000ffc:	d000      	beq.n	10001000 <CRCCalculator+0x908>
10000ffe:	e147      	b.n	10001290 <CRCCalculator+0xb98>
10001000:	465a      	mov	r2, fp
10001002:	4213      	tst	r3, r2
10001004:	d000      	beq.n	10001008 <CRCCalculator+0x910>
10001006:	e153      	b.n	100012b0 <CRCCalculator+0xbb8>
10001008:	2280      	movs	r2, #128	; 0x80
1000100a:	0192      	lsls	r2, r2, #6
1000100c:	4213      	tst	r3, r2
1000100e:	d000      	beq.n	10001012 <CRCCalculator+0x91a>
10001010:	e154      	b.n	100012bc <CRCCalculator+0xbc4>
10001012:	2280      	movs	r2, #128	; 0x80
10001014:	0152      	lsls	r2, r2, #5
10001016:	4213      	tst	r3, r2
10001018:	d000      	beq.n	1000101c <CRCCalculator+0x924>
1000101a:	e14c      	b.n	100012b6 <CRCCalculator+0xbbe>
1000101c:	051a      	lsls	r2, r3, #20
1000101e:	d500      	bpl.n	10001022 <CRCCalculator+0x92a>
10001020:	e169      	b.n	100012f6 <CRCCalculator+0xbfe>
10001022:	055a      	lsls	r2, r3, #21
10001024:	d500      	bpl.n	10001028 <CRCCalculator+0x930>
10001026:	e163      	b.n	100012f0 <CRCCalculator+0xbf8>
10001028:	059a      	lsls	r2, r3, #22
1000102a:	d500      	bpl.n	1000102e <CRCCalculator+0x936>
1000102c:	e15d      	b.n	100012ea <CRCCalculator+0xbf2>
1000102e:	05da      	lsls	r2, r3, #23
10001030:	d500      	bpl.n	10001034 <CRCCalculator+0x93c>
10001032:	e157      	b.n	100012e4 <CRCCalculator+0xbec>
10001034:	061a      	lsls	r2, r3, #24
10001036:	d500      	bpl.n	1000103a <CRCCalculator+0x942>
10001038:	e1b3      	b.n	100013a2 <CRCCalculator+0xcaa>
1000103a:	065a      	lsls	r2, r3, #25
1000103c:	d500      	bpl.n	10001040 <CRCCalculator+0x948>
1000103e:	e1ad      	b.n	1000139c <CRCCalculator+0xca4>
10001040:	069a      	lsls	r2, r3, #26
10001042:	d500      	bpl.n	10001046 <CRCCalculator+0x94e>
10001044:	e1a7      	b.n	10001396 <CRCCalculator+0xc9e>
10001046:	06da      	lsls	r2, r3, #27
10001048:	d500      	bpl.n	1000104c <CRCCalculator+0x954>
1000104a:	e1a1      	b.n	10001390 <CRCCalculator+0xc98>
1000104c:	071a      	lsls	r2, r3, #28
1000104e:	d500      	bpl.n	10001052 <CRCCalculator+0x95a>
10001050:	e1bf      	b.n	100013d2 <CRCCalculator+0xcda>
10001052:	075a      	lsls	r2, r3, #29
10001054:	d500      	bpl.n	10001058 <CRCCalculator+0x960>
10001056:	e1b9      	b.n	100013cc <CRCCalculator+0xcd4>
10001058:	2202      	movs	r2, #2
1000105a:	421a      	tst	r2, r3
1000105c:	d000      	beq.n	10001060 <CRCCalculator+0x968>
1000105e:	e1b2      	b.n	100013c6 <CRCCalculator+0xcce>
10001060:	210f      	movs	r1, #15
10001062:	320c      	adds	r2, #12
10001064:	408b      	lsls	r3, r1
10001066:	3701      	adds	r7, #1
10001068:	b29c      	uxth	r4, r3
1000106a:	46a1      	mov	r9, r4
1000106c:	1bc0      	subs	r0, r0, r7
1000106e:	2809      	cmp	r0, #9
10001070:	dc0f      	bgt.n	10001092 <CRCCalculator+0x99a>
10001072:	9c00      	ldr	r4, [sp, #0]
10001074:	2c00      	cmp	r4, #0
10001076:	d107      	bne.n	10001088 <CRCCalculator+0x990>
10001078:	4644      	mov	r4, r8
1000107a:	0225      	lsls	r5, r4, #8
1000107c:	4664      	mov	r4, ip
1000107e:	7924      	ldrb	r4, [r4, #4]
10001080:	3017      	adds	r0, #23
10001082:	432c      	orrs	r4, r5
10001084:	03e4      	lsls	r4, r4, #15
10001086:	46a0      	mov	r8, r4
10001088:	2800      	cmp	r0, #0
1000108a:	dc00      	bgt.n	1000108e <CRCCalculator+0x996>
1000108c:	e73f      	b.n	10000f0e <CRCCalculator+0x816>
1000108e:	2301      	movs	r3, #1
10001090:	9300      	str	r3, [sp, #0]
10001092:	0017      	movs	r7, r2
10001094:	e799      	b.n	10000fca <CRCCalculator+0x8d2>
10001096:	9b01      	ldr	r3, [sp, #4]
10001098:	0014      	movs	r4, r2
1000109a:	2000      	movs	r0, #0
1000109c:	4642      	mov	r2, r8
1000109e:	2501      	movs	r5, #1
100010a0:	4698      	mov	r8, r3
100010a2:	2300      	movs	r3, #0
100010a4:	0029      	movs	r1, r5
100010a6:	4099      	lsls	r1, r3
100010a8:	3301      	adds	r3, #1
100010aa:	4308      	orrs	r0, r1
100010ac:	42a3      	cmp	r3, r4
100010ae:	d9f9      	bls.n	100010a4 <CRCCalculator+0x9ac>
100010b0:	4643      	mov	r3, r8
100010b2:	4003      	ands	r3, r0
100010b4:	0018      	movs	r0, r3
100010b6:	4663      	mov	r3, ip
100010b8:	4310      	orrs	r0, r2
100010ba:	b280      	uxth	r0, r0
100010bc:	1af6      	subs	r6, r6, r3
100010be:	4130      	asrs	r0, r6
100010c0:	b280      	uxth	r0, r0
100010c2:	e4ad      	b.n	10000a20 <CRCCalculator+0x328>
100010c4:	2201      	movs	r2, #1
100010c6:	2100      	movs	r1, #0
100010c8:	4252      	negs	r2, r2
100010ca:	e569      	b.n	10000ba0 <CRCCalculator+0x4a8>
100010cc:	2200      	movs	r2, #0
100010ce:	2101      	movs	r1, #1
100010d0:	e566      	b.n	10000ba0 <CRCCalculator+0x4a8>
100010d2:	2201      	movs	r2, #1
100010d4:	2102      	movs	r1, #2
100010d6:	e563      	b.n	10000ba0 <CRCCalculator+0x4a8>
100010d8:	2202      	movs	r2, #2
100010da:	2103      	movs	r1, #3
100010dc:	e560      	b.n	10000ba0 <CRCCalculator+0x4a8>
100010de:	2204      	movs	r2, #4
100010e0:	2105      	movs	r1, #5
100010e2:	e55d      	b.n	10000ba0 <CRCCalculator+0x4a8>
100010e4:	2203      	movs	r2, #3
100010e6:	2104      	movs	r1, #4
100010e8:	e55a      	b.n	10000ba0 <CRCCalculator+0x4a8>
100010ea:	0013      	movs	r3, r2
100010ec:	2000      	movs	r0, #0
100010ee:	464a      	mov	r2, r9
100010f0:	2401      	movs	r4, #1
100010f2:	4699      	mov	r9, r3
100010f4:	2300      	movs	r3, #0
100010f6:	0021      	movs	r1, r4
100010f8:	4099      	lsls	r1, r3
100010fa:	3301      	adds	r3, #1
100010fc:	4308      	orrs	r0, r1
100010fe:	42ab      	cmp	r3, r5
10001100:	d9f9      	bls.n	100010f6 <CRCCalculator+0x9fe>
10001102:	4643      	mov	r3, r8
10001104:	4003      	ands	r3, r0
10001106:	0018      	movs	r0, r3
10001108:	464b      	mov	r3, r9
1000110a:	4310      	orrs	r0, r2
1000110c:	b280      	uxth	r0, r0
1000110e:	1aff      	subs	r7, r7, r3
10001110:	4138      	asrs	r0, r7
10001112:	b280      	uxth	r0, r0
10001114:	e484      	b.n	10000a20 <CRCCalculator+0x328>
10001116:	46c0      	nop			; (mov r8, r8)
10001118:	20000244 	.word	0x20000244
1000111c:	2280      	movs	r2, #128	; 0x80
1000111e:	78c1      	ldrb	r1, [r0, #3]
10001120:	8803      	ldrh	r3, [r0, #0]
10001122:	00d2      	lsls	r2, r2, #3
10001124:	430a      	orrs	r2, r1
10001126:	03d9      	lsls	r1, r3, #15
10001128:	430a      	orrs	r2, r1
1000112a:	4690      	mov	r8, r2
1000112c:	2201      	movs	r2, #1
1000112e:	0559      	lsls	r1, r3, #21
10001130:	d501      	bpl.n	10001136 <CRCCalculator+0xa3e>
10001132:	f000 fcc9 	bl	10001ac8 <CRCCalculator+0x13d0>
10001136:	1259      	asrs	r1, r3, #9
10001138:	420a      	tst	r2, r1
1000113a:	d001      	beq.n	10001140 <CRCCalculator+0xa48>
1000113c:	f000 fcdf 	bl	10001afe <CRCCalculator+0x1406>
10001140:	1219      	asrs	r1, r3, #8
10001142:	420a      	tst	r2, r1
10001144:	d001      	beq.n	1000114a <CRCCalculator+0xa52>
10001146:	f000 fcd7 	bl	10001af8 <CRCCalculator+0x1400>
1000114a:	11d9      	asrs	r1, r3, #7
1000114c:	420a      	tst	r2, r1
1000114e:	d001      	beq.n	10001154 <CRCCalculator+0xa5c>
10001150:	f000 fccf 	bl	10001af2 <CRCCalculator+0x13fa>
10001154:	1199      	asrs	r1, r3, #6
10001156:	420a      	tst	r2, r1
10001158:	d001      	beq.n	1000115e <CRCCalculator+0xa66>
1000115a:	f000 fcc7 	bl	10001aec <CRCCalculator+0x13f4>
1000115e:	0699      	lsls	r1, r3, #26
10001160:	d501      	bpl.n	10001166 <CRCCalculator+0xa6e>
10001162:	f000 fd45 	bl	10001bf0 <CRCCalculator+0x14f8>
10001166:	1119      	asrs	r1, r3, #4
10001168:	420a      	tst	r2, r1
1000116a:	d001      	beq.n	10001170 <CRCCalculator+0xa78>
1000116c:	f000 fd0b 	bl	10001b86 <CRCCalculator+0x148e>
10001170:	10d9      	asrs	r1, r3, #3
10001172:	420a      	tst	r2, r1
10001174:	d001      	beq.n	1000117a <CRCCalculator+0xa82>
10001176:	f000 fd03 	bl	10001b80 <CRCCalculator+0x1488>
1000117a:	1099      	asrs	r1, r3, #2
1000117c:	420a      	tst	r2, r1
1000117e:	d001      	beq.n	10001184 <CRCCalculator+0xa8c>
10001180:	f000 fcfb 	bl	10001b7a <CRCCalculator+0x1482>
10001184:	105b      	asrs	r3, r3, #1
10001186:	421a      	tst	r2, r3
10001188:	d001      	beq.n	1000118e <CRCCalculator+0xa96>
1000118a:	f000 fcf3 	bl	10001b74 <CRCCalculator+0x147c>
1000118e:	2601      	movs	r6, #1
10001190:	4ba0      	ldr	r3, [pc, #640]	; (10001414 <CRCCalculator+0xd1c>)
10001192:	2200      	movs	r2, #0
10001194:	881b      	ldrh	r3, [r3, #0]
10001196:	4640      	mov	r0, r8
10001198:	469b      	mov	fp, r3
1000119a:	2300      	movs	r3, #0
1000119c:	270f      	movs	r7, #15
1000119e:	2501      	movs	r5, #1
100011a0:	4690      	mov	r8, r2
100011a2:	46da      	mov	sl, fp
100011a4:	360f      	adds	r6, #15
100011a6:	9301      	str	r3, [sp, #4]
100011a8:	466a      	mov	r2, sp
100011aa:	1e73      	subs	r3, r6, #1
100011ac:	7013      	strb	r3, [r2, #0]
100011ae:	7812      	ldrb	r2, [r2, #0]
100011b0:	4699      	mov	r9, r3
100011b2:	1bd3      	subs	r3, r2, r7
100011b4:	b2db      	uxtb	r3, r3
100011b6:	2100      	movs	r1, #0
100011b8:	4293      	cmp	r3, r2
100011ba:	d805      	bhi.n	100011c8 <CRCCalculator+0xad0>
100011bc:	002c      	movs	r4, r5
100011be:	409c      	lsls	r4, r3
100011c0:	3301      	adds	r3, #1
100011c2:	4321      	orrs	r1, r4
100011c4:	4293      	cmp	r3, r2
100011c6:	d9f9      	bls.n	100011bc <CRCCalculator+0xac4>
100011c8:	464b      	mov	r3, r9
100011ca:	1bdb      	subs	r3, r3, r7
100011cc:	469b      	mov	fp, r3
100011ce:	d500      	bpl.n	100011d2 <CRCCalculator+0xada>
100011d0:	e108      	b.n	100013e4 <CRCCalculator+0xcec>
100011d2:	000b      	movs	r3, r1
100011d4:	465a      	mov	r2, fp
100011d6:	4003      	ands	r3, r0
100011d8:	40d3      	lsrs	r3, r2
100011da:	4642      	mov	r2, r8
100011dc:	431a      	orrs	r2, r3
100011de:	b293      	uxth	r3, r2
100011e0:	4652      	mov	r2, sl
100011e2:	4053      	eors	r3, r2
100011e4:	0bd9      	lsrs	r1, r3, #15
100011e6:	d000      	beq.n	100011ea <CRCCalculator+0xaf2>
100011e8:	e10c      	b.n	10001404 <CRCCalculator+0xd0c>
100011ea:	2280      	movs	r2, #128	; 0x80
100011ec:	01d2      	lsls	r2, r2, #7
100011ee:	4213      	tst	r3, r2
100011f0:	d000      	beq.n	100011f4 <CRCCalculator+0xafc>
100011f2:	e104      	b.n	100013fe <CRCCalculator+0xd06>
100011f4:	2280      	movs	r2, #128	; 0x80
100011f6:	0192      	lsls	r2, r2, #6
100011f8:	4213      	tst	r3, r2
100011fa:	d000      	beq.n	100011fe <CRCCalculator+0xb06>
100011fc:	e0ef      	b.n	100013de <CRCCalculator+0xce6>
100011fe:	2280      	movs	r2, #128	; 0x80
10001200:	0152      	lsls	r2, r2, #5
10001202:	4213      	tst	r3, r2
10001204:	d000      	beq.n	10001208 <CRCCalculator+0xb10>
10001206:	e0e7      	b.n	100013d8 <CRCCalculator+0xce0>
10001208:	051a      	lsls	r2, r3, #20
1000120a:	d500      	bpl.n	1000120e <CRCCalculator+0xb16>
1000120c:	e1f7      	b.n	100015fe <CRCCalculator+0xf06>
1000120e:	055a      	lsls	r2, r3, #21
10001210:	d500      	bpl.n	10001214 <CRCCalculator+0xb1c>
10001212:	e1f1      	b.n	100015f8 <CRCCalculator+0xf00>
10001214:	059a      	lsls	r2, r3, #22
10001216:	d500      	bpl.n	1000121a <CRCCalculator+0xb22>
10001218:	e1fd      	b.n	10001616 <CRCCalculator+0xf1e>
1000121a:	05da      	lsls	r2, r3, #23
1000121c:	d500      	bpl.n	10001220 <CRCCalculator+0xb28>
1000121e:	e1f7      	b.n	10001610 <CRCCalculator+0xf18>
10001220:	061a      	lsls	r2, r3, #24
10001222:	d500      	bpl.n	10001226 <CRCCalculator+0xb2e>
10001224:	e1f1      	b.n	1000160a <CRCCalculator+0xf12>
10001226:	065a      	lsls	r2, r3, #25
10001228:	d500      	bpl.n	1000122c <CRCCalculator+0xb34>
1000122a:	e1eb      	b.n	10001604 <CRCCalculator+0xf0c>
1000122c:	069a      	lsls	r2, r3, #26
1000122e:	d500      	bpl.n	10001232 <CRCCalculator+0xb3a>
10001230:	e2ca      	b.n	100017c8 <CRCCalculator+0x10d0>
10001232:	06da      	lsls	r2, r3, #27
10001234:	d500      	bpl.n	10001238 <CRCCalculator+0xb40>
10001236:	e338      	b.n	100018aa <CRCCalculator+0x11b2>
10001238:	071a      	lsls	r2, r3, #28
1000123a:	d500      	bpl.n	1000123e <CRCCalculator+0xb46>
1000123c:	e33b      	b.n	100018b6 <CRCCalculator+0x11be>
1000123e:	075a      	lsls	r2, r3, #29
10001240:	d500      	bpl.n	10001244 <CRCCalculator+0xb4c>
10001242:	e335      	b.n	100018b0 <CRCCalculator+0x11b8>
10001244:	2202      	movs	r2, #2
10001246:	421a      	tst	r2, r3
10001248:	d000      	beq.n	1000124c <CRCCalculator+0xb54>
1000124a:	e32b      	b.n	100018a4 <CRCCalculator+0x11ac>
1000124c:	320c      	adds	r2, #12
1000124e:	310f      	adds	r1, #15
10001250:	408b      	lsls	r3, r1
10001252:	3701      	adds	r7, #1
10001254:	b29c      	uxth	r4, r3
10001256:	46a0      	mov	r8, r4
10001258:	1bf6      	subs	r6, r6, r7
1000125a:	2e09      	cmp	r6, #9
1000125c:	dc10      	bgt.n	10001280 <CRCCalculator+0xb88>
1000125e:	9c01      	ldr	r4, [sp, #4]
10001260:	2c00      	cmp	r4, #0
10001262:	d131      	bne.n	100012c8 <CRCCalculator+0xbd0>
10001264:	0204      	lsls	r4, r0, #8
10001266:	4660      	mov	r0, ip
10001268:	7900      	ldrb	r0, [r0, #4]
1000126a:	3610      	adds	r6, #16
1000126c:	4320      	orrs	r0, r4
1000126e:	4664      	mov	r4, ip
10001270:	7964      	ldrb	r4, [r4, #5]
10001272:	0200      	lsls	r0, r0, #8
10001274:	4320      	orrs	r0, r4
10001276:	2401      	movs	r4, #1
10001278:	9401      	str	r4, [sp, #4]
1000127a:	2e00      	cmp	r6, #0
1000127c:	dc00      	bgt.n	10001280 <CRCCalculator+0xb88>
1000127e:	e646      	b.n	10000f0e <CRCCalculator+0x816>
10001280:	0017      	movs	r7, r2
10001282:	e791      	b.n	100011a8 <CRCCalculator+0xab0>
10001284:	2206      	movs	r2, #6
10001286:	2107      	movs	r1, #7
10001288:	e48a      	b.n	10000ba0 <CRCCalculator+0x4a8>
1000128a:	2205      	movs	r2, #5
1000128c:	2106      	movs	r1, #6
1000128e:	e487      	b.n	10000ba0 <CRCCalculator+0x4a8>
10001290:	2201      	movs	r2, #1
10001292:	2100      	movs	r1, #0
10001294:	4252      	negs	r2, r2
10001296:	e6e5      	b.n	10001064 <CRCCalculator+0x96c>
10001298:	2207      	movs	r2, #7
1000129a:	2108      	movs	r1, #8
1000129c:	e480      	b.n	10000ba0 <CRCCalculator+0x4a8>
1000129e:	2208      	movs	r2, #8
100012a0:	2109      	movs	r1, #9
100012a2:	e47d      	b.n	10000ba0 <CRCCalculator+0x4a8>
100012a4:	220a      	movs	r2, #10
100012a6:	210b      	movs	r1, #11
100012a8:	e47a      	b.n	10000ba0 <CRCCalculator+0x4a8>
100012aa:	2209      	movs	r2, #9
100012ac:	210a      	movs	r1, #10
100012ae:	e477      	b.n	10000ba0 <CRCCalculator+0x4a8>
100012b0:	2200      	movs	r2, #0
100012b2:	2101      	movs	r1, #1
100012b4:	e6d6      	b.n	10001064 <CRCCalculator+0x96c>
100012b6:	2202      	movs	r2, #2
100012b8:	2103      	movs	r1, #3
100012ba:	e6d3      	b.n	10001064 <CRCCalculator+0x96c>
100012bc:	2201      	movs	r2, #1
100012be:	2102      	movs	r1, #2
100012c0:	e6d0      	b.n	10001064 <CRCCalculator+0x96c>
100012c2:	270b      	movs	r7, #11
100012c4:	f7ff fa59 	bl	1000077a <CRCCalculator+0x82>
100012c8:	2c01      	cmp	r4, #1
100012ca:	d1d6      	bne.n	1000127a <CRCCalculator+0xb82>
100012cc:	0204      	lsls	r4, r0, #8
100012ce:	4660      	mov	r0, ip
100012d0:	7980      	ldrb	r0, [r0, #6]
100012d2:	3610      	adds	r6, #16
100012d4:	4320      	orrs	r0, r4
100012d6:	2402      	movs	r4, #2
100012d8:	03c0      	lsls	r0, r0, #15
100012da:	9401      	str	r4, [sp, #4]
100012dc:	e7cd      	b.n	1000127a <CRCCalculator+0xb82>
100012de:	2600      	movs	r6, #0
100012e0:	f7ff fb87 	bl	100009f2 <CRCCalculator+0x2fa>
100012e4:	2206      	movs	r2, #6
100012e6:	2107      	movs	r1, #7
100012e8:	e6bc      	b.n	10001064 <CRCCalculator+0x96c>
100012ea:	2205      	movs	r2, #5
100012ec:	2106      	movs	r1, #6
100012ee:	e6b9      	b.n	10001064 <CRCCalculator+0x96c>
100012f0:	2204      	movs	r2, #4
100012f2:	2105      	movs	r1, #5
100012f4:	e6b6      	b.n	10001064 <CRCCalculator+0x96c>
100012f6:	2203      	movs	r2, #3
100012f8:	2104      	movs	r1, #4
100012fa:	e6b3      	b.n	10001064 <CRCCalculator+0x96c>
100012fc:	000f      	movs	r7, r1
100012fe:	e563      	b.n	10000dc8 <CRCCalculator+0x6d0>
10001300:	2c01      	cmp	r4, #1
10001302:	d007      	beq.n	10001314 <CRCCalculator+0xc1c>
10001304:	2c02      	cmp	r4, #2
10001306:	d000      	beq.n	1000130a <CRCCalculator+0xc12>
10001308:	e5d9      	b.n	10000ebe <CRCCalculator+0x7c6>
1000130a:	3401      	adds	r4, #1
1000130c:	03c0      	lsls	r0, r0, #15
1000130e:	360f      	adds	r6, #15
10001310:	9401      	str	r4, [sp, #4]
10001312:	e5d4      	b.n	10000ebe <CRCCalculator+0x7c6>
10001314:	0204      	lsls	r4, r0, #8
10001316:	4660      	mov	r0, ip
10001318:	7980      	ldrb	r0, [r0, #6]
1000131a:	3610      	adds	r6, #16
1000131c:	4320      	orrs	r0, r4
1000131e:	4664      	mov	r4, ip
10001320:	79e4      	ldrb	r4, [r4, #7]
10001322:	0200      	lsls	r0, r0, #8
10001324:	4320      	orrs	r0, r4
10001326:	2402      	movs	r4, #2
10001328:	9401      	str	r4, [sp, #4]
1000132a:	e5c8      	b.n	10000ebe <CRCCalculator+0x7c6>
1000132c:	220d      	movs	r2, #13
1000132e:	210e      	movs	r1, #14
10001330:	e436      	b.n	10000ba0 <CRCCalculator+0x4a8>
10001332:	220c      	movs	r2, #12
10001334:	210d      	movs	r1, #13
10001336:	e433      	b.n	10000ba0 <CRCCalculator+0x4a8>
10001338:	220b      	movs	r2, #11
1000133a:	210c      	movs	r1, #12
1000133c:	e430      	b.n	10000ba0 <CRCCalculator+0x4a8>
1000133e:	2101      	movs	r1, #1
10001340:	2200      	movs	r2, #0
10001342:	4249      	negs	r1, r1
10001344:	e4da      	b.n	10000cfc <CRCCalculator+0x604>
10001346:	9b00      	ldr	r3, [sp, #0]
10001348:	46a1      	mov	r9, r4
1000134a:	2000      	movs	r0, #0
1000134c:	0014      	movs	r4, r2
1000134e:	2501      	movs	r5, #1
10001350:	4642      	mov	r2, r8
10001352:	4698      	mov	r8, r3
10001354:	2300      	movs	r3, #0
10001356:	0029      	movs	r1, r5
10001358:	4099      	lsls	r1, r3
1000135a:	3301      	adds	r3, #1
1000135c:	4308      	orrs	r0, r1
1000135e:	42a3      	cmp	r3, r4
10001360:	d9f9      	bls.n	10001356 <CRCCalculator+0xc5e>
10001362:	4643      	mov	r3, r8
10001364:	4003      	ands	r3, r0
10001366:	0018      	movs	r0, r3
10001368:	464b      	mov	r3, r9
1000136a:	4310      	orrs	r0, r2
1000136c:	b280      	uxth	r0, r0
1000136e:	1af6      	subs	r6, r6, r3
10001370:	4130      	asrs	r0, r6
10001372:	b280      	uxth	r0, r0
10001374:	f7ff fb54 	bl	10000a20 <CRCCalculator+0x328>
10001378:	2100      	movs	r1, #0
1000137a:	2201      	movs	r2, #1
1000137c:	e4be      	b.n	10000cfc <CRCCalculator+0x604>
1000137e:	2103      	movs	r1, #3
10001380:	2204      	movs	r2, #4
10001382:	e4bb      	b.n	10000cfc <CRCCalculator+0x604>
10001384:	2102      	movs	r1, #2
10001386:	2203      	movs	r2, #3
10001388:	e4b8      	b.n	10000cfc <CRCCalculator+0x604>
1000138a:	2101      	movs	r1, #1
1000138c:	2202      	movs	r2, #2
1000138e:	e4b5      	b.n	10000cfc <CRCCalculator+0x604>
10001390:	220a      	movs	r2, #10
10001392:	210b      	movs	r1, #11
10001394:	e666      	b.n	10001064 <CRCCalculator+0x96c>
10001396:	2209      	movs	r2, #9
10001398:	210a      	movs	r1, #10
1000139a:	e663      	b.n	10001064 <CRCCalculator+0x96c>
1000139c:	2208      	movs	r2, #8
1000139e:	2109      	movs	r1, #9
100013a0:	e660      	b.n	10001064 <CRCCalculator+0x96c>
100013a2:	2207      	movs	r2, #7
100013a4:	2108      	movs	r1, #8
100013a6:	e65d      	b.n	10001064 <CRCCalculator+0x96c>
100013a8:	2104      	movs	r1, #4
100013aa:	2205      	movs	r2, #5
100013ac:	e4a6      	b.n	10000cfc <CRCCalculator+0x604>
100013ae:	2108      	movs	r1, #8
100013b0:	2209      	movs	r2, #9
100013b2:	e4a3      	b.n	10000cfc <CRCCalculator+0x604>
100013b4:	2107      	movs	r1, #7
100013b6:	2208      	movs	r2, #8
100013b8:	e4a0      	b.n	10000cfc <CRCCalculator+0x604>
100013ba:	2106      	movs	r1, #6
100013bc:	2207      	movs	r2, #7
100013be:	e49d      	b.n	10000cfc <CRCCalculator+0x604>
100013c0:	2105      	movs	r1, #5
100013c2:	2206      	movs	r2, #6
100013c4:	e49a      	b.n	10000cfc <CRCCalculator+0x604>
100013c6:	220d      	movs	r2, #13
100013c8:	210e      	movs	r1, #14
100013ca:	e64b      	b.n	10001064 <CRCCalculator+0x96c>
100013cc:	220c      	movs	r2, #12
100013ce:	210d      	movs	r1, #13
100013d0:	e648      	b.n	10001064 <CRCCalculator+0x96c>
100013d2:	220b      	movs	r2, #11
100013d4:	210c      	movs	r1, #12
100013d6:	e645      	b.n	10001064 <CRCCalculator+0x96c>
100013d8:	2202      	movs	r2, #2
100013da:	2103      	movs	r1, #3
100013dc:	e738      	b.n	10001250 <CRCCalculator+0xb58>
100013de:	2201      	movs	r2, #1
100013e0:	2102      	movs	r1, #2
100013e2:	e735      	b.n	10001250 <CRCCalculator+0xb58>
100013e4:	0014      	movs	r4, r2
100013e6:	2300      	movs	r3, #0
100013e8:	4642      	mov	r2, r8
100013ea:	2501      	movs	r5, #1
100013ec:	4680      	mov	r8, r0
100013ee:	2000      	movs	r0, #0
100013f0:	0029      	movs	r1, r5
100013f2:	4099      	lsls	r1, r3
100013f4:	3301      	adds	r3, #1
100013f6:	4308      	orrs	r0, r1
100013f8:	42a3      	cmp	r3, r4
100013fa:	d9f9      	bls.n	100013f0 <CRCCalculator+0xcf8>
100013fc:	e681      	b.n	10001102 <CRCCalculator+0xa0a>
100013fe:	2200      	movs	r2, #0
10001400:	2101      	movs	r1, #1
10001402:	e725      	b.n	10001250 <CRCCalculator+0xb58>
10001404:	2201      	movs	r2, #1
10001406:	2100      	movs	r1, #0
10001408:	4252      	negs	r2, r2
1000140a:	e721      	b.n	10001250 <CRCCalculator+0xb58>
1000140c:	2109      	movs	r1, #9
1000140e:	220a      	movs	r2, #10
10001410:	e474      	b.n	10000cfc <CRCCalculator+0x604>
10001412:	46c0      	nop			; (mov r8, r8)
10001414:	20000244 	.word	0x20000244
10001418:	26c0      	movs	r6, #192	; 0xc0
1000141a:	78c2      	ldrb	r2, [r0, #3]
1000141c:	8803      	ldrh	r3, [r0, #0]
1000141e:	00f6      	lsls	r6, r6, #3
10001420:	4316      	orrs	r6, r2
10001422:	03da      	lsls	r2, r3, #15
10001424:	4316      	orrs	r6, r2
10001426:	2201      	movs	r2, #1
10001428:	0559      	lsls	r1, r3, #21
1000142a:	d500      	bpl.n	1000142e <CRCCalculator+0xd36>
1000142c:	e3c8      	b.n	10001bc0 <CRCCalculator+0x14c8>
1000142e:	1259      	asrs	r1, r3, #9
10001430:	420a      	tst	r2, r1
10001432:	d000      	beq.n	10001436 <CRCCalculator+0xd3e>
10001434:	e3c2      	b.n	10001bbc <CRCCalculator+0x14c4>
10001436:	1219      	asrs	r1, r3, #8
10001438:	420a      	tst	r2, r1
1000143a:	d000      	beq.n	1000143e <CRCCalculator+0xd46>
1000143c:	e3bc      	b.n	10001bb8 <CRCCalculator+0x14c0>
1000143e:	0619      	lsls	r1, r3, #24
10001440:	d500      	bpl.n	10001444 <CRCCalculator+0xd4c>
10001442:	e3b7      	b.n	10001bb4 <CRCCalculator+0x14bc>
10001444:	1199      	asrs	r1, r3, #6
10001446:	420a      	tst	r2, r1
10001448:	d000      	beq.n	1000144c <CRCCalculator+0xd54>
1000144a:	e3b1      	b.n	10001bb0 <CRCCalculator+0x14b8>
1000144c:	1159      	asrs	r1, r3, #5
1000144e:	420a      	tst	r2, r1
10001450:	d000      	beq.n	10001454 <CRCCalculator+0xd5c>
10001452:	e3ab      	b.n	10001bac <CRCCalculator+0x14b4>
10001454:	1119      	asrs	r1, r3, #4
10001456:	420a      	tst	r2, r1
10001458:	d000      	beq.n	1000145c <CRCCalculator+0xd64>
1000145a:	e3a5      	b.n	10001ba8 <CRCCalculator+0x14b0>
1000145c:	10d9      	asrs	r1, r3, #3
1000145e:	420a      	tst	r2, r1
10001460:	d000      	beq.n	10001464 <CRCCalculator+0xd6c>
10001462:	e39f      	b.n	10001ba4 <CRCCalculator+0x14ac>
10001464:	1099      	asrs	r1, r3, #2
10001466:	420a      	tst	r2, r1
10001468:	d000      	beq.n	1000146c <CRCCalculator+0xd74>
1000146a:	e371      	b.n	10001b50 <CRCCalculator+0x1458>
1000146c:	105b      	asrs	r3, r3, #1
1000146e:	421a      	tst	r2, r3
10001470:	d000      	beq.n	10001474 <CRCCalculator+0xd7c>
10001472:	e36b      	b.n	10001b4c <CRCCalculator+0x1454>
10001474:	2701      	movs	r7, #1
10001476:	4bcb      	ldr	r3, [pc, #812]	; (100017a4 <CRCCalculator+0x10ac>)
10001478:	2200      	movs	r2, #0
1000147a:	881b      	ldrh	r3, [r3, #0]
1000147c:	2501      	movs	r5, #1
1000147e:	469b      	mov	fp, r3
10001480:	230f      	movs	r3, #15
10001482:	4698      	mov	r8, r3
10001484:	2300      	movs	r3, #0
10001486:	4640      	mov	r0, r8
10001488:	46e0      	mov	r8, ip
1000148a:	4694      	mov	ip, r2
1000148c:	370f      	adds	r7, #15
1000148e:	9300      	str	r3, [sp, #0]
10001490:	466a      	mov	r2, sp
10001492:	1e7b      	subs	r3, r7, #1
10001494:	7113      	strb	r3, [r2, #4]
10001496:	7912      	ldrb	r2, [r2, #4]
10001498:	4699      	mov	r9, r3
1000149a:	1a13      	subs	r3, r2, r0
1000149c:	b2db      	uxtb	r3, r3
1000149e:	2100      	movs	r1, #0
100014a0:	4293      	cmp	r3, r2
100014a2:	d805      	bhi.n	100014b0 <CRCCalculator+0xdb8>
100014a4:	002c      	movs	r4, r5
100014a6:	409c      	lsls	r4, r3
100014a8:	3301      	adds	r3, #1
100014aa:	4321      	orrs	r1, r4
100014ac:	4293      	cmp	r3, r2
100014ae:	d9f9      	bls.n	100014a4 <CRCCalculator+0xdac>
100014b0:	464b      	mov	r3, r9
100014b2:	1a1b      	subs	r3, r3, r0
100014b4:	469a      	mov	sl, r3
100014b6:	d500      	bpl.n	100014ba <CRCCalculator+0xdc2>
100014b8:	e22d      	b.n	10001916 <CRCCalculator+0x121e>
100014ba:	000b      	movs	r3, r1
100014bc:	4652      	mov	r2, sl
100014be:	4033      	ands	r3, r6
100014c0:	40d3      	lsrs	r3, r2
100014c2:	4662      	mov	r2, ip
100014c4:	431a      	orrs	r2, r3
100014c6:	b293      	uxth	r3, r2
100014c8:	465a      	mov	r2, fp
100014ca:	4053      	eors	r3, r2
100014cc:	0bd9      	lsrs	r1, r3, #15
100014ce:	d000      	beq.n	100014d2 <CRCCalculator+0xdda>
100014d0:	e238      	b.n	10001944 <CRCCalculator+0x124c>
100014d2:	2280      	movs	r2, #128	; 0x80
100014d4:	01d2      	lsls	r2, r2, #7
100014d6:	4213      	tst	r3, r2
100014d8:	d000      	beq.n	100014dc <CRCCalculator+0xde4>
100014da:	e230      	b.n	1000193e <CRCCalculator+0x1246>
100014dc:	2280      	movs	r2, #128	; 0x80
100014de:	0192      	lsls	r2, r2, #6
100014e0:	4213      	tst	r3, r2
100014e2:	d000      	beq.n	100014e6 <CRCCalculator+0xdee>
100014e4:	e228      	b.n	10001938 <CRCCalculator+0x1240>
100014e6:	2280      	movs	r2, #128	; 0x80
100014e8:	0152      	lsls	r2, r2, #5
100014ea:	4213      	tst	r3, r2
100014ec:	d000      	beq.n	100014f0 <CRCCalculator+0xdf8>
100014ee:	e220      	b.n	10001932 <CRCCalculator+0x123a>
100014f0:	051a      	lsls	r2, r3, #20
100014f2:	d500      	bpl.n	100014f6 <CRCCalculator+0xdfe>
100014f4:	e233      	b.n	1000195e <CRCCalculator+0x1266>
100014f6:	055a      	lsls	r2, r3, #21
100014f8:	d500      	bpl.n	100014fc <CRCCalculator+0xe04>
100014fa:	e22d      	b.n	10001958 <CRCCalculator+0x1260>
100014fc:	059a      	lsls	r2, r3, #22
100014fe:	d500      	bpl.n	10001502 <CRCCalculator+0xe0a>
10001500:	e227      	b.n	10001952 <CRCCalculator+0x125a>
10001502:	05da      	lsls	r2, r3, #23
10001504:	d500      	bpl.n	10001508 <CRCCalculator+0xe10>
10001506:	e221      	b.n	1000194c <CRCCalculator+0x1254>
10001508:	061a      	lsls	r2, r3, #24
1000150a:	d500      	bpl.n	1000150e <CRCCalculator+0xe16>
1000150c:	e233      	b.n	10001976 <CRCCalculator+0x127e>
1000150e:	065a      	lsls	r2, r3, #25
10001510:	d500      	bpl.n	10001514 <CRCCalculator+0xe1c>
10001512:	e22d      	b.n	10001970 <CRCCalculator+0x1278>
10001514:	069a      	lsls	r2, r3, #26
10001516:	d500      	bpl.n	1000151a <CRCCalculator+0xe22>
10001518:	e227      	b.n	1000196a <CRCCalculator+0x1272>
1000151a:	06da      	lsls	r2, r3, #27
1000151c:	d500      	bpl.n	10001520 <CRCCalculator+0xe28>
1000151e:	e221      	b.n	10001964 <CRCCalculator+0x126c>
10001520:	071a      	lsls	r2, r3, #28
10001522:	d500      	bpl.n	10001526 <CRCCalculator+0xe2e>
10001524:	e22d      	b.n	10001982 <CRCCalculator+0x128a>
10001526:	075a      	lsls	r2, r3, #29
10001528:	d500      	bpl.n	1000152c <CRCCalculator+0xe34>
1000152a:	e227      	b.n	1000197c <CRCCalculator+0x1284>
1000152c:	2202      	movs	r2, #2
1000152e:	421a      	tst	r2, r3
10001530:	d000      	beq.n	10001534 <CRCCalculator+0xe3c>
10001532:	e288      	b.n	10001a46 <CRCCalculator+0x134e>
10001534:	310e      	adds	r1, #14
10001536:	320d      	adds	r2, #13
10001538:	4093      	lsls	r3, r2
1000153a:	3001      	adds	r0, #1
1000153c:	b29c      	uxth	r4, r3
1000153e:	46a4      	mov	ip, r4
10001540:	1a3f      	subs	r7, r7, r0
10001542:	2f09      	cmp	r7, #9
10001544:	dc10      	bgt.n	10001568 <CRCCalculator+0xe70>
10001546:	9800      	ldr	r0, [sp, #0]
10001548:	2800      	cmp	r0, #0
1000154a:	d10f      	bne.n	1000156c <CRCCalculator+0xe74>
1000154c:	4640      	mov	r0, r8
1000154e:	4644      	mov	r4, r8
10001550:	7900      	ldrb	r0, [r0, #4]
10001552:	0236      	lsls	r6, r6, #8
10001554:	4330      	orrs	r0, r6
10001556:	7966      	ldrb	r6, [r4, #5]
10001558:	0200      	lsls	r0, r0, #8
1000155a:	4306      	orrs	r6, r0
1000155c:	2001      	movs	r0, #1
1000155e:	3710      	adds	r7, #16
10001560:	9000      	str	r0, [sp, #0]
10001562:	2f00      	cmp	r7, #0
10001564:	dc00      	bgt.n	10001568 <CRCCalculator+0xe70>
10001566:	e4ad      	b.n	10000ec4 <CRCCalculator+0x7cc>
10001568:	0008      	movs	r0, r1
1000156a:	e791      	b.n	10001490 <CRCCalculator+0xd98>
1000156c:	2801      	cmp	r0, #1
1000156e:	d008      	beq.n	10001582 <CRCCalculator+0xe8a>
10001570:	2802      	cmp	r0, #2
10001572:	d012      	beq.n	1000159a <CRCCalculator+0xea2>
10001574:	2803      	cmp	r0, #3
10001576:	d1f4      	bne.n	10001562 <CRCCalculator+0xe6a>
10001578:	3001      	adds	r0, #1
1000157a:	03f6      	lsls	r6, r6, #15
1000157c:	370f      	adds	r7, #15
1000157e:	9000      	str	r0, [sp, #0]
10001580:	e7ef      	b.n	10001562 <CRCCalculator+0xe6a>
10001582:	4640      	mov	r0, r8
10001584:	4644      	mov	r4, r8
10001586:	7980      	ldrb	r0, [r0, #6]
10001588:	0236      	lsls	r6, r6, #8
1000158a:	4330      	orrs	r0, r6
1000158c:	79e6      	ldrb	r6, [r4, #7]
1000158e:	0200      	lsls	r0, r0, #8
10001590:	4306      	orrs	r6, r0
10001592:	2002      	movs	r0, #2
10001594:	3710      	adds	r7, #16
10001596:	9000      	str	r0, [sp, #0]
10001598:	e7e3      	b.n	10001562 <CRCCalculator+0xe6a>
1000159a:	4640      	mov	r0, r8
1000159c:	7a00      	ldrb	r0, [r0, #8]
1000159e:	0236      	lsls	r6, r6, #8
100015a0:	4306      	orrs	r6, r0
100015a2:	2003      	movs	r0, #3
100015a4:	3708      	adds	r7, #8
100015a6:	9000      	str	r0, [sp, #0]
100015a8:	e7db      	b.n	10001562 <CRCCalculator+0xe6a>
100015aa:	4641      	mov	r1, r8
100015ac:	0223      	lsls	r3, r4, #8
100015ae:	7a8c      	ldrb	r4, [r1, #10]
100015b0:	3617      	adds	r6, #23
100015b2:	431c      	orrs	r4, r3
100015b4:	2304      	movs	r3, #4
100015b6:	03e4      	lsls	r4, r4, #15
100015b8:	9300      	str	r3, [sp, #0]
100015ba:	0010      	movs	r0, r2
100015bc:	f7ff f9ab 	bl	10000916 <CRCCalculator+0x21e>
100015c0:	4643      	mov	r3, r8
100015c2:	4641      	mov	r1, r8
100015c4:	7a1b      	ldrb	r3, [r3, #8]
100015c6:	0224      	lsls	r4, r4, #8
100015c8:	4323      	orrs	r3, r4
100015ca:	7a4c      	ldrb	r4, [r1, #9]
100015cc:	021b      	lsls	r3, r3, #8
100015ce:	431c      	orrs	r4, r3
100015d0:	2303      	movs	r3, #3
100015d2:	3610      	adds	r6, #16
100015d4:	9300      	str	r3, [sp, #0]
100015d6:	0010      	movs	r0, r2
100015d8:	f7ff f99d 	bl	10000916 <CRCCalculator+0x21e>
100015dc:	4643      	mov	r3, r8
100015de:	4641      	mov	r1, r8
100015e0:	799b      	ldrb	r3, [r3, #6]
100015e2:	0224      	lsls	r4, r4, #8
100015e4:	4323      	orrs	r3, r4
100015e6:	79cc      	ldrb	r4, [r1, #7]
100015e8:	021b      	lsls	r3, r3, #8
100015ea:	431c      	orrs	r4, r3
100015ec:	2302      	movs	r3, #2
100015ee:	3610      	adds	r6, #16
100015f0:	9300      	str	r3, [sp, #0]
100015f2:	0010      	movs	r0, r2
100015f4:	f7ff f98f 	bl	10000916 <CRCCalculator+0x21e>
100015f8:	2204      	movs	r2, #4
100015fa:	2105      	movs	r1, #5
100015fc:	e628      	b.n	10001250 <CRCCalculator+0xb58>
100015fe:	2203      	movs	r2, #3
10001600:	2104      	movs	r1, #4
10001602:	e625      	b.n	10001250 <CRCCalculator+0xb58>
10001604:	2208      	movs	r2, #8
10001606:	2109      	movs	r1, #9
10001608:	e622      	b.n	10001250 <CRCCalculator+0xb58>
1000160a:	2207      	movs	r2, #7
1000160c:	2108      	movs	r1, #8
1000160e:	e61f      	b.n	10001250 <CRCCalculator+0xb58>
10001610:	2206      	movs	r2, #6
10001612:	2107      	movs	r1, #7
10001614:	e61c      	b.n	10001250 <CRCCalculator+0xb58>
10001616:	2205      	movs	r2, #5
10001618:	2106      	movs	r1, #6
1000161a:	e619      	b.n	10001250 <CRCCalculator+0xb58>
1000161c:	24e0      	movs	r4, #224	; 0xe0
1000161e:	78c2      	ldrb	r2, [r0, #3]
10001620:	8803      	ldrh	r3, [r0, #0]
10001622:	00e4      	lsls	r4, r4, #3
10001624:	4314      	orrs	r4, r2
10001626:	03da      	lsls	r2, r3, #15
10001628:	4314      	orrs	r4, r2
1000162a:	2101      	movs	r1, #1
1000162c:	055a      	lsls	r2, r3, #21
1000162e:	d500      	bpl.n	10001632 <CRCCalculator+0xf3a>
10001630:	e2d6      	b.n	10001be0 <CRCCalculator+0x14e8>
10001632:	125a      	asrs	r2, r3, #9
10001634:	4211      	tst	r1, r2
10001636:	d000      	beq.n	1000163a <CRCCalculator+0xf42>
10001638:	e2d0      	b.n	10001bdc <CRCCalculator+0x14e4>
1000163a:	2201      	movs	r2, #1
1000163c:	05d9      	lsls	r1, r3, #23
1000163e:	d500      	bpl.n	10001642 <CRCCalculator+0xf4a>
10001640:	e2ca      	b.n	10001bd8 <CRCCalculator+0x14e0>
10001642:	11d9      	asrs	r1, r3, #7
10001644:	420a      	tst	r2, r1
10001646:	d000      	beq.n	1000164a <CRCCalculator+0xf52>
10001648:	e2c4      	b.n	10001bd4 <CRCCalculator+0x14dc>
1000164a:	1199      	asrs	r1, r3, #6
1000164c:	420a      	tst	r2, r1
1000164e:	d000      	beq.n	10001652 <CRCCalculator+0xf5a>
10001650:	e2be      	b.n	10001bd0 <CRCCalculator+0x14d8>
10001652:	1159      	asrs	r1, r3, #5
10001654:	420a      	tst	r2, r1
10001656:	d000      	beq.n	1000165a <CRCCalculator+0xf62>
10001658:	e2b8      	b.n	10001bcc <CRCCalculator+0x14d4>
1000165a:	1119      	asrs	r1, r3, #4
1000165c:	420a      	tst	r2, r1
1000165e:	d000      	beq.n	10001662 <CRCCalculator+0xf6a>
10001660:	e2b2      	b.n	10001bc8 <CRCCalculator+0x14d0>
10001662:	10d9      	asrs	r1, r3, #3
10001664:	420a      	tst	r2, r1
10001666:	d000      	beq.n	1000166a <CRCCalculator+0xf72>
10001668:	e2ac      	b.n	10001bc4 <CRCCalculator+0x14cc>
1000166a:	1099      	asrs	r1, r3, #2
1000166c:	420a      	tst	r2, r1
1000166e:	d000      	beq.n	10001672 <CRCCalculator+0xf7a>
10001670:	e272      	b.n	10001b58 <CRCCalculator+0x1460>
10001672:	105b      	asrs	r3, r3, #1
10001674:	421a      	tst	r2, r3
10001676:	d000      	beq.n	1000167a <CRCCalculator+0xf82>
10001678:	e26c      	b.n	10001b54 <CRCCalculator+0x145c>
1000167a:	2701      	movs	r7, #1
1000167c:	4b49      	ldr	r3, [pc, #292]	; (100017a4 <CRCCalculator+0x10ac>)
1000167e:	2200      	movs	r2, #0
10001680:	881b      	ldrh	r3, [r3, #0]
10001682:	2601      	movs	r6, #1
10001684:	469b      	mov	fp, r3
10001686:	230f      	movs	r3, #15
10001688:	4698      	mov	r8, r3
1000168a:	2300      	movs	r3, #0
1000168c:	4640      	mov	r0, r8
1000168e:	46e0      	mov	r8, ip
10001690:	4694      	mov	ip, r2
10001692:	370f      	adds	r7, #15
10001694:	9300      	str	r3, [sp, #0]
10001696:	466a      	mov	r2, sp
10001698:	1e7b      	subs	r3, r7, #1
1000169a:	7113      	strb	r3, [r2, #4]
1000169c:	7912      	ldrb	r2, [r2, #4]
1000169e:	4699      	mov	r9, r3
100016a0:	1a13      	subs	r3, r2, r0
100016a2:	b2db      	uxtb	r3, r3
100016a4:	2100      	movs	r1, #0
100016a6:	4293      	cmp	r3, r2
100016a8:	d805      	bhi.n	100016b6 <CRCCalculator+0xfbe>
100016aa:	0035      	movs	r5, r6
100016ac:	409d      	lsls	r5, r3
100016ae:	3301      	adds	r3, #1
100016b0:	4329      	orrs	r1, r5
100016b2:	4293      	cmp	r3, r2
100016b4:	d9f9      	bls.n	100016aa <CRCCalculator+0xfb2>
100016b6:	464b      	mov	r3, r9
100016b8:	1a1b      	subs	r3, r3, r0
100016ba:	469a      	mov	sl, r3
100016bc:	d500      	bpl.n	100016c0 <CRCCalculator+0xfc8>
100016be:	e103      	b.n	100018c8 <CRCCalculator+0x11d0>
100016c0:	000b      	movs	r3, r1
100016c2:	4652      	mov	r2, sl
100016c4:	4023      	ands	r3, r4
100016c6:	40d3      	lsrs	r3, r2
100016c8:	4662      	mov	r2, ip
100016ca:	431a      	orrs	r2, r3
100016cc:	b293      	uxth	r3, r2
100016ce:	465a      	mov	r2, fp
100016d0:	4053      	eors	r3, r2
100016d2:	0bd9      	lsrs	r1, r3, #15
100016d4:	d000      	beq.n	100016d8 <CRCCalculator+0xfe0>
100016d6:	e10d      	b.n	100018f4 <CRCCalculator+0x11fc>
100016d8:	2280      	movs	r2, #128	; 0x80
100016da:	01d2      	lsls	r2, r2, #7
100016dc:	4213      	tst	r3, r2
100016de:	d000      	beq.n	100016e2 <CRCCalculator+0xfea>
100016e0:	e1a3      	b.n	10001a2a <CRCCalculator+0x1332>
100016e2:	2280      	movs	r2, #128	; 0x80
100016e4:	0192      	lsls	r2, r2, #6
100016e6:	4213      	tst	r3, r2
100016e8:	d000      	beq.n	100016ec <CRCCalculator+0xff4>
100016ea:	e1a4      	b.n	10001a36 <CRCCalculator+0x133e>
100016ec:	2280      	movs	r2, #128	; 0x80
100016ee:	0152      	lsls	r2, r2, #5
100016f0:	4213      	tst	r3, r2
100016f2:	d000      	beq.n	100016f6 <CRCCalculator+0xffe>
100016f4:	e19c      	b.n	10001a30 <CRCCalculator+0x1338>
100016f6:	051a      	lsls	r2, r3, #20
100016f8:	d500      	bpl.n	100016fc <CRCCalculator+0x1004>
100016fa:	e190      	b.n	10001a1e <CRCCalculator+0x1326>
100016fc:	055a      	lsls	r2, r3, #21
100016fe:	d500      	bpl.n	10001702 <CRCCalculator+0x100a>
10001700:	e18a      	b.n	10001a18 <CRCCalculator+0x1320>
10001702:	059a      	lsls	r2, r3, #22
10001704:	d500      	bpl.n	10001708 <CRCCalculator+0x1010>
10001706:	e184      	b.n	10001a12 <CRCCalculator+0x131a>
10001708:	05da      	lsls	r2, r3, #23
1000170a:	d500      	bpl.n	1000170e <CRCCalculator+0x1016>
1000170c:	e17e      	b.n	10001a0c <CRCCalculator+0x1314>
1000170e:	061a      	lsls	r2, r3, #24
10001710:	d500      	bpl.n	10001714 <CRCCalculator+0x101c>
10001712:	e178      	b.n	10001a06 <CRCCalculator+0x130e>
10001714:	065a      	lsls	r2, r3, #25
10001716:	d500      	bpl.n	1000171a <CRCCalculator+0x1022>
10001718:	e172      	b.n	10001a00 <CRCCalculator+0x1308>
1000171a:	069a      	lsls	r2, r3, #26
1000171c:	d500      	bpl.n	10001720 <CRCCalculator+0x1028>
1000171e:	e16c      	b.n	100019fa <CRCCalculator+0x1302>
10001720:	06da      	lsls	r2, r3, #27
10001722:	d500      	bpl.n	10001726 <CRCCalculator+0x102e>
10001724:	e166      	b.n	100019f4 <CRCCalculator+0x12fc>
10001726:	071a      	lsls	r2, r3, #28
10001728:	d500      	bpl.n	1000172c <CRCCalculator+0x1034>
1000172a:	e130      	b.n	1000198e <CRCCalculator+0x1296>
1000172c:	075a      	lsls	r2, r3, #29
1000172e:	d500      	bpl.n	10001732 <CRCCalculator+0x103a>
10001730:	e12a      	b.n	10001988 <CRCCalculator+0x1290>
10001732:	2202      	movs	r2, #2
10001734:	421a      	tst	r2, r3
10001736:	d000      	beq.n	1000173a <CRCCalculator+0x1042>
10001738:	e174      	b.n	10001a24 <CRCCalculator+0x132c>
1000173a:	320c      	adds	r2, #12
1000173c:	310f      	adds	r1, #15
1000173e:	408b      	lsls	r3, r1
10001740:	3001      	adds	r0, #1
10001742:	b29d      	uxth	r5, r3
10001744:	46ac      	mov	ip, r5
10001746:	1a3f      	subs	r7, r7, r0
10001748:	2f09      	cmp	r7, #9
1000174a:	dc11      	bgt.n	10001770 <CRCCalculator+0x1078>
1000174c:	9800      	ldr	r0, [sp, #0]
1000174e:	2800      	cmp	r0, #0
10001750:	d110      	bne.n	10001774 <CRCCalculator+0x107c>
10001752:	4640      	mov	r0, r8
10001754:	7900      	ldrb	r0, [r0, #4]
10001756:	0224      	lsls	r4, r4, #8
10001758:	4320      	orrs	r0, r4
1000175a:	4644      	mov	r4, r8
1000175c:	7964      	ldrb	r4, [r4, #5]
1000175e:	0200      	lsls	r0, r0, #8
10001760:	4304      	orrs	r4, r0
10001762:	2001      	movs	r0, #1
10001764:	3710      	adds	r7, #16
10001766:	9000      	str	r0, [sp, #0]
10001768:	2f00      	cmp	r7, #0
1000176a:	dc01      	bgt.n	10001770 <CRCCalculator+0x1078>
1000176c:	f7ff fbcf 	bl	10000f0e <CRCCalculator+0x816>
10001770:	0010      	movs	r0, r2
10001772:	e790      	b.n	10001696 <CRCCalculator+0xf9e>
10001774:	2801      	cmp	r0, #1
10001776:	d008      	beq.n	1000178a <CRCCalculator+0x1092>
10001778:	2802      	cmp	r0, #2
1000177a:	d015      	beq.n	100017a8 <CRCCalculator+0x10b0>
1000177c:	2803      	cmp	r0, #3
1000177e:	d1f3      	bne.n	10001768 <CRCCalculator+0x1070>
10001780:	3001      	adds	r0, #1
10001782:	03e4      	lsls	r4, r4, #15
10001784:	370f      	adds	r7, #15
10001786:	9000      	str	r0, [sp, #0]
10001788:	e7ee      	b.n	10001768 <CRCCalculator+0x1070>
1000178a:	4640      	mov	r0, r8
1000178c:	7980      	ldrb	r0, [r0, #6]
1000178e:	0224      	lsls	r4, r4, #8
10001790:	4320      	orrs	r0, r4
10001792:	4644      	mov	r4, r8
10001794:	79e4      	ldrb	r4, [r4, #7]
10001796:	0200      	lsls	r0, r0, #8
10001798:	4304      	orrs	r4, r0
1000179a:	2002      	movs	r0, #2
1000179c:	3710      	adds	r7, #16
1000179e:	9000      	str	r0, [sp, #0]
100017a0:	e7e2      	b.n	10001768 <CRCCalculator+0x1070>
100017a2:	46c0      	nop			; (mov r8, r8)
100017a4:	20000244 	.word	0x20000244
100017a8:	4640      	mov	r0, r8
100017aa:	7a00      	ldrb	r0, [r0, #8]
100017ac:	0224      	lsls	r4, r4, #8
100017ae:	4320      	orrs	r0, r4
100017b0:	4644      	mov	r4, r8
100017b2:	7a64      	ldrb	r4, [r4, #9]
100017b4:	0200      	lsls	r0, r0, #8
100017b6:	4304      	orrs	r4, r0
100017b8:	2003      	movs	r0, #3
100017ba:	3710      	adds	r7, #16
100017bc:	9000      	str	r0, [sp, #0]
100017be:	e7d3      	b.n	10001768 <CRCCalculator+0x1070>
100017c0:	210a      	movs	r1, #10
100017c2:	220b      	movs	r2, #11
100017c4:	f7ff fa9a 	bl	10000cfc <CRCCalculator+0x604>
100017c8:	2209      	movs	r2, #9
100017ca:	210a      	movs	r1, #10
100017cc:	e540      	b.n	10001250 <CRCCalculator+0xb58>
100017ce:	2708      	movs	r7, #8
100017d0:	f7fe ffd3 	bl	1000077a <CRCCalculator+0x82>
100017d4:	2707      	movs	r7, #7
100017d6:	f7fe ffd0 	bl	1000077a <CRCCalculator+0x82>
100017da:	2706      	movs	r7, #6
100017dc:	f7fe ffcd 	bl	1000077a <CRCCalculator+0x82>
100017e0:	2705      	movs	r7, #5
100017e2:	f7fe ffca 	bl	1000077a <CRCCalculator+0x82>
100017e6:	2704      	movs	r7, #4
100017e8:	f7fe ffc7 	bl	1000077a <CRCCalculator+0x82>
100017ec:	270a      	movs	r7, #10
100017ee:	f7fe ffc4 	bl	1000077a <CRCCalculator+0x82>
100017f2:	2709      	movs	r7, #9
100017f4:	f7fe ffc1 	bl	1000077a <CRCCalculator+0x82>
100017f8:	210c      	movs	r1, #12
100017fa:	220d      	movs	r2, #13
100017fc:	f7ff fa7e 	bl	10000cfc <CRCCalculator+0x604>
10001800:	210b      	movs	r1, #11
10001802:	220c      	movs	r2, #12
10001804:	f7ff fa7a 	bl	10000cfc <CRCCalculator+0x604>
10001808:	210d      	movs	r1, #13
1000180a:	220e      	movs	r2, #14
1000180c:	f7ff fa76 	bl	10000cfc <CRCCalculator+0x604>
10001810:	0014      	movs	r4, r2
10001812:	2300      	movs	r3, #0
10001814:	4642      	mov	r2, r8
10001816:	2501      	movs	r5, #1
10001818:	4680      	mov	r8, r0
1000181a:	2000      	movs	r0, #0
1000181c:	0029      	movs	r1, r5
1000181e:	4099      	lsls	r1, r3
10001820:	3301      	adds	r3, #1
10001822:	4308      	orrs	r0, r1
10001824:	42a3      	cmp	r3, r4
10001826:	d9f9      	bls.n	1000181c <CRCCalculator+0x1124>
10001828:	e46b      	b.n	10001102 <CRCCalculator+0xa0a>
1000182a:	2100      	movs	r1, #0
1000182c:	2201      	movs	r2, #1
1000182e:	f7ff fb2f 	bl	10000e90 <CRCCalculator+0x798>
10001832:	2101      	movs	r1, #1
10001834:	2200      	movs	r2, #0
10001836:	4249      	negs	r1, r1
10001838:	f7ff fb2a 	bl	10000e90 <CRCCalculator+0x798>
1000183c:	2102      	movs	r1, #2
1000183e:	2203      	movs	r2, #3
10001840:	f7ff fb26 	bl	10000e90 <CRCCalculator+0x798>
10001844:	2101      	movs	r1, #1
10001846:	2202      	movs	r2, #2
10001848:	f7ff fb22 	bl	10000e90 <CRCCalculator+0x798>
1000184c:	210d      	movs	r1, #13
1000184e:	220e      	movs	r2, #14
10001850:	f7ff fb1e 	bl	10000e90 <CRCCalculator+0x798>
10001854:	210c      	movs	r1, #12
10001856:	220d      	movs	r2, #13
10001858:	f7ff fb1a 	bl	10000e90 <CRCCalculator+0x798>
1000185c:	210b      	movs	r1, #11
1000185e:	220c      	movs	r2, #12
10001860:	f7ff fb16 	bl	10000e90 <CRCCalculator+0x798>
10001864:	210a      	movs	r1, #10
10001866:	220b      	movs	r2, #11
10001868:	f7ff fb12 	bl	10000e90 <CRCCalculator+0x798>
1000186c:	2109      	movs	r1, #9
1000186e:	220a      	movs	r2, #10
10001870:	f7ff fb0e 	bl	10000e90 <CRCCalculator+0x798>
10001874:	2104      	movs	r1, #4
10001876:	2205      	movs	r2, #5
10001878:	f7ff fb0a 	bl	10000e90 <CRCCalculator+0x798>
1000187c:	2103      	movs	r1, #3
1000187e:	2204      	movs	r2, #4
10001880:	f7ff fb06 	bl	10000e90 <CRCCalculator+0x798>
10001884:	2108      	movs	r1, #8
10001886:	2209      	movs	r2, #9
10001888:	f7ff fb02 	bl	10000e90 <CRCCalculator+0x798>
1000188c:	2107      	movs	r1, #7
1000188e:	2208      	movs	r2, #8
10001890:	f7ff fafe 	bl	10000e90 <CRCCalculator+0x798>
10001894:	2106      	movs	r1, #6
10001896:	2207      	movs	r2, #7
10001898:	f7ff fafa 	bl	10000e90 <CRCCalculator+0x798>
1000189c:	2105      	movs	r1, #5
1000189e:	2206      	movs	r2, #6
100018a0:	f7ff faf6 	bl	10000e90 <CRCCalculator+0x798>
100018a4:	220d      	movs	r2, #13
100018a6:	210e      	movs	r1, #14
100018a8:	e4d2      	b.n	10001250 <CRCCalculator+0xb58>
100018aa:	220a      	movs	r2, #10
100018ac:	210b      	movs	r1, #11
100018ae:	e4cf      	b.n	10001250 <CRCCalculator+0xb58>
100018b0:	220c      	movs	r2, #12
100018b2:	210d      	movs	r1, #13
100018b4:	e4cc      	b.n	10001250 <CRCCalculator+0xb58>
100018b6:	220b      	movs	r2, #11
100018b8:	210c      	movs	r1, #12
100018ba:	e4c9      	b.n	10001250 <CRCCalculator+0xb58>
100018bc:	2703      	movs	r7, #3
100018be:	f7fe ff5c 	bl	1000077a <CRCCalculator+0x82>
100018c2:	2702      	movs	r7, #2
100018c4:	f7fe ff59 	bl	1000077a <CRCCalculator+0x82>
100018c8:	4680      	mov	r8, r0
100018ca:	0015      	movs	r5, r2
100018cc:	2000      	movs	r0, #0
100018ce:	4662      	mov	r2, ip
100018d0:	2300      	movs	r3, #0
100018d2:	2101      	movs	r1, #1
100018d4:	000e      	movs	r6, r1
100018d6:	409e      	lsls	r6, r3
100018d8:	3301      	adds	r3, #1
100018da:	4330      	orrs	r0, r6
100018dc:	42ab      	cmp	r3, r5
100018de:	d9f9      	bls.n	100018d4 <CRCCalculator+0x11dc>
100018e0:	4020      	ands	r0, r4
100018e2:	4310      	orrs	r0, r2
100018e4:	4643      	mov	r3, r8
100018e6:	464a      	mov	r2, r9
100018e8:	b280      	uxth	r0, r0
100018ea:	1a9b      	subs	r3, r3, r2
100018ec:	4118      	asrs	r0, r3
100018ee:	b280      	uxth	r0, r0
100018f0:	f7ff f896 	bl	10000a20 <CRCCalculator+0x328>
100018f4:	2201      	movs	r2, #1
100018f6:	2100      	movs	r1, #0
100018f8:	4252      	negs	r2, r2
100018fa:	e720      	b.n	1000173e <CRCCalculator+0x1046>
100018fc:	4680      	mov	r8, r0
100018fe:	0015      	movs	r5, r2
10001900:	2000      	movs	r0, #0
10001902:	4662      	mov	r2, ip
10001904:	2300      	movs	r3, #0
10001906:	2101      	movs	r1, #1
10001908:	000e      	movs	r6, r1
1000190a:	409e      	lsls	r6, r3
1000190c:	3301      	adds	r3, #1
1000190e:	4330      	orrs	r0, r6
10001910:	42ab      	cmp	r3, r5
10001912:	d9f9      	bls.n	10001908 <CRCCalculator+0x1210>
10001914:	e7e4      	b.n	100018e0 <CRCCalculator+0x11e8>
10001916:	4680      	mov	r8, r0
10001918:	0014      	movs	r4, r2
1000191a:	2000      	movs	r0, #0
1000191c:	4662      	mov	r2, ip
1000191e:	2300      	movs	r3, #0
10001920:	2501      	movs	r5, #1
10001922:	0029      	movs	r1, r5
10001924:	4099      	lsls	r1, r3
10001926:	3301      	adds	r3, #1
10001928:	4308      	orrs	r0, r1
1000192a:	42a3      	cmp	r3, r4
1000192c:	d9f9      	bls.n	10001922 <CRCCalculator+0x122a>
1000192e:	4030      	ands	r0, r6
10001930:	e7d7      	b.n	100018e2 <CRCCalculator+0x11ea>
10001932:	2102      	movs	r1, #2
10001934:	2203      	movs	r2, #3
10001936:	e5ff      	b.n	10001538 <CRCCalculator+0xe40>
10001938:	2101      	movs	r1, #1
1000193a:	2202      	movs	r2, #2
1000193c:	e5fc      	b.n	10001538 <CRCCalculator+0xe40>
1000193e:	2100      	movs	r1, #0
10001940:	2201      	movs	r2, #1
10001942:	e5f9      	b.n	10001538 <CRCCalculator+0xe40>
10001944:	2101      	movs	r1, #1
10001946:	2200      	movs	r2, #0
10001948:	4249      	negs	r1, r1
1000194a:	e5f5      	b.n	10001538 <CRCCalculator+0xe40>
1000194c:	2106      	movs	r1, #6
1000194e:	2207      	movs	r2, #7
10001950:	e5f2      	b.n	10001538 <CRCCalculator+0xe40>
10001952:	2105      	movs	r1, #5
10001954:	2206      	movs	r2, #6
10001956:	e5ef      	b.n	10001538 <CRCCalculator+0xe40>
10001958:	2104      	movs	r1, #4
1000195a:	2205      	movs	r2, #5
1000195c:	e5ec      	b.n	10001538 <CRCCalculator+0xe40>
1000195e:	2103      	movs	r1, #3
10001960:	2204      	movs	r2, #4
10001962:	e5e9      	b.n	10001538 <CRCCalculator+0xe40>
10001964:	210a      	movs	r1, #10
10001966:	220b      	movs	r2, #11
10001968:	e5e6      	b.n	10001538 <CRCCalculator+0xe40>
1000196a:	2109      	movs	r1, #9
1000196c:	220a      	movs	r2, #10
1000196e:	e5e3      	b.n	10001538 <CRCCalculator+0xe40>
10001970:	2108      	movs	r1, #8
10001972:	2209      	movs	r2, #9
10001974:	e5e0      	b.n	10001538 <CRCCalculator+0xe40>
10001976:	2107      	movs	r1, #7
10001978:	2208      	movs	r2, #8
1000197a:	e5dd      	b.n	10001538 <CRCCalculator+0xe40>
1000197c:	210c      	movs	r1, #12
1000197e:	220d      	movs	r2, #13
10001980:	e5da      	b.n	10001538 <CRCCalculator+0xe40>
10001982:	210b      	movs	r1, #11
10001984:	220c      	movs	r2, #12
10001986:	e5d7      	b.n	10001538 <CRCCalculator+0xe40>
10001988:	220c      	movs	r2, #12
1000198a:	210d      	movs	r1, #13
1000198c:	e6d7      	b.n	1000173e <CRCCalculator+0x1046>
1000198e:	220b      	movs	r2, #11
10001990:	210c      	movs	r1, #12
10001992:	e6d4      	b.n	1000173e <CRCCalculator+0x1046>
10001994:	2004      	movs	r0, #4
10001996:	f7ff fb0b 	bl	10000fb0 <CRCCalculator+0x8b8>
1000199a:	2005      	movs	r0, #5
1000199c:	f7ff fb08 	bl	10000fb0 <CRCCalculator+0x8b8>
100019a0:	2006      	movs	r0, #6
100019a2:	f7ff fb05 	bl	10000fb0 <CRCCalculator+0x8b8>
100019a6:	2007      	movs	r0, #7
100019a8:	f7ff fb02 	bl	10000fb0 <CRCCalculator+0x8b8>
100019ac:	2008      	movs	r0, #8
100019ae:	f7ff faff 	bl	10000fb0 <CRCCalculator+0x8b8>
100019b2:	2009      	movs	r0, #9
100019b4:	f7ff fafc 	bl	10000fb0 <CRCCalculator+0x8b8>
100019b8:	200a      	movs	r0, #10
100019ba:	f7ff faf9 	bl	10000fb0 <CRCCalculator+0x8b8>
100019be:	200b      	movs	r0, #11
100019c0:	f7ff faf6 	bl	10000fb0 <CRCCalculator+0x8b8>
100019c4:	2702      	movs	r7, #2
100019c6:	f7ff f887 	bl	10000ad8 <CRCCalculator+0x3e0>
100019ca:	2703      	movs	r7, #3
100019cc:	f7ff f884 	bl	10000ad8 <CRCCalculator+0x3e0>
100019d0:	2704      	movs	r7, #4
100019d2:	f7ff f881 	bl	10000ad8 <CRCCalculator+0x3e0>
100019d6:	2705      	movs	r7, #5
100019d8:	f7ff f87e 	bl	10000ad8 <CRCCalculator+0x3e0>
100019dc:	2706      	movs	r7, #6
100019de:	f7ff f87b 	bl	10000ad8 <CRCCalculator+0x3e0>
100019e2:	2707      	movs	r7, #7
100019e4:	f7ff f878 	bl	10000ad8 <CRCCalculator+0x3e0>
100019e8:	2708      	movs	r7, #8
100019ea:	f7ff f875 	bl	10000ad8 <CRCCalculator+0x3e0>
100019ee:	2709      	movs	r7, #9
100019f0:	f7ff f872 	bl	10000ad8 <CRCCalculator+0x3e0>
100019f4:	220a      	movs	r2, #10
100019f6:	210b      	movs	r1, #11
100019f8:	e6a1      	b.n	1000173e <CRCCalculator+0x1046>
100019fa:	2209      	movs	r2, #9
100019fc:	210a      	movs	r1, #10
100019fe:	e69e      	b.n	1000173e <CRCCalculator+0x1046>
10001a00:	2208      	movs	r2, #8
10001a02:	2109      	movs	r1, #9
10001a04:	e69b      	b.n	1000173e <CRCCalculator+0x1046>
10001a06:	2207      	movs	r2, #7
10001a08:	2108      	movs	r1, #8
10001a0a:	e698      	b.n	1000173e <CRCCalculator+0x1046>
10001a0c:	2206      	movs	r2, #6
10001a0e:	2107      	movs	r1, #7
10001a10:	e695      	b.n	1000173e <CRCCalculator+0x1046>
10001a12:	2205      	movs	r2, #5
10001a14:	2106      	movs	r1, #6
10001a16:	e692      	b.n	1000173e <CRCCalculator+0x1046>
10001a18:	2204      	movs	r2, #4
10001a1a:	2105      	movs	r1, #5
10001a1c:	e68f      	b.n	1000173e <CRCCalculator+0x1046>
10001a1e:	2203      	movs	r2, #3
10001a20:	2104      	movs	r1, #4
10001a22:	e68c      	b.n	1000173e <CRCCalculator+0x1046>
10001a24:	220d      	movs	r2, #13
10001a26:	210e      	movs	r1, #14
10001a28:	e689      	b.n	1000173e <CRCCalculator+0x1046>
10001a2a:	2200      	movs	r2, #0
10001a2c:	2101      	movs	r1, #1
10001a2e:	e686      	b.n	1000173e <CRCCalculator+0x1046>
10001a30:	2202      	movs	r2, #2
10001a32:	2103      	movs	r1, #3
10001a34:	e683      	b.n	1000173e <CRCCalculator+0x1046>
10001a36:	2201      	movs	r2, #1
10001a38:	2102      	movs	r1, #2
10001a3a:	e680      	b.n	1000173e <CRCCalculator+0x1046>
10001a3c:	2201      	movs	r2, #1
10001a3e:	2100      	movs	r1, #0
10001a40:	4252      	negs	r2, r2
10001a42:	f7fe ffcc 	bl	100009de <CRCCalculator+0x2e6>
10001a46:	210d      	movs	r1, #13
10001a48:	220e      	movs	r2, #14
10001a4a:	e575      	b.n	10001538 <CRCCalculator+0xe40>
10001a4c:	220b      	movs	r2, #11
10001a4e:	210c      	movs	r1, #12
10001a50:	f7fe ffc5 	bl	100009de <CRCCalculator+0x2e6>
10001a54:	220a      	movs	r2, #10
10001a56:	210b      	movs	r1, #11
10001a58:	f7fe ffc1 	bl	100009de <CRCCalculator+0x2e6>
10001a5c:	2209      	movs	r2, #9
10001a5e:	210a      	movs	r1, #10
10001a60:	f7fe ffbd 	bl	100009de <CRCCalculator+0x2e6>
10001a64:	2208      	movs	r2, #8
10001a66:	2109      	movs	r1, #9
10001a68:	f7fe ffb9 	bl	100009de <CRCCalculator+0x2e6>
10001a6c:	220d      	movs	r2, #13
10001a6e:	210e      	movs	r1, #14
10001a70:	f7fe ffb5 	bl	100009de <CRCCalculator+0x2e6>
10001a74:	220c      	movs	r2, #12
10001a76:	210d      	movs	r1, #13
10001a78:	f7fe ffb1 	bl	100009de <CRCCalculator+0x2e6>
10001a7c:	270a      	movs	r7, #10
10001a7e:	f7ff f82b 	bl	10000ad8 <CRCCalculator+0x3e0>
10001a82:	270b      	movs	r7, #11
10001a84:	f7ff f828 	bl	10000ad8 <CRCCalculator+0x3e0>
10001a88:	2207      	movs	r2, #7
10001a8a:	2108      	movs	r1, #8
10001a8c:	f7fe ffa7 	bl	100009de <CRCCalculator+0x2e6>
10001a90:	2206      	movs	r2, #6
10001a92:	2107      	movs	r1, #7
10001a94:	f7fe ffa3 	bl	100009de <CRCCalculator+0x2e6>
10001a98:	2205      	movs	r2, #5
10001a9a:	2106      	movs	r1, #6
10001a9c:	f7fe ff9f 	bl	100009de <CRCCalculator+0x2e6>
10001aa0:	2204      	movs	r2, #4
10001aa2:	2105      	movs	r1, #5
10001aa4:	f7fe ff9b 	bl	100009de <CRCCalculator+0x2e6>
10001aa8:	2203      	movs	r2, #3
10001aaa:	2104      	movs	r1, #4
10001aac:	f7fe ff97 	bl	100009de <CRCCalculator+0x2e6>
10001ab0:	2202      	movs	r2, #2
10001ab2:	2103      	movs	r1, #3
10001ab4:	f7fe ff93 	bl	100009de <CRCCalculator+0x2e6>
10001ab8:	2201      	movs	r2, #1
10001aba:	2102      	movs	r1, #2
10001abc:	f7fe ff8f 	bl	100009de <CRCCalculator+0x2e6>
10001ac0:	2200      	movs	r2, #0
10001ac2:	2101      	movs	r1, #1
10001ac4:	f7fe ff8b 	bl	100009de <CRCCalculator+0x2e6>
10001ac8:	260b      	movs	r6, #11
10001aca:	f7ff fb61 	bl	10001190 <CRCCalculator+0xa98>
10001ace:	260b      	movs	r6, #11
10001ad0:	f7fe ff14 	bl	100008fc <CRCCalculator+0x204>
10001ad4:	2607      	movs	r6, #7
10001ad6:	f7fe ff11 	bl	100008fc <CRCCalculator+0x204>
10001ada:	2608      	movs	r6, #8
10001adc:	f7fe ff0e 	bl	100008fc <CRCCalculator+0x204>
10001ae0:	2609      	movs	r6, #9
10001ae2:	f7fe ff0b 	bl	100008fc <CRCCalculator+0x204>
10001ae6:	260a      	movs	r6, #10
10001ae8:	f7fe ff08 	bl	100008fc <CRCCalculator+0x204>
10001aec:	2607      	movs	r6, #7
10001aee:	f7ff fb4f 	bl	10001190 <CRCCalculator+0xa98>
10001af2:	2608      	movs	r6, #8
10001af4:	f7ff fb4c 	bl	10001190 <CRCCalculator+0xa98>
10001af8:	2609      	movs	r6, #9
10001afa:	f7ff fb49 	bl	10001190 <CRCCalculator+0xa98>
10001afe:	260a      	movs	r6, #10
10001b00:	f7ff fb46 	bl	10001190 <CRCCalculator+0xa98>
10001b04:	2606      	movs	r6, #6
10001b06:	f7ff f953 	bl	10000db0 <CRCCalculator+0x6b8>
10001b0a:	2607      	movs	r6, #7
10001b0c:	f7ff f950 	bl	10000db0 <CRCCalculator+0x6b8>
10001b10:	2608      	movs	r6, #8
10001b12:	f7ff f94d 	bl	10000db0 <CRCCalculator+0x6b8>
10001b16:	2609      	movs	r6, #9
10001b18:	f7ff f94a 	bl	10000db0 <CRCCalculator+0x6b8>
10001b1c:	2002      	movs	r0, #2
10001b1e:	f7ff fa47 	bl	10000fb0 <CRCCalculator+0x8b8>
10001b22:	2003      	movs	r0, #3
10001b24:	f7ff fa44 	bl	10000fb0 <CRCCalculator+0x8b8>
10001b28:	260a      	movs	r6, #10
10001b2a:	f7ff f941 	bl	10000db0 <CRCCalculator+0x6b8>
10001b2e:	260b      	movs	r6, #11
10001b30:	f7ff f93e 	bl	10000db0 <CRCCalculator+0x6b8>
10001b34:	2602      	movs	r6, #2
10001b36:	f7ff f93b 	bl	10000db0 <CRCCalculator+0x6b8>
10001b3a:	2603      	movs	r6, #3
10001b3c:	f7ff f938 	bl	10000db0 <CRCCalculator+0x6b8>
10001b40:	2604      	movs	r6, #4
10001b42:	f7ff f935 	bl	10000db0 <CRCCalculator+0x6b8>
10001b46:	2605      	movs	r6, #5
10001b48:	f7ff f932 	bl	10000db0 <CRCCalculator+0x6b8>
10001b4c:	2702      	movs	r7, #2
10001b4e:	e492      	b.n	10001476 <CRCCalculator+0xd7e>
10001b50:	2703      	movs	r7, #3
10001b52:	e490      	b.n	10001476 <CRCCalculator+0xd7e>
10001b54:	2702      	movs	r7, #2
10001b56:	e591      	b.n	1000167c <CRCCalculator+0xf84>
10001b58:	2703      	movs	r7, #3
10001b5a:	e58f      	b.n	1000167c <CRCCalculator+0xf84>
10001b5c:	2603      	movs	r6, #3
10001b5e:	f7fe fecd 	bl	100008fc <CRCCalculator+0x204>
10001b62:	2604      	movs	r6, #4
10001b64:	f7fe feca 	bl	100008fc <CRCCalculator+0x204>
10001b68:	2605      	movs	r6, #5
10001b6a:	f7fe fec7 	bl	100008fc <CRCCalculator+0x204>
10001b6e:	2606      	movs	r6, #6
10001b70:	f7fe fec4 	bl	100008fc <CRCCalculator+0x204>
10001b74:	2602      	movs	r6, #2
10001b76:	f7ff fb0b 	bl	10001190 <CRCCalculator+0xa98>
10001b7a:	2603      	movs	r6, #3
10001b7c:	f7ff fb08 	bl	10001190 <CRCCalculator+0xa98>
10001b80:	2604      	movs	r6, #4
10001b82:	f7ff fb05 	bl	10001190 <CRCCalculator+0xa98>
10001b86:	2605      	movs	r6, #5
10001b88:	f7ff fb02 	bl	10001190 <CRCCalculator+0xa98>
10001b8c:	2703      	movs	r7, #3
10001b8e:	f7ff f854 	bl	10000c3a <CRCCalculator+0x542>
10001b92:	2704      	movs	r7, #4
10001b94:	f7ff f851 	bl	10000c3a <CRCCalculator+0x542>
10001b98:	2705      	movs	r7, #5
10001b9a:	f7ff f84e 	bl	10000c3a <CRCCalculator+0x542>
10001b9e:	2706      	movs	r7, #6
10001ba0:	f7ff f84b 	bl	10000c3a <CRCCalculator+0x542>
10001ba4:	2704      	movs	r7, #4
10001ba6:	e466      	b.n	10001476 <CRCCalculator+0xd7e>
10001ba8:	2705      	movs	r7, #5
10001baa:	e464      	b.n	10001476 <CRCCalculator+0xd7e>
10001bac:	2706      	movs	r7, #6
10001bae:	e462      	b.n	10001476 <CRCCalculator+0xd7e>
10001bb0:	2707      	movs	r7, #7
10001bb2:	e460      	b.n	10001476 <CRCCalculator+0xd7e>
10001bb4:	2708      	movs	r7, #8
10001bb6:	e45e      	b.n	10001476 <CRCCalculator+0xd7e>
10001bb8:	2709      	movs	r7, #9
10001bba:	e45c      	b.n	10001476 <CRCCalculator+0xd7e>
10001bbc:	270a      	movs	r7, #10
10001bbe:	e45a      	b.n	10001476 <CRCCalculator+0xd7e>
10001bc0:	270b      	movs	r7, #11
10001bc2:	e458      	b.n	10001476 <CRCCalculator+0xd7e>
10001bc4:	2704      	movs	r7, #4
10001bc6:	e559      	b.n	1000167c <CRCCalculator+0xf84>
10001bc8:	2705      	movs	r7, #5
10001bca:	e557      	b.n	1000167c <CRCCalculator+0xf84>
10001bcc:	2706      	movs	r7, #6
10001bce:	e555      	b.n	1000167c <CRCCalculator+0xf84>
10001bd0:	2707      	movs	r7, #7
10001bd2:	e553      	b.n	1000167c <CRCCalculator+0xf84>
10001bd4:	2708      	movs	r7, #8
10001bd6:	e551      	b.n	1000167c <CRCCalculator+0xf84>
10001bd8:	2709      	movs	r7, #9
10001bda:	e54f      	b.n	1000167c <CRCCalculator+0xf84>
10001bdc:	270a      	movs	r7, #10
10001bde:	e54d      	b.n	1000167c <CRCCalculator+0xf84>
10001be0:	270b      	movs	r7, #11
10001be2:	e54b      	b.n	1000167c <CRCCalculator+0xf84>
10001be4:	2702      	movs	r7, #2
10001be6:	f7ff f828 	bl	10000c3a <CRCCalculator+0x542>
10001bea:	270b      	movs	r7, #11
10001bec:	f7ff f825 	bl	10000c3a <CRCCalculator+0x542>
10001bf0:	2606      	movs	r6, #6
10001bf2:	f7ff facd 	bl	10001190 <CRCCalculator+0xa98>
10001bf6:	2602      	movs	r6, #2
10001bf8:	f7fe fe80 	bl	100008fc <CRCCalculator+0x204>
10001bfc:	2707      	movs	r7, #7
10001bfe:	f7ff f81c 	bl	10000c3a <CRCCalculator+0x542>
10001c02:	2708      	movs	r7, #8
10001c04:	f7ff f819 	bl	10000c3a <CRCCalculator+0x542>
10001c08:	2709      	movs	r7, #9
10001c0a:	f7ff f816 	bl	10000c3a <CRCCalculator+0x542>
10001c0e:	270a      	movs	r7, #10
10001c10:	f7ff f813 	bl	10000c3a <CRCCalculator+0x542>

10001c14 <CAN_Send_Message>:
10001c14:	b5f0      	push	{r4, r5, r6, r7, lr}
10001c16:	4657      	mov	r7, sl
10001c18:	464e      	mov	r6, r9
10001c1a:	4645      	mov	r5, r8
10001c1c:	46de      	mov	lr, fp
10001c1e:	8803      	ldrh	r3, [r0, #0]
10001c20:	b5e0      	push	{r5, r6, r7, lr}
10001c22:	2501      	movs	r5, #1
10001c24:	4698      	mov	r8, r3
10001c26:	4689      	mov	r9, r1
10001c28:	2100      	movs	r1, #0
10001c2a:	b089      	sub	sp, #36	; 0x24
10001c2c:	46ac      	mov	ip, r5
10001c2e:	351e      	adds	r5, #30
10001c30:	9006      	str	r0, [sp, #24]
10001c32:	46aa      	mov	sl, r5
10001c34:	2000      	movs	r0, #0
10001c36:	4645      	mov	r5, r8
10001c38:	4688      	mov	r8, r1
10001c3a:	4649      	mov	r1, r9
10001c3c:	9207      	str	r2, [sp, #28]
10001c3e:	230a      	movs	r3, #10
10001c40:	2600      	movs	r6, #0
10001c42:	2700      	movs	r7, #0
10001c44:	2200      	movs	r2, #0
10001c46:	2400      	movs	r4, #0
10001c48:	9005      	str	r0, [sp, #20]
10001c4a:	9004      	str	r0, [sp, #16]
10001c4c:	9002      	str	r0, [sp, #8]
10001c4e:	4683      	mov	fp, r0
10001c50:	9101      	str	r1, [sp, #4]
10001c52:	3001      	adds	r0, #1
10001c54:	9500      	str	r5, [sp, #0]
10001c56:	9d00      	ldr	r5, [sp, #0]
10001c58:	4661      	mov	r1, ip
10001c5a:	411d      	asrs	r5, r3
10001c5c:	4229      	tst	r1, r5
10001c5e:	d000      	beq.n	10001c62 <CAN_Send_Message+0x4e>
10001c60:	e112      	b.n	10001e88 <CAN_Send_Message+0x274>
10001c62:	3001      	adds	r0, #1
10001c64:	2a1f      	cmp	r2, #31
10001c66:	dd00      	ble.n	10001c6a <CAN_Send_Message+0x56>
10001c68:	e124      	b.n	10001eb4 <CAN_Send_Message+0x2a0>
10001c6a:	4645      	mov	r5, r8
10001c6c:	433d      	orrs	r5, r7
10001c6e:	002c      	movs	r4, r5
10001c70:	4334      	orrs	r4, r6
10001c72:	d100      	bne.n	10001c76 <CAN_Send_Message+0x62>
10001c74:	e149      	b.n	10001f0a <CAN_Send_Message+0x2f6>
10001c76:	2805      	cmp	r0, #5
10001c78:	d100      	bne.n	10001c7c <CAN_Send_Message+0x68>
10001c7a:	e1cf      	b.n	1000201c <CAN_Send_Message+0x408>
10001c7c:	2400      	movs	r4, #0
10001c7e:	3b01      	subs	r3, #1
10001c80:	d2e9      	bcs.n	10001c56 <CAN_Send_Message+0x42>
10001c82:	9b01      	ldr	r3, [sp, #4]
10001c84:	4641      	mov	r1, r8
10001c86:	4699      	mov	r9, r3
10001c88:	1c43      	adds	r3, r0, #1
10001c8a:	2a1f      	cmp	r2, #31
10001c8c:	dd01      	ble.n	10001c92 <CAN_Send_Message+0x7e>
10001c8e:	f000 fc9c 	bl	100025ca <CAN_Send_Message+0x9b6>
10001c92:	4644      	mov	r4, r8
10001c94:	4334      	orrs	r4, r6
10001c96:	433c      	orrs	r4, r7
10001c98:	d000      	beq.n	10001c9c <CAN_Send_Message+0x88>
10001c9a:	e1d4      	b.n	10002046 <CAN_Send_Message+0x432>
10001c9c:	3201      	adds	r2, #1
10001c9e:	2b05      	cmp	r3, #5
10001ca0:	d101      	bne.n	10001ca6 <CAN_Send_Message+0x92>
10001ca2:	f000 fe8c 	bl	100029be <CAN_Send_Message+0xdaa>
10001ca6:	2600      	movs	r6, #0
10001ca8:	3002      	adds	r0, #2
10001caa:	2a1f      	cmp	r2, #31
10001cac:	dd01      	ble.n	10001cb2 <CAN_Send_Message+0x9e>
10001cae:	f000 fc97 	bl	100025e0 <CAN_Send_Message+0x9cc>
10001cb2:	003b      	movs	r3, r7
10001cb4:	430b      	orrs	r3, r1
10001cb6:	001c      	movs	r4, r3
10001cb8:	4334      	orrs	r4, r6
10001cba:	d001      	beq.n	10001cc0 <CAN_Send_Message+0xac>
10001cbc:	f000 fd66 	bl	1000278c <CAN_Send_Message+0xb78>
10001cc0:	3201      	adds	r2, #1
10001cc2:	2600      	movs	r6, #0
10001cc4:	2805      	cmp	r0, #5
10001cc6:	d101      	bne.n	10001ccc <CAN_Send_Message+0xb8>
10001cc8:	f000 fe9f 	bl	10002a0a <CAN_Send_Message+0xdf6>
10001ccc:	3001      	adds	r0, #1
10001cce:	2a1f      	cmp	r2, #31
10001cd0:	dd01      	ble.n	10001cd6 <CAN_Send_Message+0xc2>
10001cd2:	f000 fc90 	bl	100025f6 <CAN_Send_Message+0x9e2>
10001cd6:	003b      	movs	r3, r7
10001cd8:	430b      	orrs	r3, r1
10001cda:	001c      	movs	r4, r3
10001cdc:	4334      	orrs	r4, r6
10001cde:	d001      	beq.n	10001ce4 <CAN_Send_Message+0xd0>
10001ce0:	f000 fd41 	bl	10002766 <CAN_Send_Message+0xb52>
10001ce4:	3201      	adds	r2, #1
10001ce6:	2805      	cmp	r0, #5
10001ce8:	d101      	bne.n	10001cee <CAN_Send_Message+0xda>
10001cea:	f000 fe92 	bl	10002a12 <CAN_Send_Message+0xdfe>
10001cee:	2600      	movs	r6, #0
10001cf0:	9b06      	ldr	r3, [sp, #24]
10001cf2:	2400      	movs	r4, #0
10001cf4:	789d      	ldrb	r5, [r3, #2]
10001cf6:	2303      	movs	r3, #3
10001cf8:	469c      	mov	ip, r3
10001cfa:	3b02      	subs	r3, #2
10001cfc:	4698      	mov	r8, r3
10001cfe:	331e      	adds	r3, #30
10001d00:	9300      	str	r3, [sp, #0]
10001d02:	468a      	mov	sl, r1
10001d04:	4663      	mov	r3, ip
10001d06:	46ac      	mov	ip, r5
10001d08:	4661      	mov	r1, ip
10001d0a:	4645      	mov	r5, r8
10001d0c:	4119      	asrs	r1, r3
10001d0e:	420d      	tst	r5, r1
10001d10:	d000      	beq.n	10001d14 <CAN_Send_Message+0x100>
10001d12:	e345      	b.n	100023a0 <CAN_Send_Message+0x78c>
10001d14:	3001      	adds	r0, #1
10001d16:	2a1f      	cmp	r2, #31
10001d18:	dd00      	ble.n	10001d1c <CAN_Send_Message+0x108>
10001d1a:	e3ce      	b.n	100024ba <CAN_Send_Message+0x8a6>
10001d1c:	4654      	mov	r4, sl
10001d1e:	0039      	movs	r1, r7
10001d20:	4321      	orrs	r1, r4
10001d22:	000c      	movs	r4, r1
10001d24:	4334      	orrs	r4, r6
10001d26:	d101      	bne.n	10001d2c <CAN_Send_Message+0x118>
10001d28:	f000 fc24 	bl	10002574 <CAN_Send_Message+0x960>
10001d2c:	2805      	cmp	r0, #5
10001d2e:	d101      	bne.n	10001d34 <CAN_Send_Message+0x120>
10001d30:	f000 fdd6 	bl	100028e0 <CAN_Send_Message+0xccc>
10001d34:	2400      	movs	r4, #0
10001d36:	3b01      	subs	r3, #1
10001d38:	d2e6      	bcs.n	10001d08 <CAN_Send_Message+0xf4>
10001d3a:	4665      	mov	r5, ip
10001d3c:	4651      	mov	r1, sl
10001d3e:	2d00      	cmp	r5, #0
10001d40:	d031      	beq.n	10001da6 <CAN_Send_Message+0x192>
10001d42:	9b06      	ldr	r3, [sp, #24]
10001d44:	3503      	adds	r5, #3
10001d46:	3303      	adds	r3, #3
10001d48:	469a      	mov	sl, r3
10001d4a:	9b06      	ldr	r3, [sp, #24]
10001d4c:	469c      	mov	ip, r3
10001d4e:	2301      	movs	r3, #1
10001d50:	4465      	add	r5, ip
10001d52:	9503      	str	r5, [sp, #12]
10001d54:	469c      	mov	ip, r3
10001d56:	000d      	movs	r5, r1
10001d58:	4653      	mov	r3, sl
10001d5a:	7819      	ldrb	r1, [r3, #0]
10001d5c:	46a8      	mov	r8, r5
10001d5e:	9100      	str	r1, [sp, #0]
10001d60:	4649      	mov	r1, r9
10001d62:	2307      	movs	r3, #7
10001d64:	9101      	str	r1, [sp, #4]
10001d66:	9d00      	ldr	r5, [sp, #0]
10001d68:	4661      	mov	r1, ip
10001d6a:	411d      	asrs	r5, r3
10001d6c:	4229      	tst	r1, r5
10001d6e:	d000      	beq.n	10001d72 <CAN_Send_Message+0x15e>
10001d70:	e1e8      	b.n	10002144 <CAN_Send_Message+0x530>
10001d72:	3001      	adds	r0, #1
10001d74:	2a1f      	cmp	r2, #31
10001d76:	dd00      	ble.n	10001d7a <CAN_Send_Message+0x166>
10001d78:	e223      	b.n	100021c2 <CAN_Send_Message+0x5ae>
10001d7a:	4645      	mov	r5, r8
10001d7c:	433d      	orrs	r5, r7
10001d7e:	002c      	movs	r4, r5
10001d80:	4334      	orrs	r4, r6
10001d82:	d100      	bne.n	10001d86 <CAN_Send_Message+0x172>
10001d84:	e246      	b.n	10002214 <CAN_Send_Message+0x600>
10001d86:	2805      	cmp	r0, #5
10001d88:	d100      	bne.n	10001d8c <CAN_Send_Message+0x178>
10001d8a:	e162      	b.n	10002052 <CAN_Send_Message+0x43e>
10001d8c:	2400      	movs	r4, #0
10001d8e:	3b01      	subs	r3, #1
10001d90:	d2e9      	bcs.n	10001d66 <CAN_Send_Message+0x152>
10001d92:	9b01      	ldr	r3, [sp, #4]
10001d94:	4645      	mov	r5, r8
10001d96:	4699      	mov	r9, r3
10001d98:	2301      	movs	r3, #1
10001d9a:	4698      	mov	r8, r3
10001d9c:	9b03      	ldr	r3, [sp, #12]
10001d9e:	44c2      	add	sl, r8
10001da0:	4553      	cmp	r3, sl
10001da2:	d1d9      	bne.n	10001d58 <CAN_Send_Message+0x144>
10001da4:	0029      	movs	r1, r5
10001da6:	9b06      	ldr	r3, [sp, #24]
10001da8:	2501      	movs	r5, #1
10001daa:	899b      	ldrh	r3, [r3, #12]
10001dac:	46ac      	mov	ip, r5
10001dae:	4698      	mov	r8, r3
10001db0:	351e      	adds	r5, #30
10001db2:	46aa      	mov	sl, r5
10001db4:	4645      	mov	r5, r8
10001db6:	4688      	mov	r8, r1
10001db8:	4649      	mov	r1, r9
10001dba:	230e      	movs	r3, #14
10001dbc:	9101      	str	r1, [sp, #4]
10001dbe:	9500      	str	r5, [sp, #0]
10001dc0:	9d00      	ldr	r5, [sp, #0]
10001dc2:	4661      	mov	r1, ip
10001dc4:	411d      	asrs	r5, r3
10001dc6:	4229      	tst	r1, r5
10001dc8:	d000      	beq.n	10001dcc <CAN_Send_Message+0x1b8>
10001dca:	e238      	b.n	1000223e <CAN_Send_Message+0x62a>
10001dcc:	3001      	adds	r0, #1
10001dce:	2a1f      	cmp	r2, #31
10001dd0:	dd00      	ble.n	10001dd4 <CAN_Send_Message+0x1c0>
10001dd2:	e2a7      	b.n	10002324 <CAN_Send_Message+0x710>
10001dd4:	4645      	mov	r5, r8
10001dd6:	433d      	orrs	r5, r7
10001dd8:	002c      	movs	r4, r5
10001dda:	4334      	orrs	r4, r6
10001ddc:	d100      	bne.n	10001de0 <CAN_Send_Message+0x1cc>
10001dde:	e2ef      	b.n	100023c0 <CAN_Send_Message+0x7ac>
10001de0:	2805      	cmp	r0, #5
10001de2:	d100      	bne.n	10001de6 <CAN_Send_Message+0x1d2>
10001de4:	e146      	b.n	10002074 <CAN_Send_Message+0x460>
10001de6:	2400      	movs	r4, #0
10001de8:	3b01      	subs	r3, #1
10001dea:	d2e9      	bcs.n	10001dc0 <CAN_Send_Message+0x1ac>
10001dec:	9b01      	ldr	r3, [sp, #4]
10001dee:	4641      	mov	r1, r8
10001df0:	4699      	mov	r9, r3
10001df2:	2a1f      	cmp	r2, #31
10001df4:	dd01      	ble.n	10001dfa <CAN_Send_Message+0x1e6>
10001df6:	f000 fbdc 	bl	100025b2 <CAN_Send_Message+0x99e>
10001dfa:	4643      	mov	r3, r8
10001dfc:	4333      	orrs	r3, r6
10001dfe:	433b      	orrs	r3, r7
10001e00:	d101      	bne.n	10001e06 <CAN_Send_Message+0x1f2>
10001e02:	f000 fcd7 	bl	100027b4 <CAN_Send_Message+0xba0>
10001e06:	2c04      	cmp	r4, #4
10001e08:	d101      	bne.n	10001e0e <CAN_Send_Message+0x1fa>
10001e0a:	f000 fe0d 	bl	10002a28 <CAN_Send_Message+0xe14>
10001e0e:	241f      	movs	r4, #31
10001e10:	2001      	movs	r0, #1
10001e12:	465d      	mov	r5, fp
10001e14:	2a1f      	cmp	r2, #31
10001e16:	dc0b      	bgt.n	10001e30 <CAN_Send_Message+0x21c>
10001e18:	003b      	movs	r3, r7
10001e1a:	430b      	orrs	r3, r1
10001e1c:	4333      	orrs	r3, r6
10001e1e:	d10a      	bne.n	10001e36 <CAN_Send_Message+0x222>
10001e20:	0006      	movs	r6, r0
10001e22:	1aa3      	subs	r3, r4, r2
10001e24:	409e      	lsls	r6, r3
10001e26:	3201      	adds	r2, #1
10001e28:	4335      	orrs	r5, r6
10001e2a:	2600      	movs	r6, #0
10001e2c:	2a1f      	cmp	r2, #31
10001e2e:	ddf3      	ble.n	10001e18 <CAN_Send_Message+0x204>
10001e30:	2a20      	cmp	r2, #32
10001e32:	d100      	bne.n	10001e36 <CAN_Send_Message+0x222>
10001e34:	e12f      	b.n	10002096 <CAN_Send_Message+0x482>
10001e36:	2e1f      	cmp	r6, #31
10001e38:	ddec      	ble.n	10001e14 <CAN_Send_Message+0x200>
10001e3a:	2301      	movs	r3, #1
10001e3c:	9a07      	ldr	r2, [sp, #28]
10001e3e:	46ab      	mov	fp, r5
10001e40:	3210      	adds	r2, #16
10001e42:	4093      	lsls	r3, r2
10001e44:	4649      	mov	r1, r9
10001e46:	684a      	ldr	r2, [r1, #4]
10001e48:	4213      	tst	r3, r2
10001e4a:	d1fc      	bne.n	10001e46 <CAN_Send_Message+0x232>
10001e4c:	4689      	mov	r9, r1
10001e4e:	9a07      	ldr	r2, [sp, #28]
10001e50:	4648      	mov	r0, r9
10001e52:	0091      	lsls	r1, r2, #2
10001e54:	465a      	mov	r2, fp
10001e56:	4449      	add	r1, r9
10001e58:	610a      	str	r2, [r1, #16]
10001e5a:	6842      	ldr	r2, [r0, #4]
10001e5c:	4213      	tst	r3, r2
10001e5e:	d1fc      	bne.n	10001e5a <CAN_Send_Message+0x246>
10001e60:	9a02      	ldr	r2, [sp, #8]
10001e62:	610a      	str	r2, [r1, #16]
10001e64:	6842      	ldr	r2, [r0, #4]
10001e66:	4213      	tst	r3, r2
10001e68:	d1fc      	bne.n	10001e64 <CAN_Send_Message+0x250>
10001e6a:	9a04      	ldr	r2, [sp, #16]
10001e6c:	610a      	str	r2, [r1, #16]
10001e6e:	6842      	ldr	r2, [r0, #4]
10001e70:	4213      	tst	r3, r2
10001e72:	d1fc      	bne.n	10001e6e <CAN_Send_Message+0x25a>
10001e74:	2000      	movs	r0, #0
10001e76:	9b05      	ldr	r3, [sp, #20]
10001e78:	610b      	str	r3, [r1, #16]
10001e7a:	b009      	add	sp, #36	; 0x24
10001e7c:	bc3c      	pop	{r2, r3, r4, r5}
10001e7e:	4690      	mov	r8, r2
10001e80:	4699      	mov	r9, r3
10001e82:	46a2      	mov	sl, r4
10001e84:	46ab      	mov	fp, r5
10001e86:	bdf0      	pop	{r4, r5, r6, r7, pc}
10001e88:	3401      	adds	r4, #1
10001e8a:	2a1f      	cmp	r2, #31
10001e8c:	dc09      	bgt.n	10001ea2 <CAN_Send_Message+0x28e>
10001e8e:	4645      	mov	r5, r8
10001e90:	433d      	orrs	r5, r7
10001e92:	0028      	movs	r0, r5
10001e94:	4330      	orrs	r0, r6
10001e96:	d02b      	beq.n	10001ef0 <CAN_Send_Message+0x2dc>
10001e98:	2c05      	cmp	r4, #5
10001e9a:	d100      	bne.n	10001e9e <CAN_Send_Message+0x28a>
10001e9c:	e0b6      	b.n	1000200c <CAN_Send_Message+0x3f8>
10001e9e:	2000      	movs	r0, #0
10001ea0:	e6ed      	b.n	10001c7e <CAN_Send_Message+0x6a>
10001ea2:	2a20      	cmp	r2, #32
10001ea4:	d068      	beq.n	10001f78 <CAN_Send_Message+0x364>
10001ea6:	2c05      	cmp	r4, #5
10001ea8:	d1f9      	bne.n	10001e9e <CAN_Send_Message+0x28a>
10001eaa:	2a20      	cmp	r2, #32
10001eac:	d078      	beq.n	10001fa0 <CAN_Send_Message+0x38c>
10001eae:	2400      	movs	r4, #0
10001eb0:	2000      	movs	r0, #0
10001eb2:	e6e4      	b.n	10001c7e <CAN_Send_Message+0x6a>
10001eb4:	2a20      	cmp	r2, #32
10001eb6:	d03f      	beq.n	10001f38 <CAN_Send_Message+0x324>
10001eb8:	2805      	cmp	r0, #5
10001eba:	d000      	beq.n	10001ebe <CAN_Send_Message+0x2aa>
10001ebc:	e6de      	b.n	10001c7c <CAN_Send_Message+0x68>
10001ebe:	2400      	movs	r4, #0
10001ec0:	2000      	movs	r0, #0
10001ec2:	2a20      	cmp	r2, #32
10001ec4:	d000      	beq.n	10001ec8 <CAN_Send_Message+0x2b4>
10001ec6:	e6da      	b.n	10001c7e <CAN_Send_Message+0x6a>
10001ec8:	2f1f      	cmp	r7, #31
10001eca:	dd4c      	ble.n	10001f66 <CAN_Send_Message+0x352>
10001ecc:	0020      	movs	r0, r4
10001ece:	2f20      	cmp	r7, #32
10001ed0:	d000      	beq.n	10001ed4 <CAN_Send_Message+0x2c0>
10001ed2:	e6d4      	b.n	10001c7e <CAN_Send_Message+0x6a>
10001ed4:	4644      	mov	r4, r8
10001ed6:	2c1f      	cmp	r4, #31
10001ed8:	dd01      	ble.n	10001ede <CAN_Send_Message+0x2ca>
10001eda:	f000 ffe0 	bl	10002e9e <CAN_Send_Message+0x128a>
10001ede:	2e00      	cmp	r6, #0
10001ee0:	d101      	bne.n	10001ee6 <CAN_Send_Message+0x2d2>
10001ee2:	f000 ff5e 	bl	10002da2 <CAN_Send_Message+0x118e>
10001ee6:	2400      	movs	r4, #0
10001ee8:	2000      	movs	r0, #0
10001eea:	2720      	movs	r7, #32
10001eec:	2220      	movs	r2, #32
10001eee:	e6c6      	b.n	10001c7e <CAN_Send_Message+0x6a>
10001ef0:	4651      	mov	r1, sl
10001ef2:	1a8e      	subs	r6, r1, r2
10001ef4:	4661      	mov	r1, ip
10001ef6:	40b1      	lsls	r1, r6
10001ef8:	000e      	movs	r6, r1
10001efa:	4659      	mov	r1, fp
10001efc:	4331      	orrs	r1, r6
10001efe:	468b      	mov	fp, r1
10001f00:	3201      	adds	r2, #1
10001f02:	2c05      	cmp	r4, #5
10001f04:	d077      	beq.n	10001ff6 <CAN_Send_Message+0x3e2>
10001f06:	2600      	movs	r6, #0
10001f08:	e6b9      	b.n	10001c7e <CAN_Send_Message+0x6a>
10001f0a:	3201      	adds	r2, #1
10001f0c:	2805      	cmp	r0, #5
10001f0e:	d1fa      	bne.n	10001f06 <CAN_Send_Message+0x2f2>
10001f10:	2a1f      	cmp	r2, #31
10001f12:	dd01      	ble.n	10001f18 <CAN_Send_Message+0x304>
10001f14:	f000 ffd5 	bl	10002ec2 <CAN_Send_Message+0x12ae>
10001f18:	4325      	orrs	r5, r4
10001f1a:	1e2e      	subs	r6, r5, #0
10001f1c:	d000      	beq.n	10001f20 <CAN_Send_Message+0x30c>
10001f1e:	e082      	b.n	10002026 <CAN_Send_Message+0x412>
10001f20:	4651      	mov	r1, sl
10001f22:	1a88      	subs	r0, r1, r2
10001f24:	4661      	mov	r1, ip
10001f26:	4081      	lsls	r1, r0
10001f28:	0008      	movs	r0, r1
10001f2a:	4659      	mov	r1, fp
10001f2c:	4301      	orrs	r1, r0
10001f2e:	468b      	mov	fp, r1
10001f30:	3201      	adds	r2, #1
10001f32:	2400      	movs	r4, #0
10001f34:	2000      	movs	r0, #0
10001f36:	e6a2      	b.n	10001c7e <CAN_Send_Message+0x6a>
10001f38:	2f1f      	cmp	r7, #31
10001f3a:	dc0b      	bgt.n	10001f54 <CAN_Send_Message+0x340>
10001f3c:	4644      	mov	r4, r8
10001f3e:	4334      	orrs	r4, r6
10001f40:	d10a      	bne.n	10001f58 <CAN_Send_Message+0x344>
10001f42:	3701      	adds	r7, #1
10001f44:	2805      	cmp	r0, #5
10001f46:	d101      	bne.n	10001f4c <CAN_Send_Message+0x338>
10001f48:	f000 fdc2 	bl	10002ad0 <CAN_Send_Message+0xebc>
10001f4c:	2100      	movs	r1, #0
10001f4e:	2600      	movs	r6, #0
10001f50:	4688      	mov	r8, r1
10001f52:	e694      	b.n	10001c7e <CAN_Send_Message+0x6a>
10001f54:	2f20      	cmp	r7, #32
10001f56:	d06a      	beq.n	1000202e <CAN_Send_Message+0x41a>
10001f58:	2805      	cmp	r0, #5
10001f5a:	d000      	beq.n	10001f5e <CAN_Send_Message+0x34a>
10001f5c:	e68e      	b.n	10001c7c <CAN_Send_Message+0x68>
10001f5e:	2f1f      	cmp	r7, #31
10001f60:	dd01      	ble.n	10001f66 <CAN_Send_Message+0x352>
10001f62:	f000 fd28 	bl	100029b6 <CAN_Send_Message+0xda2>
10001f66:	4642      	mov	r2, r8
10001f68:	4332      	orrs	r2, r6
10001f6a:	d101      	bne.n	10001f70 <CAN_Send_Message+0x35c>
10001f6c:	f000 fdb3 	bl	10002ad6 <CAN_Send_Message+0xec2>
10001f70:	2400      	movs	r4, #0
10001f72:	2000      	movs	r0, #0
10001f74:	2220      	movs	r2, #32
10001f76:	e682      	b.n	10001c7e <CAN_Send_Message+0x6a>
10001f78:	2f1f      	cmp	r7, #31
10001f7a:	dc21      	bgt.n	10001fc0 <CAN_Send_Message+0x3ac>
10001f7c:	4640      	mov	r0, r8
10001f7e:	4330      	orrs	r0, r6
10001f80:	d10b      	bne.n	10001f9a <CAN_Send_Message+0x386>
10001f82:	4651      	mov	r1, sl
10001f84:	1bc8      	subs	r0, r1, r7
10001f86:	4661      	mov	r1, ip
10001f88:	4081      	lsls	r1, r0
10001f8a:	0008      	movs	r0, r1
10001f8c:	9902      	ldr	r1, [sp, #8]
10001f8e:	2600      	movs	r6, #0
10001f90:	4301      	orrs	r1, r0
10001f92:	9102      	str	r1, [sp, #8]
10001f94:	2100      	movs	r1, #0
10001f96:	4688      	mov	r8, r1
10001f98:	3701      	adds	r7, #1
10001f9a:	2c05      	cmp	r4, #5
10001f9c:	d000      	beq.n	10001fa0 <CAN_Send_Message+0x38c>
10001f9e:	e77e      	b.n	10001e9e <CAN_Send_Message+0x28a>
10001fa0:	2f1f      	cmp	r7, #31
10001fa2:	dd01      	ble.n	10001fa8 <CAN_Send_Message+0x394>
10001fa4:	f000 fd3a 	bl	10002a1c <CAN_Send_Message+0xe08>
10001fa8:	4644      	mov	r4, r8
10001faa:	4334      	orrs	r4, r6
10001fac:	d001      	beq.n	10001fb2 <CAN_Send_Message+0x39e>
10001fae:	f000 fd37 	bl	10002a20 <CAN_Send_Message+0xe0c>
10001fb2:	2200      	movs	r2, #0
10001fb4:	3701      	adds	r7, #1
10001fb6:	4690      	mov	r8, r2
10001fb8:	2600      	movs	r6, #0
10001fba:	2000      	movs	r0, #0
10001fbc:	3220      	adds	r2, #32
10001fbe:	e65e      	b.n	10001c7e <CAN_Send_Message+0x6a>
10001fc0:	2f20      	cmp	r7, #32
10001fc2:	d1ea      	bne.n	10001f9a <CAN_Send_Message+0x386>
10001fc4:	4642      	mov	r2, r8
10001fc6:	2a1f      	cmp	r2, #31
10001fc8:	dd00      	ble.n	10001fcc <CAN_Send_Message+0x3b8>
10001fca:	e0aa      	b.n	10002122 <CAN_Send_Message+0x50e>
10001fcc:	2e00      	cmp	r6, #0
10001fce:	d10b      	bne.n	10001fe8 <CAN_Send_Message+0x3d4>
10001fd0:	4641      	mov	r1, r8
10001fd2:	4652      	mov	r2, sl
10001fd4:	1a52      	subs	r2, r2, r1
10001fd6:	4661      	mov	r1, ip
10001fd8:	4091      	lsls	r1, r2
10001fda:	000a      	movs	r2, r1
10001fdc:	9904      	ldr	r1, [sp, #16]
10001fde:	4311      	orrs	r1, r2
10001fe0:	2201      	movs	r2, #1
10001fe2:	4691      	mov	r9, r2
10001fe4:	9104      	str	r1, [sp, #16]
10001fe6:	44c8      	add	r8, r9
10001fe8:	2c05      	cmp	r4, #5
10001fea:	d101      	bne.n	10001ff0 <CAN_Send_Message+0x3dc>
10001fec:	f000 fd5b 	bl	10002aa6 <CAN_Send_Message+0xe92>
10001ff0:	2220      	movs	r2, #32
10001ff2:	2000      	movs	r0, #0
10001ff4:	e643      	b.n	10001c7e <CAN_Send_Message+0x6a>
10001ff6:	2a1f      	cmp	r2, #31
10001ff8:	dd01      	ble.n	10001ffe <CAN_Send_Message+0x3ea>
10001ffa:	f000 ff65 	bl	10002ec8 <CAN_Send_Message+0x12b4>
10001ffe:	002c      	movs	r4, r5
10002000:	4304      	orrs	r4, r0
10002002:	d107      	bne.n	10002014 <CAN_Send_Message+0x400>
10002004:	3201      	adds	r2, #1
10002006:	2600      	movs	r6, #0
10002008:	2000      	movs	r0, #0
1000200a:	e638      	b.n	10001c7e <CAN_Send_Message+0x6a>
1000200c:	0030      	movs	r0, r6
1000200e:	002c      	movs	r4, r5
10002010:	4304      	orrs	r4, r0
10002012:	d0f7      	beq.n	10002004 <CAN_Send_Message+0x3f0>
10002014:	0006      	movs	r6, r0
10002016:	2400      	movs	r4, #0
10002018:	2000      	movs	r0, #0
1000201a:	e630      	b.n	10001c7e <CAN_Send_Message+0x6a>
1000201c:	0034      	movs	r4, r6
1000201e:	4325      	orrs	r5, r4
10002020:	1e2e      	subs	r6, r5, #0
10002022:	d100      	bne.n	10002026 <CAN_Send_Message+0x412>
10002024:	e77c      	b.n	10001f20 <CAN_Send_Message+0x30c>
10002026:	0026      	movs	r6, r4
10002028:	2000      	movs	r0, #0
1000202a:	2400      	movs	r4, #0
1000202c:	e627      	b.n	10001c7e <CAN_Send_Message+0x6a>
1000202e:	4642      	mov	r2, r8
10002030:	2a1f      	cmp	r2, #31
10002032:	dc67      	bgt.n	10002104 <CAN_Send_Message+0x4f0>
10002034:	4272      	negs	r2, r6
10002036:	4172      	adcs	r2, r6
10002038:	4490      	add	r8, r2
1000203a:	2805      	cmp	r0, #5
1000203c:	d100      	bne.n	10002040 <CAN_Send_Message+0x42c>
1000203e:	e749      	b.n	10001ed4 <CAN_Send_Message+0x2c0>
10002040:	2220      	movs	r2, #32
10002042:	2400      	movs	r4, #0
10002044:	e61b      	b.n	10001c7e <CAN_Send_Message+0x6a>
10002046:	2b05      	cmp	r3, #5
10002048:	d000      	beq.n	1000204c <CAN_Send_Message+0x438>
1000204a:	e62d      	b.n	10001ca8 <CAN_Send_Message+0x94>
1000204c:	0034      	movs	r4, r6
1000204e:	f000 fcb9 	bl	100029c4 <CAN_Send_Message+0xdb0>
10002052:	0034      	movs	r4, r6
10002054:	0028      	movs	r0, r5
10002056:	4320      	orrs	r0, r4
10002058:	d000      	beq.n	1000205c <CAN_Send_Message+0x448>
1000205a:	e191      	b.n	10002380 <CAN_Send_Message+0x76c>
1000205c:	211f      	movs	r1, #31
1000205e:	1a8c      	subs	r4, r1, r2
10002060:	4661      	mov	r1, ip
10002062:	40a1      	lsls	r1, r4
10002064:	000c      	movs	r4, r1
10002066:	4659      	mov	r1, fp
10002068:	4321      	orrs	r1, r4
1000206a:	468b      	mov	fp, r1
1000206c:	3201      	adds	r2, #1
1000206e:	2600      	movs	r6, #0
10002070:	2400      	movs	r4, #0
10002072:	e68c      	b.n	10001d8e <CAN_Send_Message+0x17a>
10002074:	0034      	movs	r4, r6
10002076:	0028      	movs	r0, r5
10002078:	4320      	orrs	r0, r4
1000207a:	d000      	beq.n	1000207e <CAN_Send_Message+0x46a>
1000207c:	e276      	b.n	1000256c <CAN_Send_Message+0x958>
1000207e:	4651      	mov	r1, sl
10002080:	1a8c      	subs	r4, r1, r2
10002082:	4661      	mov	r1, ip
10002084:	40a1      	lsls	r1, r4
10002086:	000c      	movs	r4, r1
10002088:	4659      	mov	r1, fp
1000208a:	4321      	orrs	r1, r4
1000208c:	468b      	mov	fp, r1
1000208e:	3201      	adds	r2, #1
10002090:	2600      	movs	r6, #0
10002092:	2400      	movs	r4, #0
10002094:	e6a8      	b.n	10001de8 <CAN_Send_Message+0x1d4>
10002096:	2f1f      	cmp	r7, #31
10002098:	dc0f      	bgt.n	100020ba <CAN_Send_Message+0x4a6>
1000209a:	000b      	movs	r3, r1
1000209c:	4333      	orrs	r3, r6
1000209e:	d000      	beq.n	100020a2 <CAN_Send_Message+0x48e>
100020a0:	e6c9      	b.n	10001e36 <CAN_Send_Message+0x222>
100020a2:	0001      	movs	r1, r0
100020a4:	1be3      	subs	r3, r4, r7
100020a6:	4099      	lsls	r1, r3
100020a8:	000b      	movs	r3, r1
100020aa:	9902      	ldr	r1, [sp, #8]
100020ac:	3701      	adds	r7, #1
100020ae:	4319      	orrs	r1, r3
100020b0:	9102      	str	r1, [sp, #8]
100020b2:	2600      	movs	r6, #0
100020b4:	2100      	movs	r1, #0
100020b6:	2f1f      	cmp	r7, #31
100020b8:	ddef      	ble.n	1000209a <CAN_Send_Message+0x486>
100020ba:	2f20      	cmp	r7, #32
100020bc:	d000      	beq.n	100020c0 <CAN_Send_Message+0x4ac>
100020be:	e6ba      	b.n	10001e36 <CAN_Send_Message+0x222>
100020c0:	291f      	cmp	r1, #31
100020c2:	dc0d      	bgt.n	100020e0 <CAN_Send_Message+0x4cc>
100020c4:	2e00      	cmp	r6, #0
100020c6:	d001      	beq.n	100020cc <CAN_Send_Message+0x4b8>
100020c8:	f000 fbf5 	bl	100028b6 <CAN_Send_Message+0xca2>
100020cc:	0002      	movs	r2, r0
100020ce:	1a63      	subs	r3, r4, r1
100020d0:	409a      	lsls	r2, r3
100020d2:	0013      	movs	r3, r2
100020d4:	9a04      	ldr	r2, [sp, #16]
100020d6:	3101      	adds	r1, #1
100020d8:	431a      	orrs	r2, r3
100020da:	9204      	str	r2, [sp, #16]
100020dc:	291f      	cmp	r1, #31
100020de:	ddf1      	ble.n	100020c4 <CAN_Send_Message+0x4b0>
100020e0:	2220      	movs	r2, #32
100020e2:	2920      	cmp	r1, #32
100020e4:	d000      	beq.n	100020e8 <CAN_Send_Message+0x4d4>
100020e6:	e6a6      	b.n	10001e36 <CAN_Send_Message+0x222>
100020e8:	2e1f      	cmp	r6, #31
100020ea:	dd00      	ble.n	100020ee <CAN_Send_Message+0x4da>
100020ec:	e6a5      	b.n	10001e3a <CAN_Send_Message+0x226>
100020ee:	0002      	movs	r2, r0
100020f0:	1ba3      	subs	r3, r4, r6
100020f2:	409a      	lsls	r2, r3
100020f4:	0013      	movs	r3, r2
100020f6:	9a05      	ldr	r2, [sp, #20]
100020f8:	3601      	adds	r6, #1
100020fa:	431a      	orrs	r2, r3
100020fc:	9205      	str	r2, [sp, #20]
100020fe:	2720      	movs	r7, #32
10002100:	000a      	movs	r2, r1
10002102:	e698      	b.n	10001e36 <CAN_Send_Message+0x222>
10002104:	4642      	mov	r2, r8
10002106:	2a20      	cmp	r2, #32
10002108:	d197      	bne.n	1000203a <CAN_Send_Message+0x426>
1000210a:	2e1f      	cmp	r6, #31
1000210c:	dd01      	ble.n	10002112 <CAN_Send_Message+0x4fe>
1000210e:	f000 fd5a 	bl	10002bc6 <CAN_Send_Message+0xfb2>
10002112:	3601      	adds	r6, #1
10002114:	2805      	cmp	r0, #5
10002116:	d101      	bne.n	1000211c <CAN_Send_Message+0x508>
10002118:	f000 fd58 	bl	10002bcc <CAN_Send_Message+0xfb8>
1000211c:	4647      	mov	r7, r8
1000211e:	2400      	movs	r4, #0
10002120:	e5ad      	b.n	10001c7e <CAN_Send_Message+0x6a>
10002122:	4642      	mov	r2, r8
10002124:	2a20      	cmp	r2, #32
10002126:	d000      	beq.n	1000212a <CAN_Send_Message+0x516>
10002128:	e75e      	b.n	10001fe8 <CAN_Send_Message+0x3d4>
1000212a:	2e1f      	cmp	r6, #31
1000212c:	dd00      	ble.n	10002130 <CAN_Send_Message+0x51c>
1000212e:	e75b      	b.n	10001fe8 <CAN_Send_Message+0x3d4>
10002130:	4652      	mov	r2, sl
10002132:	4661      	mov	r1, ip
10002134:	1b92      	subs	r2, r2, r6
10002136:	4091      	lsls	r1, r2
10002138:	000a      	movs	r2, r1
1000213a:	9905      	ldr	r1, [sp, #20]
1000213c:	3601      	adds	r6, #1
1000213e:	4311      	orrs	r1, r2
10002140:	9105      	str	r1, [sp, #20]
10002142:	e751      	b.n	10001fe8 <CAN_Send_Message+0x3d4>
10002144:	3401      	adds	r4, #1
10002146:	2a1f      	cmp	r2, #31
10002148:	dc11      	bgt.n	1000216e <CAN_Send_Message+0x55a>
1000214a:	4645      	mov	r5, r8
1000214c:	433d      	orrs	r5, r7
1000214e:	0028      	movs	r0, r5
10002150:	4330      	orrs	r0, r6
10002152:	d04e      	beq.n	100021f2 <CAN_Send_Message+0x5de>
10002154:	2c05      	cmp	r4, #5
10002156:	d001      	beq.n	1000215c <CAN_Send_Message+0x548>
10002158:	2000      	movs	r0, #0
1000215a:	e618      	b.n	10001d8e <CAN_Send_Message+0x17a>
1000215c:	0030      	movs	r0, r6
1000215e:	002c      	movs	r4, r5
10002160:	4304      	orrs	r4, r0
10002162:	d000      	beq.n	10002166 <CAN_Send_Message+0x552>
10002164:	e108      	b.n	10002378 <CAN_Send_Message+0x764>
10002166:	3201      	adds	r2, #1
10002168:	2600      	movs	r6, #0
1000216a:	2000      	movs	r0, #0
1000216c:	e60f      	b.n	10001d8e <CAN_Send_Message+0x17a>
1000216e:	2a20      	cmp	r2, #32
10002170:	d006      	beq.n	10002180 <CAN_Send_Message+0x56c>
10002172:	2c05      	cmp	r4, #5
10002174:	d1f0      	bne.n	10002158 <CAN_Send_Message+0x544>
10002176:	2a20      	cmp	r2, #32
10002178:	d015      	beq.n	100021a6 <CAN_Send_Message+0x592>
1000217a:	2400      	movs	r4, #0
1000217c:	2000      	movs	r0, #0
1000217e:	e606      	b.n	10001d8e <CAN_Send_Message+0x17a>
10002180:	2f1f      	cmp	r7, #31
10002182:	dc72      	bgt.n	1000226a <CAN_Send_Message+0x656>
10002184:	4640      	mov	r0, r8
10002186:	4330      	orrs	r0, r6
10002188:	d10b      	bne.n	100021a2 <CAN_Send_Message+0x58e>
1000218a:	211f      	movs	r1, #31
1000218c:	1bc8      	subs	r0, r1, r7
1000218e:	4661      	mov	r1, ip
10002190:	4081      	lsls	r1, r0
10002192:	0008      	movs	r0, r1
10002194:	9902      	ldr	r1, [sp, #8]
10002196:	2600      	movs	r6, #0
10002198:	4301      	orrs	r1, r0
1000219a:	9102      	str	r1, [sp, #8]
1000219c:	2100      	movs	r1, #0
1000219e:	4688      	mov	r8, r1
100021a0:	3701      	adds	r7, #1
100021a2:	2c05      	cmp	r4, #5
100021a4:	d1d8      	bne.n	10002158 <CAN_Send_Message+0x544>
100021a6:	2f1f      	cmp	r7, #31
100021a8:	dd00      	ble.n	100021ac <CAN_Send_Message+0x598>
100021aa:	e244      	b.n	10002636 <CAN_Send_Message+0xa22>
100021ac:	4640      	mov	r0, r8
100021ae:	4330      	orrs	r0, r6
100021b0:	d000      	beq.n	100021b4 <CAN_Send_Message+0x5a0>
100021b2:	e151      	b.n	10002458 <CAN_Send_Message+0x844>
100021b4:	2200      	movs	r2, #0
100021b6:	3701      	adds	r7, #1
100021b8:	4690      	mov	r8, r2
100021ba:	2600      	movs	r6, #0
100021bc:	2400      	movs	r4, #0
100021be:	3220      	adds	r2, #32
100021c0:	e5e5      	b.n	10001d8e <CAN_Send_Message+0x17a>
100021c2:	2a20      	cmp	r2, #32
100021c4:	d02e      	beq.n	10002224 <CAN_Send_Message+0x610>
100021c6:	2805      	cmp	r0, #5
100021c8:	d000      	beq.n	100021cc <CAN_Send_Message+0x5b8>
100021ca:	e5df      	b.n	10001d8c <CAN_Send_Message+0x178>
100021cc:	2400      	movs	r4, #0
100021ce:	2000      	movs	r0, #0
100021d0:	2a20      	cmp	r2, #32
100021d2:	d000      	beq.n	100021d6 <CAN_Send_Message+0x5c2>
100021d4:	e5db      	b.n	10001d8e <CAN_Send_Message+0x17a>
100021d6:	2f1f      	cmp	r7, #31
100021d8:	dd69      	ble.n	100022ae <CAN_Send_Message+0x69a>
100021da:	2f20      	cmp	r7, #32
100021dc:	d000      	beq.n	100021e0 <CAN_Send_Message+0x5cc>
100021de:	e5d6      	b.n	10001d8e <CAN_Send_Message+0x17a>
100021e0:	4642      	mov	r2, r8
100021e2:	2a1f      	cmp	r2, #31
100021e4:	dd00      	ble.n	100021e8 <CAN_Send_Message+0x5d4>
100021e6:	e27d      	b.n	100026e4 <CAN_Send_Message+0xad0>
100021e8:	2e00      	cmp	r6, #0
100021ea:	d000      	beq.n	100021ee <CAN_Send_Message+0x5da>
100021ec:	e27e      	b.n	100026ec <CAN_Send_Message+0xad8>
100021ee:	4644      	mov	r4, r8
100021f0:	e1a7      	b.n	10002542 <CAN_Send_Message+0x92e>
100021f2:	211f      	movs	r1, #31
100021f4:	1a8e      	subs	r6, r1, r2
100021f6:	4661      	mov	r1, ip
100021f8:	40b1      	lsls	r1, r6
100021fa:	000e      	movs	r6, r1
100021fc:	4659      	mov	r1, fp
100021fe:	4331      	orrs	r1, r6
10002200:	468b      	mov	fp, r1
10002202:	3201      	adds	r2, #1
10002204:	2c05      	cmp	r4, #5
10002206:	d001      	beq.n	1000220c <CAN_Send_Message+0x5f8>
10002208:	2600      	movs	r6, #0
1000220a:	e5c0      	b.n	10001d8e <CAN_Send_Message+0x17a>
1000220c:	2a1f      	cmp	r2, #31
1000220e:	dda6      	ble.n	1000215e <CAN_Send_Message+0x54a>
10002210:	2600      	movs	r6, #0
10002212:	e7b0      	b.n	10002176 <CAN_Send_Message+0x562>
10002214:	3201      	adds	r2, #1
10002216:	2805      	cmp	r0, #5
10002218:	d1f6      	bne.n	10002208 <CAN_Send_Message+0x5f4>
1000221a:	2a1f      	cmp	r2, #31
1000221c:	dc00      	bgt.n	10002220 <CAN_Send_Message+0x60c>
1000221e:	e719      	b.n	10002054 <CAN_Send_Message+0x440>
10002220:	2600      	movs	r6, #0
10002222:	e7d3      	b.n	100021cc <CAN_Send_Message+0x5b8>
10002224:	2f1f      	cmp	r7, #31
10002226:	dc3a      	bgt.n	1000229e <CAN_Send_Message+0x68a>
10002228:	4644      	mov	r4, r8
1000222a:	4334      	orrs	r4, r6
1000222c:	d139      	bne.n	100022a2 <CAN_Send_Message+0x68e>
1000222e:	3701      	adds	r7, #1
10002230:	2805      	cmp	r0, #5
10002232:	d100      	bne.n	10002236 <CAN_Send_Message+0x622>
10002234:	e183      	b.n	1000253e <CAN_Send_Message+0x92a>
10002236:	2100      	movs	r1, #0
10002238:	2600      	movs	r6, #0
1000223a:	4688      	mov	r8, r1
1000223c:	e5a7      	b.n	10001d8e <CAN_Send_Message+0x17a>
1000223e:	3401      	adds	r4, #1
10002240:	2a1f      	cmp	r2, #31
10002242:	dc3c      	bgt.n	100022be <CAN_Send_Message+0x6aa>
10002244:	4645      	mov	r5, r8
10002246:	433d      	orrs	r5, r7
10002248:	0028      	movs	r0, r5
1000224a:	4330      	orrs	r0, r6
1000224c:	d100      	bne.n	10002250 <CAN_Send_Message+0x63c>
1000224e:	e0c1      	b.n	100023d4 <CAN_Send_Message+0x7c0>
10002250:	2c05      	cmp	r4, #5
10002252:	d001      	beq.n	10002258 <CAN_Send_Message+0x644>
10002254:	2000      	movs	r0, #0
10002256:	e5c7      	b.n	10001de8 <CAN_Send_Message+0x1d4>
10002258:	0030      	movs	r0, r6
1000225a:	4305      	orrs	r5, r0
1000225c:	1e2e      	subs	r6, r5, #0
1000225e:	d000      	beq.n	10002262 <CAN_Send_Message+0x64e>
10002260:	e180      	b.n	10002564 <CAN_Send_Message+0x950>
10002262:	3201      	adds	r2, #1
10002264:	2400      	movs	r4, #0
10002266:	2000      	movs	r0, #0
10002268:	e5be      	b.n	10001de8 <CAN_Send_Message+0x1d4>
1000226a:	2f20      	cmp	r7, #32
1000226c:	d199      	bne.n	100021a2 <CAN_Send_Message+0x58e>
1000226e:	4642      	mov	r2, r8
10002270:	2a1f      	cmp	r2, #31
10002272:	dd00      	ble.n	10002276 <CAN_Send_Message+0x662>
10002274:	e0be      	b.n	100023f4 <CAN_Send_Message+0x7e0>
10002276:	2e00      	cmp	r6, #0
10002278:	d10b      	bne.n	10002292 <CAN_Send_Message+0x67e>
1000227a:	4641      	mov	r1, r8
1000227c:	221f      	movs	r2, #31
1000227e:	1a52      	subs	r2, r2, r1
10002280:	4661      	mov	r1, ip
10002282:	4091      	lsls	r1, r2
10002284:	000a      	movs	r2, r1
10002286:	9904      	ldr	r1, [sp, #16]
10002288:	4311      	orrs	r1, r2
1000228a:	2201      	movs	r2, #1
1000228c:	4691      	mov	r9, r2
1000228e:	9104      	str	r1, [sp, #16]
10002290:	44c8      	add	r8, r9
10002292:	2c05      	cmp	r4, #5
10002294:	d100      	bne.n	10002298 <CAN_Send_Message+0x684>
10002296:	e0c0      	b.n	1000241a <CAN_Send_Message+0x806>
10002298:	2220      	movs	r2, #32
1000229a:	2000      	movs	r0, #0
1000229c:	e577      	b.n	10001d8e <CAN_Send_Message+0x17a>
1000229e:	2f20      	cmp	r7, #32
100022a0:	d072      	beq.n	10002388 <CAN_Send_Message+0x774>
100022a2:	2805      	cmp	r0, #5
100022a4:	d000      	beq.n	100022a8 <CAN_Send_Message+0x694>
100022a6:	e571      	b.n	10001d8c <CAN_Send_Message+0x178>
100022a8:	2f1f      	cmp	r7, #31
100022aa:	dd00      	ble.n	100022ae <CAN_Send_Message+0x69a>
100022ac:	e134      	b.n	10002518 <CAN_Send_Message+0x904>
100022ae:	4642      	mov	r2, r8
100022b0:	4332      	orrs	r2, r6
100022b2:	d100      	bne.n	100022b6 <CAN_Send_Message+0x6a2>
100022b4:	e132      	b.n	1000251c <CAN_Send_Message+0x908>
100022b6:	2400      	movs	r4, #0
100022b8:	2000      	movs	r0, #0
100022ba:	2220      	movs	r2, #32
100022bc:	e567      	b.n	10001d8e <CAN_Send_Message+0x17a>
100022be:	2a20      	cmp	r2, #32
100022c0:	d006      	beq.n	100022d0 <CAN_Send_Message+0x6bc>
100022c2:	2c05      	cmp	r4, #5
100022c4:	d1c6      	bne.n	10002254 <CAN_Send_Message+0x640>
100022c6:	2a20      	cmp	r2, #32
100022c8:	d016      	beq.n	100022f8 <CAN_Send_Message+0x6e4>
100022ca:	2400      	movs	r4, #0
100022cc:	2000      	movs	r0, #0
100022ce:	e58b      	b.n	10001de8 <CAN_Send_Message+0x1d4>
100022d0:	2f1f      	cmp	r7, #31
100022d2:	dd00      	ble.n	100022d6 <CAN_Send_Message+0x6c2>
100022d4:	e0d0      	b.n	10002478 <CAN_Send_Message+0x864>
100022d6:	4640      	mov	r0, r8
100022d8:	4330      	orrs	r0, r6
100022da:	d10b      	bne.n	100022f4 <CAN_Send_Message+0x6e0>
100022dc:	4651      	mov	r1, sl
100022de:	1bc8      	subs	r0, r1, r7
100022e0:	4661      	mov	r1, ip
100022e2:	4081      	lsls	r1, r0
100022e4:	0008      	movs	r0, r1
100022e6:	9902      	ldr	r1, [sp, #8]
100022e8:	2600      	movs	r6, #0
100022ea:	4301      	orrs	r1, r0
100022ec:	9102      	str	r1, [sp, #8]
100022ee:	2100      	movs	r1, #0
100022f0:	4688      	mov	r8, r1
100022f2:	3701      	adds	r7, #1
100022f4:	2c05      	cmp	r4, #5
100022f6:	d1ad      	bne.n	10002254 <CAN_Send_Message+0x640>
100022f8:	2f1f      	cmp	r7, #31
100022fa:	dd00      	ble.n	100022fe <CAN_Send_Message+0x6ea>
100022fc:	e3b1      	b.n	10002a62 <CAN_Send_Message+0xe4e>
100022fe:	4640      	mov	r0, r8
10002300:	4330      	orrs	r0, r6
10002302:	d10c      	bne.n	1000231e <CAN_Send_Message+0x70a>
10002304:	2200      	movs	r2, #0
10002306:	3701      	adds	r7, #1
10002308:	4690      	mov	r8, r2
1000230a:	2600      	movs	r6, #0
1000230c:	2400      	movs	r4, #0
1000230e:	3220      	adds	r2, #32
10002310:	e56a      	b.n	10001de8 <CAN_Send_Message+0x1d4>
10002312:	4642      	mov	r2, r8
10002314:	2a20      	cmp	r2, #32
10002316:	d101      	bne.n	1000231c <CAN_Send_Message+0x708>
10002318:	f000 fcac 	bl	10002c74 <CAN_Send_Message+0x1060>
1000231c:	2720      	movs	r7, #32
1000231e:	2220      	movs	r2, #32
10002320:	2400      	movs	r4, #0
10002322:	e7d3      	b.n	100022cc <CAN_Send_Message+0x6b8>
10002324:	2a20      	cmp	r2, #32
10002326:	d100      	bne.n	1000232a <CAN_Send_Message+0x716>
10002328:	e099      	b.n	1000245e <CAN_Send_Message+0x84a>
1000232a:	2805      	cmp	r0, #5
1000232c:	d000      	beq.n	10002330 <CAN_Send_Message+0x71c>
1000232e:	e55a      	b.n	10001de6 <CAN_Send_Message+0x1d2>
10002330:	2400      	movs	r4, #0
10002332:	2000      	movs	r0, #0
10002334:	2a20      	cmp	r2, #32
10002336:	d000      	beq.n	1000233a <CAN_Send_Message+0x726>
10002338:	e556      	b.n	10001de8 <CAN_Send_Message+0x1d4>
1000233a:	2f1f      	cmp	r7, #31
1000233c:	dc00      	bgt.n	10002340 <CAN_Send_Message+0x72c>
1000233e:	e0b4      	b.n	100024aa <CAN_Send_Message+0x896>
10002340:	2f20      	cmp	r7, #32
10002342:	d000      	beq.n	10002346 <CAN_Send_Message+0x732>
10002344:	e550      	b.n	10001de8 <CAN_Send_Message+0x1d4>
10002346:	4642      	mov	r2, r8
10002348:	2a1f      	cmp	r2, #31
1000234a:	dd00      	ble.n	1000234e <CAN_Send_Message+0x73a>
1000234c:	e3da      	b.n	10002b04 <CAN_Send_Message+0xef0>
1000234e:	2e00      	cmp	r6, #0
10002350:	d000      	beq.n	10002354 <CAN_Send_Message+0x740>
10002352:	e3db      	b.n	10002b0c <CAN_Send_Message+0xef8>
10002354:	4641      	mov	r1, r8
10002356:	4652      	mov	r2, sl
10002358:	1a52      	subs	r2, r2, r1
1000235a:	4661      	mov	r1, ip
1000235c:	4091      	lsls	r1, r2
1000235e:	000a      	movs	r2, r1
10002360:	9904      	ldr	r1, [sp, #16]
10002362:	2600      	movs	r6, #0
10002364:	4311      	orrs	r1, r2
10002366:	2201      	movs	r2, #1
10002368:	4691      	mov	r9, r2
1000236a:	9104      	str	r1, [sp, #16]
1000236c:	44c8      	add	r8, r9
1000236e:	2400      	movs	r4, #0
10002370:	2000      	movs	r0, #0
10002372:	2720      	movs	r7, #32
10002374:	321f      	adds	r2, #31
10002376:	e537      	b.n	10001de8 <CAN_Send_Message+0x1d4>
10002378:	0006      	movs	r6, r0
1000237a:	2400      	movs	r4, #0
1000237c:	2000      	movs	r0, #0
1000237e:	e506      	b.n	10001d8e <CAN_Send_Message+0x17a>
10002380:	0026      	movs	r6, r4
10002382:	2000      	movs	r0, #0
10002384:	2400      	movs	r4, #0
10002386:	e502      	b.n	10001d8e <CAN_Send_Message+0x17a>
10002388:	4642      	mov	r2, r8
1000238a:	2a1f      	cmp	r2, #31
1000238c:	dc52      	bgt.n	10002434 <CAN_Send_Message+0x820>
1000238e:	4272      	negs	r2, r6
10002390:	4172      	adcs	r2, r6
10002392:	4490      	add	r8, r2
10002394:	2805      	cmp	r0, #5
10002396:	d100      	bne.n	1000239a <CAN_Send_Message+0x786>
10002398:	e722      	b.n	100021e0 <CAN_Send_Message+0x5cc>
1000239a:	2220      	movs	r2, #32
1000239c:	2400      	movs	r4, #0
1000239e:	e4f6      	b.n	10001d8e <CAN_Send_Message+0x17a>
100023a0:	3401      	adds	r4, #1
100023a2:	2a1f      	cmp	r2, #31
100023a4:	dd00      	ble.n	100023a8 <CAN_Send_Message+0x794>
100023a6:	e0aa      	b.n	100024fe <CAN_Send_Message+0x8ea>
100023a8:	4650      	mov	r0, sl
100023aa:	0039      	movs	r1, r7
100023ac:	4301      	orrs	r1, r0
100023ae:	0008      	movs	r0, r1
100023b0:	4330      	orrs	r0, r6
100023b2:	d100      	bne.n	100023b6 <CAN_Send_Message+0x7a2>
100023b4:	e0e5      	b.n	10002582 <CAN_Send_Message+0x96e>
100023b6:	2c05      	cmp	r4, #5
100023b8:	d100      	bne.n	100023bc <CAN_Send_Message+0x7a8>
100023ba:	e29a      	b.n	100028f2 <CAN_Send_Message+0xcde>
100023bc:	2000      	movs	r0, #0
100023be:	e4ba      	b.n	10001d36 <CAN_Send_Message+0x122>
100023c0:	3201      	adds	r2, #1
100023c2:	2805      	cmp	r0, #5
100023c4:	d001      	beq.n	100023ca <CAN_Send_Message+0x7b6>
100023c6:	2600      	movs	r6, #0
100023c8:	e50e      	b.n	10001de8 <CAN_Send_Message+0x1d4>
100023ca:	2a1f      	cmp	r2, #31
100023cc:	dc00      	bgt.n	100023d0 <CAN_Send_Message+0x7bc>
100023ce:	e652      	b.n	10002076 <CAN_Send_Message+0x462>
100023d0:	2600      	movs	r6, #0
100023d2:	e7ad      	b.n	10002330 <CAN_Send_Message+0x71c>
100023d4:	4651      	mov	r1, sl
100023d6:	1a8e      	subs	r6, r1, r2
100023d8:	4661      	mov	r1, ip
100023da:	40b1      	lsls	r1, r6
100023dc:	000e      	movs	r6, r1
100023de:	4659      	mov	r1, fp
100023e0:	4331      	orrs	r1, r6
100023e2:	468b      	mov	fp, r1
100023e4:	3201      	adds	r2, #1
100023e6:	2c05      	cmp	r4, #5
100023e8:	d1ed      	bne.n	100023c6 <CAN_Send_Message+0x7b2>
100023ea:	2a1f      	cmp	r2, #31
100023ec:	dc00      	bgt.n	100023f0 <CAN_Send_Message+0x7dc>
100023ee:	e734      	b.n	1000225a <CAN_Send_Message+0x646>
100023f0:	2600      	movs	r6, #0
100023f2:	e768      	b.n	100022c6 <CAN_Send_Message+0x6b2>
100023f4:	4642      	mov	r2, r8
100023f6:	2a20      	cmp	r2, #32
100023f8:	d000      	beq.n	100023fc <CAN_Send_Message+0x7e8>
100023fa:	e74a      	b.n	10002292 <CAN_Send_Message+0x67e>
100023fc:	2e1f      	cmp	r6, #31
100023fe:	dd00      	ble.n	10002402 <CAN_Send_Message+0x7ee>
10002400:	e747      	b.n	10002292 <CAN_Send_Message+0x67e>
10002402:	4661      	mov	r1, ip
10002404:	3a01      	subs	r2, #1
10002406:	1b92      	subs	r2, r2, r6
10002408:	4091      	lsls	r1, r2
1000240a:	000a      	movs	r2, r1
1000240c:	9905      	ldr	r1, [sp, #20]
1000240e:	3601      	adds	r6, #1
10002410:	4311      	orrs	r1, r2
10002412:	9105      	str	r1, [sp, #20]
10002414:	2c05      	cmp	r4, #5
10002416:	d000      	beq.n	1000241a <CAN_Send_Message+0x806>
10002418:	e73e      	b.n	10002298 <CAN_Send_Message+0x684>
1000241a:	4642      	mov	r2, r8
1000241c:	2a1f      	cmp	r2, #31
1000241e:	dc16      	bgt.n	1000244e <CAN_Send_Message+0x83a>
10002420:	2e00      	cmp	r6, #0
10002422:	d118      	bne.n	10002456 <CAN_Send_Message+0x842>
10002424:	2201      	movs	r2, #1
10002426:	4691      	mov	r9, r2
10002428:	2400      	movs	r4, #0
1000242a:	44c8      	add	r8, r9
1000242c:	2000      	movs	r0, #0
1000242e:	2720      	movs	r7, #32
10002430:	321f      	adds	r2, #31
10002432:	e4ac      	b.n	10001d8e <CAN_Send_Message+0x17a>
10002434:	4642      	mov	r2, r8
10002436:	2a20      	cmp	r2, #32
10002438:	d1ac      	bne.n	10002394 <CAN_Send_Message+0x780>
1000243a:	2e1f      	cmp	r6, #31
1000243c:	dd00      	ble.n	10002440 <CAN_Send_Message+0x82c>
1000243e:	e15b      	b.n	100026f8 <CAN_Send_Message+0xae4>
10002440:	3601      	adds	r6, #1
10002442:	2805      	cmp	r0, #5
10002444:	d100      	bne.n	10002448 <CAN_Send_Message+0x834>
10002446:	e239      	b.n	100028bc <CAN_Send_Message+0xca8>
10002448:	4647      	mov	r7, r8
1000244a:	2400      	movs	r4, #0
1000244c:	e49f      	b.n	10001d8e <CAN_Send_Message+0x17a>
1000244e:	4642      	mov	r2, r8
10002450:	2a20      	cmp	r2, #32
10002452:	d100      	bne.n	10002456 <CAN_Send_Message+0x842>
10002454:	e212      	b.n	1000287c <CAN_Send_Message+0xc68>
10002456:	2720      	movs	r7, #32
10002458:	2220      	movs	r2, #32
1000245a:	2400      	movs	r4, #0
1000245c:	e68e      	b.n	1000217c <CAN_Send_Message+0x568>
1000245e:	2f1f      	cmp	r7, #31
10002460:	dc1a      	bgt.n	10002498 <CAN_Send_Message+0x884>
10002462:	4644      	mov	r4, r8
10002464:	4334      	orrs	r4, r6
10002466:	d11a      	bne.n	1000249e <CAN_Send_Message+0x88a>
10002468:	3701      	adds	r7, #1
1000246a:	2805      	cmp	r0, #5
1000246c:	d100      	bne.n	10002470 <CAN_Send_Message+0x85c>
1000246e:	e2dd      	b.n	10002a2c <CAN_Send_Message+0xe18>
10002470:	2100      	movs	r1, #0
10002472:	2600      	movs	r6, #0
10002474:	4688      	mov	r8, r1
10002476:	e4b7      	b.n	10001de8 <CAN_Send_Message+0x1d4>
10002478:	2f20      	cmp	r7, #32
1000247a:	d000      	beq.n	1000247e <CAN_Send_Message+0x86a>
1000247c:	e73a      	b.n	100022f4 <CAN_Send_Message+0x6e0>
1000247e:	4642      	mov	r2, r8
10002480:	2a1f      	cmp	r2, #31
10002482:	dd00      	ble.n	10002486 <CAN_Send_Message+0x872>
10002484:	e140      	b.n	10002708 <CAN_Send_Message+0xaf4>
10002486:	2e00      	cmp	r6, #0
10002488:	d100      	bne.n	1000248c <CAN_Send_Message+0x878>
1000248a:	e265      	b.n	10002958 <CAN_Send_Message+0xd44>
1000248c:	2c05      	cmp	r4, #5
1000248e:	d100      	bne.n	10002492 <CAN_Send_Message+0x87e>
10002490:	e271      	b.n	10002976 <CAN_Send_Message+0xd62>
10002492:	2220      	movs	r2, #32
10002494:	2000      	movs	r0, #0
10002496:	e4a7      	b.n	10001de8 <CAN_Send_Message+0x1d4>
10002498:	2f20      	cmp	r7, #32
1000249a:	d100      	bne.n	1000249e <CAN_Send_Message+0x88a>
1000249c:	e115      	b.n	100026ca <CAN_Send_Message+0xab6>
1000249e:	2805      	cmp	r0, #5
100024a0:	d000      	beq.n	100024a4 <CAN_Send_Message+0x890>
100024a2:	e4a0      	b.n	10001de6 <CAN_Send_Message+0x1d2>
100024a4:	2f1f      	cmp	r7, #31
100024a6:	dd00      	ble.n	100024aa <CAN_Send_Message+0x896>
100024a8:	e2d8      	b.n	10002a5c <CAN_Send_Message+0xe48>
100024aa:	4642      	mov	r2, r8
100024ac:	4332      	orrs	r2, r6
100024ae:	d100      	bne.n	100024b2 <CAN_Send_Message+0x89e>
100024b0:	e2bf      	b.n	10002a32 <CAN_Send_Message+0xe1e>
100024b2:	2400      	movs	r4, #0
100024b4:	2000      	movs	r0, #0
100024b6:	2220      	movs	r2, #32
100024b8:	e496      	b.n	10001de8 <CAN_Send_Message+0x1d4>
100024ba:	2a20      	cmp	r2, #32
100024bc:	d100      	bne.n	100024c0 <CAN_Send_Message+0x8ac>
100024be:	e0bf      	b.n	10002640 <CAN_Send_Message+0xa2c>
100024c0:	2805      	cmp	r0, #5
100024c2:	d000      	beq.n	100024c6 <CAN_Send_Message+0x8b2>
100024c4:	e436      	b.n	10001d34 <CAN_Send_Message+0x120>
100024c6:	2400      	movs	r4, #0
100024c8:	2000      	movs	r0, #0
100024ca:	2a20      	cmp	r2, #32
100024cc:	d000      	beq.n	100024d0 <CAN_Send_Message+0x8bc>
100024ce:	e432      	b.n	10001d36 <CAN_Send_Message+0x122>
100024d0:	2f1f      	cmp	r7, #31
100024d2:	dc00      	bgt.n	100024d6 <CAN_Send_Message+0x8c2>
100024d4:	e0cc      	b.n	10002670 <CAN_Send_Message+0xa5c>
100024d6:	0020      	movs	r0, r4
100024d8:	2f20      	cmp	r7, #32
100024da:	d001      	beq.n	100024e0 <CAN_Send_Message+0x8cc>
100024dc:	f7ff fc2b 	bl	10001d36 <CAN_Send_Message+0x122>
100024e0:	4654      	mov	r4, sl
100024e2:	2c1f      	cmp	r4, #31
100024e4:	dd01      	ble.n	100024ea <CAN_Send_Message+0x8d6>
100024e6:	f000 fc0d 	bl	10002d04 <CAN_Send_Message+0x10f0>
100024ea:	2e00      	cmp	r6, #0
100024ec:	d101      	bne.n	100024f2 <CAN_Send_Message+0x8de>
100024ee:	f000 fc78 	bl	10002de2 <CAN_Send_Message+0x11ce>
100024f2:	2400      	movs	r4, #0
100024f4:	2000      	movs	r0, #0
100024f6:	2720      	movs	r7, #32
100024f8:	2220      	movs	r2, #32
100024fa:	f7ff fc1c 	bl	10001d36 <CAN_Send_Message+0x122>
100024fe:	2a20      	cmp	r2, #32
10002500:	d100      	bne.n	10002504 <CAN_Send_Message+0x8f0>
10002502:	e0be      	b.n	10002682 <CAN_Send_Message+0xa6e>
10002504:	2c05      	cmp	r4, #5
10002506:	d000      	beq.n	1000250a <CAN_Send_Message+0x8f6>
10002508:	e758      	b.n	100023bc <CAN_Send_Message+0x7a8>
1000250a:	2a20      	cmp	r2, #32
1000250c:	d100      	bne.n	10002510 <CAN_Send_Message+0x8fc>
1000250e:	e0cc      	b.n	100026aa <CAN_Send_Message+0xa96>
10002510:	2400      	movs	r4, #0
10002512:	2000      	movs	r0, #0
10002514:	f7ff fc0f 	bl	10001d36 <CAN_Send_Message+0x122>
10002518:	2000      	movs	r0, #0
1000251a:	e437      	b.n	10001d8c <CAN_Send_Message+0x178>
1000251c:	221f      	movs	r2, #31
1000251e:	4661      	mov	r1, ip
10002520:	1bd2      	subs	r2, r2, r7
10002522:	4091      	lsls	r1, r2
10002524:	000a      	movs	r2, r1
10002526:	9902      	ldr	r1, [sp, #8]
10002528:	3701      	adds	r7, #1
1000252a:	4311      	orrs	r1, r2
1000252c:	2200      	movs	r2, #0
1000252e:	9102      	str	r1, [sp, #8]
10002530:	4690      	mov	r8, r2
10002532:	2600      	movs	r6, #0
10002534:	2400      	movs	r4, #0
10002536:	2000      	movs	r0, #0
10002538:	3220      	adds	r2, #32
1000253a:	f7ff fc28 	bl	10001d8e <CAN_Send_Message+0x17a>
1000253e:	2f20      	cmp	r7, #32
10002540:	d1ec      	bne.n	1000251c <CAN_Send_Message+0x908>
10002542:	221f      	movs	r2, #31
10002544:	4661      	mov	r1, ip
10002546:	1b12      	subs	r2, r2, r4
10002548:	4091      	lsls	r1, r2
1000254a:	000a      	movs	r2, r1
1000254c:	9904      	ldr	r1, [sp, #16]
1000254e:	2600      	movs	r6, #0
10002550:	4311      	orrs	r1, r2
10002552:	1c62      	adds	r2, r4, #1
10002554:	4690      	mov	r8, r2
10002556:	9104      	str	r1, [sp, #16]
10002558:	2400      	movs	r4, #0
1000255a:	2000      	movs	r0, #0
1000255c:	2720      	movs	r7, #32
1000255e:	2220      	movs	r2, #32
10002560:	f7ff fc15 	bl	10001d8e <CAN_Send_Message+0x17a>
10002564:	0006      	movs	r6, r0
10002566:	2400      	movs	r4, #0
10002568:	2000      	movs	r0, #0
1000256a:	e43d      	b.n	10001de8 <CAN_Send_Message+0x1d4>
1000256c:	0026      	movs	r6, r4
1000256e:	2000      	movs	r0, #0
10002570:	2400      	movs	r4, #0
10002572:	e439      	b.n	10001de8 <CAN_Send_Message+0x1d4>
10002574:	3201      	adds	r2, #1
10002576:	2805      	cmp	r0, #5
10002578:	d100      	bne.n	1000257c <CAN_Send_Message+0x968>
1000257a:	e189      	b.n	10002890 <CAN_Send_Message+0xc7c>
1000257c:	2600      	movs	r6, #0
1000257e:	f7ff fbda 	bl	10001d36 <CAN_Send_Message+0x122>
10002582:	9d00      	ldr	r5, [sp, #0]
10002584:	1aae      	subs	r6, r5, r2
10002586:	4645      	mov	r5, r8
10002588:	40b5      	lsls	r5, r6
1000258a:	002e      	movs	r6, r5
1000258c:	465d      	mov	r5, fp
1000258e:	4335      	orrs	r5, r6
10002590:	46ab      	mov	fp, r5
10002592:	3201      	adds	r2, #1
10002594:	2c05      	cmp	r4, #5
10002596:	d1f1      	bne.n	1000257c <CAN_Send_Message+0x968>
10002598:	2a1f      	cmp	r2, #31
1000259a:	dd01      	ble.n	100025a0 <CAN_Send_Message+0x98c>
1000259c:	f000 fc89 	bl	10002eb2 <CAN_Send_Message+0x129e>
100025a0:	4301      	orrs	r1, r0
100025a2:	1e0c      	subs	r4, r1, #0
100025a4:	d000      	beq.n	100025a8 <CAN_Send_Message+0x994>
100025a6:	e1a9      	b.n	100028fc <CAN_Send_Message+0xce8>
100025a8:	3201      	adds	r2, #1
100025aa:	2600      	movs	r6, #0
100025ac:	2000      	movs	r0, #0
100025ae:	f7ff fbc2 	bl	10001d36 <CAN_Send_Message+0x122>
100025b2:	2a20      	cmp	r2, #32
100025b4:	d100      	bne.n	100025b8 <CAN_Send_Message+0x9a4>
100025b6:	e10b      	b.n	100027d0 <CAN_Send_Message+0xbbc>
100025b8:	2c04      	cmp	r4, #4
100025ba:	d001      	beq.n	100025c0 <CAN_Send_Message+0x9ac>
100025bc:	f7ff fc27 	bl	10001e0e <CAN_Send_Message+0x1fa>
100025c0:	2a20      	cmp	r2, #32
100025c2:	d001      	beq.n	100025c8 <CAN_Send_Message+0x9b4>
100025c4:	f7ff fc23 	bl	10001e0e <CAN_Send_Message+0x1fa>
100025c8:	e10c      	b.n	100027e4 <CAN_Send_Message+0xbd0>
100025ca:	2a20      	cmp	r2, #32
100025cc:	d100      	bne.n	100025d0 <CAN_Send_Message+0x9bc>
100025ce:	e11e      	b.n	1000280e <CAN_Send_Message+0xbfa>
100025d0:	2b05      	cmp	r3, #5
100025d2:	d001      	beq.n	100025d8 <CAN_Send_Message+0x9c4>
100025d4:	f7ff fb68 	bl	10001ca8 <CAN_Send_Message+0x94>
100025d8:	2001      	movs	r0, #1
100025da:	2a20      	cmp	r2, #32
100025dc:	d100      	bne.n	100025e0 <CAN_Send_Message+0x9cc>
100025de:	e124      	b.n	1000282a <CAN_Send_Message+0xc16>
100025e0:	2a20      	cmp	r2, #32
100025e2:	d100      	bne.n	100025e6 <CAN_Send_Message+0x9d2>
100025e4:	e132      	b.n	1000284c <CAN_Send_Message+0xc38>
100025e6:	2805      	cmp	r0, #5
100025e8:	d001      	beq.n	100025ee <CAN_Send_Message+0x9da>
100025ea:	f7ff fb6f 	bl	10001ccc <CAN_Send_Message+0xb8>
100025ee:	2001      	movs	r0, #1
100025f0:	2a20      	cmp	r2, #32
100025f2:	d100      	bne.n	100025f6 <CAN_Send_Message+0x9e2>
100025f4:	e2a4      	b.n	10002b40 <CAN_Send_Message+0xf2c>
100025f6:	2a20      	cmp	r2, #32
100025f8:	d100      	bne.n	100025fc <CAN_Send_Message+0x9e8>
100025fa:	e134      	b.n	10002866 <CAN_Send_Message+0xc52>
100025fc:	2805      	cmp	r0, #5
100025fe:	d001      	beq.n	10002604 <CAN_Send_Message+0x9f0>
10002600:	f7ff fb76 	bl	10001cf0 <CAN_Send_Message+0xdc>
10002604:	2000      	movs	r0, #0
10002606:	2a20      	cmp	r2, #32
10002608:	d001      	beq.n	1000260e <CAN_Send_Message+0x9fa>
1000260a:	f7ff fb71 	bl	10001cf0 <CAN_Send_Message+0xdc>
1000260e:	2f1f      	cmp	r7, #31
10002610:	dd00      	ble.n	10002614 <CAN_Send_Message+0xa00>
10002612:	e2ed      	b.n	10002bf0 <CAN_Send_Message+0xfdc>
10002614:	0030      	movs	r0, r6
10002616:	4308      	orrs	r0, r1
10002618:	d000      	beq.n	1000261c <CAN_Send_Message+0xa08>
1000261a:	e2ec      	b.n	10002bf6 <CAN_Send_Message+0xfe2>
1000261c:	221f      	movs	r2, #31
1000261e:	2301      	movs	r3, #1
10002620:	1bd2      	subs	r2, r2, r7
10002622:	4093      	lsls	r3, r2
10002624:	9a02      	ldr	r2, [sp, #8]
10002626:	3701      	adds	r7, #1
10002628:	431a      	orrs	r2, r3
1000262a:	9202      	str	r2, [sp, #8]
1000262c:	2600      	movs	r6, #0
1000262e:	2100      	movs	r1, #0
10002630:	2220      	movs	r2, #32
10002632:	f7ff fb5d 	bl	10001cf0 <CAN_Send_Message+0xdc>
10002636:	2f20      	cmp	r7, #32
10002638:	d100      	bne.n	1000263c <CAN_Send_Message+0xa28>
1000263a:	e6ee      	b.n	1000241a <CAN_Send_Message+0x806>
1000263c:	2220      	movs	r2, #32
1000263e:	e70c      	b.n	1000245a <CAN_Send_Message+0x846>
10002640:	2f1f      	cmp	r7, #31
10002642:	dc0b      	bgt.n	1000265c <CAN_Send_Message+0xa48>
10002644:	4654      	mov	r4, sl
10002646:	4334      	orrs	r4, r6
10002648:	d10b      	bne.n	10002662 <CAN_Send_Message+0xa4e>
1000264a:	3701      	adds	r7, #1
1000264c:	2805      	cmp	r0, #5
1000264e:	d100      	bne.n	10002652 <CAN_Send_Message+0xa3e>
10002650:	e3c4      	b.n	10002ddc <CAN_Send_Message+0x11c8>
10002652:	2100      	movs	r1, #0
10002654:	2600      	movs	r6, #0
10002656:	468a      	mov	sl, r1
10002658:	f7ff fb6d 	bl	10001d36 <CAN_Send_Message+0x122>
1000265c:	2f20      	cmp	r7, #32
1000265e:	d100      	bne.n	10002662 <CAN_Send_Message+0xa4e>
10002660:	e16b      	b.n	1000293a <CAN_Send_Message+0xd26>
10002662:	2805      	cmp	r0, #5
10002664:	d001      	beq.n	1000266a <CAN_Send_Message+0xa56>
10002666:	f7ff fb65 	bl	10001d34 <CAN_Send_Message+0x120>
1000266a:	2f1f      	cmp	r7, #31
1000266c:	dd00      	ble.n	10002670 <CAN_Send_Message+0xa5c>
1000266e:	e370      	b.n	10002d52 <CAN_Send_Message+0x113e>
10002670:	4652      	mov	r2, sl
10002672:	4332      	orrs	r2, r6
10002674:	d100      	bne.n	10002678 <CAN_Send_Message+0xa64>
10002676:	e308      	b.n	10002c8a <CAN_Send_Message+0x1076>
10002678:	2400      	movs	r4, #0
1000267a:	2000      	movs	r0, #0
1000267c:	2220      	movs	r2, #32
1000267e:	f7ff fb5a 	bl	10001d36 <CAN_Send_Message+0x122>
10002682:	2f1f      	cmp	r7, #31
10002684:	dc5f      	bgt.n	10002746 <CAN_Send_Message+0xb32>
10002686:	4651      	mov	r1, sl
10002688:	4331      	orrs	r1, r6
1000268a:	d10b      	bne.n	100026a4 <CAN_Send_Message+0xa90>
1000268c:	4640      	mov	r0, r8
1000268e:	9900      	ldr	r1, [sp, #0]
10002690:	2600      	movs	r6, #0
10002692:	1bc9      	subs	r1, r1, r7
10002694:	4088      	lsls	r0, r1
10002696:	0001      	movs	r1, r0
10002698:	9802      	ldr	r0, [sp, #8]
1000269a:	3701      	adds	r7, #1
1000269c:	4308      	orrs	r0, r1
1000269e:	2100      	movs	r1, #0
100026a0:	468a      	mov	sl, r1
100026a2:	9002      	str	r0, [sp, #8]
100026a4:	2c05      	cmp	r4, #5
100026a6:	d000      	beq.n	100026aa <CAN_Send_Message+0xa96>
100026a8:	e688      	b.n	100023bc <CAN_Send_Message+0x7a8>
100026aa:	2f1f      	cmp	r7, #31
100026ac:	dd00      	ble.n	100026b0 <CAN_Send_Message+0xa9c>
100026ae:	e33f      	b.n	10002d30 <CAN_Send_Message+0x111c>
100026b0:	0030      	movs	r0, r6
100026b2:	4652      	mov	r2, sl
100026b4:	4310      	orrs	r0, r2
100026b6:	d000      	beq.n	100026ba <CAN_Send_Message+0xaa6>
100026b8:	e1cd      	b.n	10002a56 <CAN_Send_Message+0xe42>
100026ba:	2200      	movs	r2, #0
100026bc:	3701      	adds	r7, #1
100026be:	4692      	mov	sl, r2
100026c0:	2600      	movs	r6, #0
100026c2:	2400      	movs	r4, #0
100026c4:	3220      	adds	r2, #32
100026c6:	f7ff fb36 	bl	10001d36 <CAN_Send_Message+0x122>
100026ca:	4642      	mov	r2, r8
100026cc:	2a1f      	cmp	r2, #31
100026ce:	dc2c      	bgt.n	1000272a <CAN_Send_Message+0xb16>
100026d0:	4272      	negs	r2, r6
100026d2:	4172      	adcs	r2, r6
100026d4:	4490      	add	r8, r2
100026d6:	2805      	cmp	r0, #5
100026d8:	d100      	bne.n	100026dc <CAN_Send_Message+0xac8>
100026da:	e634      	b.n	10002346 <CAN_Send_Message+0x732>
100026dc:	2220      	movs	r2, #32
100026de:	2400      	movs	r4, #0
100026e0:	f7ff fb82 	bl	10001de8 <CAN_Send_Message+0x1d4>
100026e4:	4642      	mov	r2, r8
100026e6:	2a20      	cmp	r2, #32
100026e8:	d100      	bne.n	100026ec <CAN_Send_Message+0xad8>
100026ea:	e0e7      	b.n	100028bc <CAN_Send_Message+0xca8>
100026ec:	2400      	movs	r4, #0
100026ee:	2000      	movs	r0, #0
100026f0:	2720      	movs	r7, #32
100026f2:	2220      	movs	r2, #32
100026f4:	f7ff fb4b 	bl	10001d8e <CAN_Send_Message+0x17a>
100026f8:	2805      	cmp	r0, #5
100026fa:	d100      	bne.n	100026fe <CAN_Send_Message+0xaea>
100026fc:	e0de      	b.n	100028bc <CAN_Send_Message+0xca8>
100026fe:	4647      	mov	r7, r8
10002700:	4642      	mov	r2, r8
10002702:	2400      	movs	r4, #0
10002704:	f7ff fb43 	bl	10001d8e <CAN_Send_Message+0x17a>
10002708:	4642      	mov	r2, r8
1000270a:	2a20      	cmp	r2, #32
1000270c:	d000      	beq.n	10002710 <CAN_Send_Message+0xafc>
1000270e:	e6bd      	b.n	1000248c <CAN_Send_Message+0x878>
10002710:	2e1f      	cmp	r6, #31
10002712:	dd00      	ble.n	10002716 <CAN_Send_Message+0xb02>
10002714:	e6ba      	b.n	1000248c <CAN_Send_Message+0x878>
10002716:	4652      	mov	r2, sl
10002718:	4661      	mov	r1, ip
1000271a:	1b92      	subs	r2, r2, r6
1000271c:	4091      	lsls	r1, r2
1000271e:	000a      	movs	r2, r1
10002720:	9905      	ldr	r1, [sp, #20]
10002722:	3601      	adds	r6, #1
10002724:	4311      	orrs	r1, r2
10002726:	9105      	str	r1, [sp, #20]
10002728:	e6b0      	b.n	1000248c <CAN_Send_Message+0x878>
1000272a:	4642      	mov	r2, r8
1000272c:	2a20      	cmp	r2, #32
1000272e:	d1d2      	bne.n	100026d6 <CAN_Send_Message+0xac2>
10002730:	2e1f      	cmp	r6, #31
10002732:	dd00      	ble.n	10002736 <CAN_Send_Message+0xb22>
10002734:	e232      	b.n	10002b9c <CAN_Send_Message+0xf88>
10002736:	3601      	adds	r6, #1
10002738:	2805      	cmp	r0, #5
1000273a:	d100      	bne.n	1000273e <CAN_Send_Message+0xb2a>
1000273c:	e2b6      	b.n	10002cac <CAN_Send_Message+0x1098>
1000273e:	4647      	mov	r7, r8
10002740:	2400      	movs	r4, #0
10002742:	f7ff fb51 	bl	10001de8 <CAN_Send_Message+0x1d4>
10002746:	2f20      	cmp	r7, #32
10002748:	d1ac      	bne.n	100026a4 <CAN_Send_Message+0xa90>
1000274a:	4650      	mov	r0, sl
1000274c:	281f      	cmp	r0, #31
1000274e:	dd00      	ble.n	10002752 <CAN_Send_Message+0xb3e>
10002750:	e18b      	b.n	10002a6a <CAN_Send_Message+0xe56>
10002752:	2e00      	cmp	r6, #0
10002754:	d100      	bne.n	10002758 <CAN_Send_Message+0xb44>
10002756:	e273      	b.n	10002c40 <CAN_Send_Message+0x102c>
10002758:	2c05      	cmp	r4, #5
1000275a:	d100      	bne.n	1000275e <CAN_Send_Message+0xb4a>
1000275c:	e2eb      	b.n	10002d36 <CAN_Send_Message+0x1122>
1000275e:	2220      	movs	r2, #32
10002760:	2000      	movs	r0, #0
10002762:	f7ff fae8 	bl	10001d36 <CAN_Send_Message+0x122>
10002766:	2805      	cmp	r0, #5
10002768:	d001      	beq.n	1000276e <CAN_Send_Message+0xb5a>
1000276a:	f7ff fac1 	bl	10001cf0 <CAN_Send_Message+0xdc>
1000276e:	0034      	movs	r4, r6
10002770:	4323      	orrs	r3, r4
10002772:	1e18      	subs	r0, r3, #0
10002774:	d000      	beq.n	10002778 <CAN_Send_Message+0xb64>
10002776:	e1d3      	b.n	10002b20 <CAN_Send_Message+0xf0c>
10002778:	241f      	movs	r4, #31
1000277a:	2301      	movs	r3, #1
1000277c:	1aa4      	subs	r4, r4, r2
1000277e:	40a3      	lsls	r3, r4
10002780:	465c      	mov	r4, fp
10002782:	431c      	orrs	r4, r3
10002784:	46a3      	mov	fp, r4
10002786:	3201      	adds	r2, #1
10002788:	f7ff fab1 	bl	10001cee <CAN_Send_Message+0xda>
1000278c:	2805      	cmp	r0, #5
1000278e:	d001      	beq.n	10002794 <CAN_Send_Message+0xb80>
10002790:	f7ff fa9c 	bl	10001ccc <CAN_Send_Message+0xb8>
10002794:	0018      	movs	r0, r3
10002796:	4330      	orrs	r0, r6
10002798:	d000      	beq.n	1000279c <CAN_Send_Message+0xb88>
1000279a:	e1b0      	b.n	10002afe <CAN_Send_Message+0xeea>
1000279c:	2301      	movs	r3, #1
1000279e:	301f      	adds	r0, #31
100027a0:	1a80      	subs	r0, r0, r2
100027a2:	4083      	lsls	r3, r0
100027a4:	4658      	mov	r0, fp
100027a6:	4318      	orrs	r0, r3
100027a8:	4683      	mov	fp, r0
100027aa:	3201      	adds	r2, #1
100027ac:	2600      	movs	r6, #0
100027ae:	2001      	movs	r0, #1
100027b0:	f7ff fa8d 	bl	10001cce <CAN_Send_Message+0xba>
100027b4:	251f      	movs	r5, #31
100027b6:	2001      	movs	r0, #1
100027b8:	1aad      	subs	r5, r5, r2
100027ba:	40a8      	lsls	r0, r5
100027bc:	465d      	mov	r5, fp
100027be:	4305      	orrs	r5, r0
100027c0:	46ab      	mov	fp, r5
100027c2:	3201      	adds	r2, #1
100027c4:	2c04      	cmp	r4, #4
100027c6:	d100      	bne.n	100027ca <CAN_Send_Message+0xbb6>
100027c8:	e10d      	b.n	100029e6 <CAN_Send_Message+0xdd2>
100027ca:	2600      	movs	r6, #0
100027cc:	f7ff fb1f 	bl	10001e0e <CAN_Send_Message+0x1fa>
100027d0:	2f1f      	cmp	r7, #31
100027d2:	dc00      	bgt.n	100027d6 <CAN_Send_Message+0xbc2>
100027d4:	e09b      	b.n	1000290e <CAN_Send_Message+0xcfa>
100027d6:	2f20      	cmp	r7, #32
100027d8:	d100      	bne.n	100027dc <CAN_Send_Message+0xbc8>
100027da:	e1e7      	b.n	10002bac <CAN_Send_Message+0xf98>
100027dc:	2c04      	cmp	r4, #4
100027de:	d001      	beq.n	100027e4 <CAN_Send_Message+0xbd0>
100027e0:	f7ff fb15 	bl	10001e0e <CAN_Send_Message+0x1fa>
100027e4:	2220      	movs	r2, #32
100027e6:	2f1f      	cmp	r7, #31
100027e8:	dd00      	ble.n	100027ec <CAN_Send_Message+0xbd8>
100027ea:	e271      	b.n	10002cd0 <CAN_Send_Message+0x10bc>
100027ec:	0033      	movs	r3, r6
100027ee:	430b      	orrs	r3, r1
100027f0:	d001      	beq.n	100027f6 <CAN_Send_Message+0xbe2>
100027f2:	f7ff fb0c 	bl	10001e0e <CAN_Send_Message+0x1fa>
100027f6:	211f      	movs	r1, #31
100027f8:	3301      	adds	r3, #1
100027fa:	1bc9      	subs	r1, r1, r7
100027fc:	408b      	lsls	r3, r1
100027fe:	9902      	ldr	r1, [sp, #8]
10002800:	3701      	adds	r7, #1
10002802:	4319      	orrs	r1, r3
10002804:	9102      	str	r1, [sp, #8]
10002806:	2600      	movs	r6, #0
10002808:	2100      	movs	r1, #0
1000280a:	f7ff fb00 	bl	10001e0e <CAN_Send_Message+0x1fa>
1000280e:	2f1f      	cmp	r7, #31
10002810:	dc06      	bgt.n	10002820 <CAN_Send_Message+0xc0c>
10002812:	4642      	mov	r2, r8
10002814:	4332      	orrs	r2, r6
10002816:	d106      	bne.n	10002826 <CAN_Send_Message+0xc12>
10002818:	3701      	adds	r7, #1
1000281a:	2600      	movs	r6, #0
1000281c:	2100      	movs	r1, #0
1000281e:	e002      	b.n	10002826 <CAN_Send_Message+0xc12>
10002820:	2f20      	cmp	r7, #32
10002822:	d100      	bne.n	10002826 <CAN_Send_Message+0xc12>
10002824:	e19d      	b.n	10002b62 <CAN_Send_Message+0xf4e>
10002826:	2b05      	cmp	r3, #5
10002828:	d16d      	bne.n	10002906 <CAN_Send_Message+0xcf2>
1000282a:	2f1f      	cmp	r7, #31
1000282c:	dd00      	ble.n	10002830 <CAN_Send_Message+0xc1c>
1000282e:	e2a2      	b.n	10002d76 <CAN_Send_Message+0x1162>
10002830:	0033      	movs	r3, r6
10002832:	430b      	orrs	r3, r1
10002834:	d109      	bne.n	1000284a <CAN_Send_Message+0xc36>
10002836:	221f      	movs	r2, #31
10002838:	3301      	adds	r3, #1
1000283a:	1bd2      	subs	r2, r2, r7
1000283c:	4093      	lsls	r3, r2
1000283e:	2600      	movs	r6, #0
10002840:	2100      	movs	r1, #0
10002842:	9a02      	ldr	r2, [sp, #8]
10002844:	3701      	adds	r7, #1
10002846:	431a      	orrs	r2, r3
10002848:	9202      	str	r2, [sp, #8]
1000284a:	2001      	movs	r0, #1
1000284c:	2f1f      	cmp	r7, #31
1000284e:	dd00      	ble.n	10002852 <CAN_Send_Message+0xc3e>
10002850:	e0a1      	b.n	10002996 <CAN_Send_Message+0xd82>
10002852:	0033      	movs	r3, r6
10002854:	430b      	orrs	r3, r1
10002856:	d102      	bne.n	1000285e <CAN_Send_Message+0xc4a>
10002858:	2600      	movs	r6, #0
1000285a:	2100      	movs	r1, #0
1000285c:	3701      	adds	r7, #1
1000285e:	2805      	cmp	r0, #5
10002860:	d100      	bne.n	10002864 <CAN_Send_Message+0xc50>
10002862:	e16d      	b.n	10002b40 <CAN_Send_Message+0xf2c>
10002864:	3001      	adds	r0, #1
10002866:	2f1f      	cmp	r7, #31
10002868:	dd60      	ble.n	1000292c <CAN_Send_Message+0xd18>
1000286a:	2f20      	cmp	r7, #32
1000286c:	d100      	bne.n	10002870 <CAN_Send_Message+0xc5c>
1000286e:	e15b      	b.n	10002b28 <CAN_Send_Message+0xf14>
10002870:	2805      	cmp	r0, #5
10002872:	d100      	bne.n	10002876 <CAN_Send_Message+0xc62>
10002874:	e6cb      	b.n	1000260e <CAN_Send_Message+0x9fa>
10002876:	2220      	movs	r2, #32
10002878:	f7ff fa3a 	bl	10001cf0 <CAN_Send_Message+0xdc>
1000287c:	2e1f      	cmp	r6, #31
1000287e:	dd00      	ble.n	10002882 <CAN_Send_Message+0xc6e>
10002880:	e5e9      	b.n	10002456 <CAN_Send_Message+0x842>
10002882:	3601      	adds	r6, #1
10002884:	2720      	movs	r7, #32
10002886:	2220      	movs	r2, #32
10002888:	2400      	movs	r4, #0
1000288a:	2000      	movs	r0, #0
1000288c:	f7ff fa7f 	bl	10001d8e <CAN_Send_Message+0x17a>
10002890:	2a1f      	cmp	r2, #31
10002892:	dd00      	ble.n	10002896 <CAN_Send_Message+0xc82>
10002894:	e31e      	b.n	10002ed4 <CAN_Send_Message+0x12c0>
10002896:	4321      	orrs	r1, r4
10002898:	1e08      	subs	r0, r1, #0
1000289a:	d125      	bne.n	100028e8 <CAN_Send_Message+0xcd4>
1000289c:	4644      	mov	r4, r8
1000289e:	9900      	ldr	r1, [sp, #0]
100028a0:	2600      	movs	r6, #0
100028a2:	1a89      	subs	r1, r1, r2
100028a4:	408c      	lsls	r4, r1
100028a6:	0021      	movs	r1, r4
100028a8:	465c      	mov	r4, fp
100028aa:	430c      	orrs	r4, r1
100028ac:	46a3      	mov	fp, r4
100028ae:	3201      	adds	r2, #1
100028b0:	2400      	movs	r4, #0
100028b2:	f7ff fa40 	bl	10001d36 <CAN_Send_Message+0x122>
100028b6:	2220      	movs	r2, #32
100028b8:	f7ff fabd 	bl	10001e36 <CAN_Send_Message+0x222>
100028bc:	2e1f      	cmp	r6, #31
100028be:	dc08      	bgt.n	100028d2 <CAN_Send_Message+0xcbe>
100028c0:	221f      	movs	r2, #31
100028c2:	4661      	mov	r1, ip
100028c4:	1b92      	subs	r2, r2, r6
100028c6:	4091      	lsls	r1, r2
100028c8:	000a      	movs	r2, r1
100028ca:	9905      	ldr	r1, [sp, #20]
100028cc:	3601      	adds	r6, #1
100028ce:	4311      	orrs	r1, r2
100028d0:	9105      	str	r1, [sp, #20]
100028d2:	2220      	movs	r2, #32
100028d4:	2400      	movs	r4, #0
100028d6:	2000      	movs	r0, #0
100028d8:	4690      	mov	r8, r2
100028da:	2720      	movs	r7, #32
100028dc:	f7ff fa57 	bl	10001d8e <CAN_Send_Message+0x17a>
100028e0:	0034      	movs	r4, r6
100028e2:	4321      	orrs	r1, r4
100028e4:	1e08      	subs	r0, r1, #0
100028e6:	d0d9      	beq.n	1000289c <CAN_Send_Message+0xc88>
100028e8:	0026      	movs	r6, r4
100028ea:	2000      	movs	r0, #0
100028ec:	2400      	movs	r4, #0
100028ee:	f7ff fa22 	bl	10001d36 <CAN_Send_Message+0x122>
100028f2:	0030      	movs	r0, r6
100028f4:	4301      	orrs	r1, r0
100028f6:	1e0c      	subs	r4, r1, #0
100028f8:	d100      	bne.n	100028fc <CAN_Send_Message+0xce8>
100028fa:	e655      	b.n	100025a8 <CAN_Send_Message+0x994>
100028fc:	0006      	movs	r6, r0
100028fe:	2400      	movs	r4, #0
10002900:	2000      	movs	r0, #0
10002902:	f7ff fa18 	bl	10001d36 <CAN_Send_Message+0x122>
10002906:	3002      	adds	r0, #2
10002908:	2f1f      	cmp	r7, #31
1000290a:	dda2      	ble.n	10002852 <CAN_Send_Message+0xc3e>
1000290c:	e043      	b.n	10002996 <CAN_Send_Message+0xd82>
1000290e:	4643      	mov	r3, r8
10002910:	4333      	orrs	r3, r6
10002912:	d000      	beq.n	10002916 <CAN_Send_Message+0xd02>
10002914:	e762      	b.n	100027dc <CAN_Send_Message+0xbc8>
10002916:	211f      	movs	r1, #31
10002918:	3301      	adds	r3, #1
1000291a:	1bc9      	subs	r1, r1, r7
1000291c:	408b      	lsls	r3, r1
1000291e:	9902      	ldr	r1, [sp, #8]
10002920:	3701      	adds	r7, #1
10002922:	4319      	orrs	r1, r3
10002924:	9102      	str	r1, [sp, #8]
10002926:	2600      	movs	r6, #0
10002928:	2100      	movs	r1, #0
1000292a:	e757      	b.n	100027dc <CAN_Send_Message+0xbc8>
1000292c:	0033      	movs	r3, r6
1000292e:	430b      	orrs	r3, r1
10002930:	d19e      	bne.n	10002870 <CAN_Send_Message+0xc5c>
10002932:	3701      	adds	r7, #1
10002934:	2600      	movs	r6, #0
10002936:	2100      	movs	r1, #0
10002938:	e79a      	b.n	10002870 <CAN_Send_Message+0xc5c>
1000293a:	4654      	mov	r4, sl
1000293c:	2c1f      	cmp	r4, #31
1000293e:	dd00      	ble.n	10002942 <CAN_Send_Message+0xd2e>
10002940:	e0a3      	b.n	10002a8a <CAN_Send_Message+0xe76>
10002942:	4272      	negs	r2, r6
10002944:	4172      	adcs	r2, r6
10002946:	46a2      	mov	sl, r4
10002948:	4492      	add	sl, r2
1000294a:	2805      	cmp	r0, #5
1000294c:	d100      	bne.n	10002950 <CAN_Send_Message+0xd3c>
1000294e:	e5c7      	b.n	100024e0 <CAN_Send_Message+0x8cc>
10002950:	2220      	movs	r2, #32
10002952:	2400      	movs	r4, #0
10002954:	f7ff f9ef 	bl	10001d36 <CAN_Send_Message+0x122>
10002958:	4641      	mov	r1, r8
1000295a:	4652      	mov	r2, sl
1000295c:	1a52      	subs	r2, r2, r1
1000295e:	4661      	mov	r1, ip
10002960:	4091      	lsls	r1, r2
10002962:	000a      	movs	r2, r1
10002964:	9904      	ldr	r1, [sp, #16]
10002966:	4311      	orrs	r1, r2
10002968:	2201      	movs	r2, #1
1000296a:	4691      	mov	r9, r2
1000296c:	9104      	str	r1, [sp, #16]
1000296e:	44c8      	add	r8, r9
10002970:	2c05      	cmp	r4, #5
10002972:	d000      	beq.n	10002976 <CAN_Send_Message+0xd62>
10002974:	e58d      	b.n	10002492 <CAN_Send_Message+0x87e>
10002976:	4642      	mov	r2, r8
10002978:	2a1f      	cmp	r2, #31
1000297a:	dd00      	ble.n	1000297e <CAN_Send_Message+0xd6a>
1000297c:	e4c9      	b.n	10002312 <CAN_Send_Message+0x6fe>
1000297e:	2e00      	cmp	r6, #0
10002980:	d000      	beq.n	10002984 <CAN_Send_Message+0xd70>
10002982:	e4cb      	b.n	1000231c <CAN_Send_Message+0x708>
10002984:	2201      	movs	r2, #1
10002986:	4691      	mov	r9, r2
10002988:	2400      	movs	r4, #0
1000298a:	44c8      	add	r8, r9
1000298c:	2000      	movs	r0, #0
1000298e:	2720      	movs	r7, #32
10002990:	321f      	adds	r2, #31
10002992:	f7ff fa29 	bl	10001de8 <CAN_Send_Message+0x1d4>
10002996:	2f20      	cmp	r7, #32
10002998:	d000      	beq.n	1000299c <CAN_Send_Message+0xd88>
1000299a:	e760      	b.n	1000285e <CAN_Send_Message+0xc4a>
1000299c:	2720      	movs	r7, #32
1000299e:	291f      	cmp	r1, #31
100029a0:	dc00      	bgt.n	100029a4 <CAN_Send_Message+0xd90>
100029a2:	e149      	b.n	10002c38 <CAN_Send_Message+0x1024>
100029a4:	2920      	cmp	r1, #32
100029a6:	d000      	beq.n	100029aa <CAN_Send_Message+0xd96>
100029a8:	e759      	b.n	1000285e <CAN_Send_Message+0xc4a>
100029aa:	2e1f      	cmp	r6, #31
100029ac:	dd00      	ble.n	100029b0 <CAN_Send_Message+0xd9c>
100029ae:	e756      	b.n	1000285e <CAN_Send_Message+0xc4a>
100029b0:	3601      	adds	r6, #1
100029b2:	000f      	movs	r7, r1
100029b4:	e753      	b.n	1000285e <CAN_Send_Message+0xc4a>
100029b6:	2000      	movs	r0, #0
100029b8:	2400      	movs	r4, #0
100029ba:	f7ff f960 	bl	10001c7e <CAN_Send_Message+0x6a>
100029be:	2a1f      	cmp	r2, #31
100029c0:	dd00      	ble.n	100029c4 <CAN_Send_Message+0xdb0>
100029c2:	e273      	b.n	10002eac <CAN_Send_Message+0x1298>
100029c4:	003b      	movs	r3, r7
100029c6:	430b      	orrs	r3, r1
100029c8:	001e      	movs	r6, r3
100029ca:	4326      	orrs	r6, r4
100029cc:	d000      	beq.n	100029d0 <CAN_Send_Message+0xdbc>
100029ce:	e0a3      	b.n	10002b18 <CAN_Send_Message+0xf04>
100029d0:	201f      	movs	r0, #31
100029d2:	2301      	movs	r3, #1
100029d4:	1a80      	subs	r0, r0, r2
100029d6:	4083      	lsls	r3, r0
100029d8:	4658      	mov	r0, fp
100029da:	4318      	orrs	r0, r3
100029dc:	4683      	mov	fp, r0
100029de:	3201      	adds	r2, #1
100029e0:	2001      	movs	r0, #1
100029e2:	f7ff f962 	bl	10001caa <CAN_Send_Message+0x96>
100029e6:	2a1f      	cmp	r2, #31
100029e8:	dd00      	ble.n	100029ec <CAN_Send_Message+0xdd8>
100029ea:	e270      	b.n	10002ece <CAN_Send_Message+0x12ba>
100029ec:	003e      	movs	r6, r7
100029ee:	430e      	orrs	r6, r1
100029f0:	431e      	orrs	r6, r3
100029f2:	d000      	beq.n	100029f6 <CAN_Send_Message+0xde2>
100029f4:	e080      	b.n	10002af8 <CAN_Send_Message+0xee4>
100029f6:	201f      	movs	r0, #31
100029f8:	2301      	movs	r3, #1
100029fa:	1a80      	subs	r0, r0, r2
100029fc:	4083      	lsls	r3, r0
100029fe:	4658      	mov	r0, fp
10002a00:	4318      	orrs	r0, r3
10002a02:	4683      	mov	fp, r0
10002a04:	3201      	adds	r2, #1
10002a06:	f7ff fa02 	bl	10001e0e <CAN_Send_Message+0x1fa>
10002a0a:	2a1f      	cmp	r2, #31
10002a0c:	dc00      	bgt.n	10002a10 <CAN_Send_Message+0xdfc>
10002a0e:	e6c1      	b.n	10002794 <CAN_Send_Message+0xb80>
10002a10:	e5ed      	b.n	100025ee <CAN_Send_Message+0x9da>
10002a12:	2a1f      	cmp	r2, #31
10002a14:	dc00      	bgt.n	10002a18 <CAN_Send_Message+0xe04>
10002a16:	e6ab      	b.n	10002770 <CAN_Send_Message+0xb5c>
10002a18:	2600      	movs	r6, #0
10002a1a:	e5f3      	b.n	10002604 <CAN_Send_Message+0x9f0>
10002a1c:	2f20      	cmp	r7, #32
10002a1e:	d042      	beq.n	10002aa6 <CAN_Send_Message+0xe92>
10002a20:	2220      	movs	r2, #32
10002a22:	2400      	movs	r4, #0
10002a24:	f7ff fa44 	bl	10001eb0 <CAN_Send_Message+0x29c>
10002a28:	0033      	movs	r3, r6
10002a2a:	e7df      	b.n	100029ec <CAN_Send_Message+0xdd8>
10002a2c:	2f20      	cmp	r7, #32
10002a2e:	d100      	bne.n	10002a32 <CAN_Send_Message+0xe1e>
10002a30:	e164      	b.n	10002cfc <CAN_Send_Message+0x10e8>
10002a32:	4652      	mov	r2, sl
10002a34:	4661      	mov	r1, ip
10002a36:	1bd2      	subs	r2, r2, r7
10002a38:	4091      	lsls	r1, r2
10002a3a:	000a      	movs	r2, r1
10002a3c:	9902      	ldr	r1, [sp, #8]
10002a3e:	3701      	adds	r7, #1
10002a40:	4311      	orrs	r1, r2
10002a42:	2200      	movs	r2, #0
10002a44:	9102      	str	r1, [sp, #8]
10002a46:	4690      	mov	r8, r2
10002a48:	2600      	movs	r6, #0
10002a4a:	2400      	movs	r4, #0
10002a4c:	2000      	movs	r0, #0
10002a4e:	3220      	adds	r2, #32
10002a50:	f7ff f9ca 	bl	10001de8 <CAN_Send_Message+0x1d4>
10002a54:	2720      	movs	r7, #32
10002a56:	2220      	movs	r2, #32
10002a58:	2400      	movs	r4, #0
10002a5a:	e55a      	b.n	10002512 <CAN_Send_Message+0x8fe>
10002a5c:	2000      	movs	r0, #0
10002a5e:	f7ff f9c2 	bl	10001de6 <CAN_Send_Message+0x1d2>
10002a62:	2f20      	cmp	r7, #32
10002a64:	d087      	beq.n	10002976 <CAN_Send_Message+0xd62>
10002a66:	2220      	movs	r2, #32
10002a68:	e45a      	b.n	10002320 <CAN_Send_Message+0x70c>
10002a6a:	2820      	cmp	r0, #32
10002a6c:	d000      	beq.n	10002a70 <CAN_Send_Message+0xe5c>
10002a6e:	e673      	b.n	10002758 <CAN_Send_Message+0xb44>
10002a70:	2e1f      	cmp	r6, #31
10002a72:	dd00      	ble.n	10002a76 <CAN_Send_Message+0xe62>
10002a74:	e670      	b.n	10002758 <CAN_Send_Message+0xb44>
10002a76:	4641      	mov	r1, r8
10002a78:	9a00      	ldr	r2, [sp, #0]
10002a7a:	1b92      	subs	r2, r2, r6
10002a7c:	4091      	lsls	r1, r2
10002a7e:	000a      	movs	r2, r1
10002a80:	9905      	ldr	r1, [sp, #20]
10002a82:	3601      	adds	r6, #1
10002a84:	4311      	orrs	r1, r2
10002a86:	9105      	str	r1, [sp, #20]
10002a88:	e666      	b.n	10002758 <CAN_Send_Message+0xb44>
10002a8a:	4652      	mov	r2, sl
10002a8c:	2c20      	cmp	r4, #32
10002a8e:	d000      	beq.n	10002a92 <CAN_Send_Message+0xe7e>
10002a90:	e75b      	b.n	1000294a <CAN_Send_Message+0xd36>
10002a92:	2e1f      	cmp	r6, #31
10002a94:	dd00      	ble.n	10002a98 <CAN_Send_Message+0xe84>
10002a96:	e1b5      	b.n	10002e04 <CAN_Send_Message+0x11f0>
10002a98:	3601      	adds	r6, #1
10002a9a:	2805      	cmp	r0, #5
10002a9c:	d100      	bne.n	10002aa0 <CAN_Send_Message+0xe8c>
10002a9e:	e135      	b.n	10002d0c <CAN_Send_Message+0x10f8>
10002aa0:	0017      	movs	r7, r2
10002aa2:	f7ff f947 	bl	10001d34 <CAN_Send_Message+0x120>
10002aa6:	4642      	mov	r2, r8
10002aa8:	2a1f      	cmp	r2, #31
10002aaa:	dc0a      	bgt.n	10002ac2 <CAN_Send_Message+0xeae>
10002aac:	2e00      	cmp	r6, #0
10002aae:	d10c      	bne.n	10002aca <CAN_Send_Message+0xeb6>
10002ab0:	2201      	movs	r2, #1
10002ab2:	4691      	mov	r9, r2
10002ab4:	2400      	movs	r4, #0
10002ab6:	44c8      	add	r8, r9
10002ab8:	2000      	movs	r0, #0
10002aba:	2720      	movs	r7, #32
10002abc:	321f      	adds	r2, #31
10002abe:	f7ff f8de 	bl	10001c7e <CAN_Send_Message+0x6a>
10002ac2:	4642      	mov	r2, r8
10002ac4:	2a20      	cmp	r2, #32
10002ac6:	d100      	bne.n	10002aca <CAN_Send_Message+0xeb6>
10002ac8:	e0c6      	b.n	10002c58 <CAN_Send_Message+0x1044>
10002aca:	2720      	movs	r7, #32
10002acc:	2220      	movs	r2, #32
10002ace:	e7a8      	b.n	10002a22 <CAN_Send_Message+0xe0e>
10002ad0:	2f20      	cmp	r7, #32
10002ad2:	d100      	bne.n	10002ad6 <CAN_Send_Message+0xec2>
10002ad4:	e165      	b.n	10002da2 <CAN_Send_Message+0x118e>
10002ad6:	4652      	mov	r2, sl
10002ad8:	4661      	mov	r1, ip
10002ada:	1bd2      	subs	r2, r2, r7
10002adc:	4091      	lsls	r1, r2
10002ade:	000a      	movs	r2, r1
10002ae0:	9902      	ldr	r1, [sp, #8]
10002ae2:	3701      	adds	r7, #1
10002ae4:	4311      	orrs	r1, r2
10002ae6:	2200      	movs	r2, #0
10002ae8:	9102      	str	r1, [sp, #8]
10002aea:	4690      	mov	r8, r2
10002aec:	2600      	movs	r6, #0
10002aee:	2400      	movs	r4, #0
10002af0:	2000      	movs	r0, #0
10002af2:	3220      	adds	r2, #32
10002af4:	f7ff f8c3 	bl	10001c7e <CAN_Send_Message+0x6a>
10002af8:	001e      	movs	r6, r3
10002afa:	f7ff f988 	bl	10001e0e <CAN_Send_Message+0x1fa>
10002afe:	2001      	movs	r0, #1
10002b00:	f7ff f8eb 	bl	10001cda <CAN_Send_Message+0xc6>
10002b04:	4642      	mov	r2, r8
10002b06:	2a20      	cmp	r2, #32
10002b08:	d100      	bne.n	10002b0c <CAN_Send_Message+0xef8>
10002b0a:	e0cf      	b.n	10002cac <CAN_Send_Message+0x1098>
10002b0c:	2400      	movs	r4, #0
10002b0e:	2000      	movs	r0, #0
10002b10:	2720      	movs	r7, #32
10002b12:	2220      	movs	r2, #32
10002b14:	f7ff f968 	bl	10001de8 <CAN_Send_Message+0x1d4>
10002b18:	0026      	movs	r6, r4
10002b1a:	2001      	movs	r0, #1
10002b1c:	f7ff f8cb 	bl	10001cb6 <CAN_Send_Message+0xa2>
10002b20:	0026      	movs	r6, r4
10002b22:	2000      	movs	r0, #0
10002b24:	f7ff f8e4 	bl	10001cf0 <CAN_Send_Message+0xdc>
10002b28:	291f      	cmp	r1, #31
10002b2a:	dc00      	bgt.n	10002b2e <CAN_Send_Message+0xf1a>
10002b2c:	e080      	b.n	10002c30 <CAN_Send_Message+0x101c>
10002b2e:	2920      	cmp	r1, #32
10002b30:	d000      	beq.n	10002b34 <CAN_Send_Message+0xf20>
10002b32:	e69d      	b.n	10002870 <CAN_Send_Message+0xc5c>
10002b34:	000f      	movs	r7, r1
10002b36:	2e1f      	cmp	r6, #31
10002b38:	dd00      	ble.n	10002b3c <CAN_Send_Message+0xf28>
10002b3a:	e699      	b.n	10002870 <CAN_Send_Message+0xc5c>
10002b3c:	3601      	adds	r6, #1
10002b3e:	e697      	b.n	10002870 <CAN_Send_Message+0xc5c>
10002b40:	2f1f      	cmp	r7, #31
10002b42:	dc64      	bgt.n	10002c0e <CAN_Send_Message+0xffa>
10002b44:	0033      	movs	r3, r6
10002b46:	430b      	orrs	r3, r1
10002b48:	d109      	bne.n	10002b5e <CAN_Send_Message+0xf4a>
10002b4a:	221f      	movs	r2, #31
10002b4c:	3301      	adds	r3, #1
10002b4e:	1bd2      	subs	r2, r2, r7
10002b50:	4093      	lsls	r3, r2
10002b52:	2600      	movs	r6, #0
10002b54:	2100      	movs	r1, #0
10002b56:	9a02      	ldr	r2, [sp, #8]
10002b58:	3701      	adds	r7, #1
10002b5a:	431a      	orrs	r2, r3
10002b5c:	9202      	str	r2, [sp, #8]
10002b5e:	2001      	movs	r0, #1
10002b60:	e681      	b.n	10002866 <CAN_Send_Message+0xc52>
10002b62:	291f      	cmp	r1, #31
10002b64:	dc00      	bgt.n	10002b68 <CAN_Send_Message+0xf54>
10002b66:	e081      	b.n	10002c6c <CAN_Send_Message+0x1058>
10002b68:	2920      	cmp	r1, #32
10002b6a:	d105      	bne.n	10002b78 <CAN_Send_Message+0xf64>
10002b6c:	2500      	movs	r5, #0
10002b6e:	241f      	movs	r4, #31
10002b70:	0ff2      	lsrs	r2, r6, #31
10002b72:	42b4      	cmp	r4, r6
10002b74:	416a      	adcs	r2, r5
10002b76:	18b6      	adds	r6, r6, r2
10002b78:	2b05      	cmp	r3, #5
10002b7a:	d000      	beq.n	10002b7e <CAN_Send_Message+0xf6a>
10002b7c:	e6c3      	b.n	10002906 <CAN_Send_Message+0xcf2>
10002b7e:	291f      	cmp	r1, #31
10002b80:	dd00      	ble.n	10002b84 <CAN_Send_Message+0xf70>
10002b82:	e145      	b.n	10002e10 <CAN_Send_Message+0x11fc>
10002b84:	2e00      	cmp	r6, #0
10002b86:	d107      	bne.n	10002b98 <CAN_Send_Message+0xf84>
10002b88:	221f      	movs	r2, #31
10002b8a:	2301      	movs	r3, #1
10002b8c:	1a52      	subs	r2, r2, r1
10002b8e:	4093      	lsls	r3, r2
10002b90:	9a04      	ldr	r2, [sp, #16]
10002b92:	3101      	adds	r1, #1
10002b94:	431a      	orrs	r2, r3
10002b96:	9204      	str	r2, [sp, #16]
10002b98:	2001      	movs	r0, #1
10002b9a:	e6ff      	b.n	1000299c <CAN_Send_Message+0xd88>
10002b9c:	2805      	cmp	r0, #5
10002b9e:	d100      	bne.n	10002ba2 <CAN_Send_Message+0xf8e>
10002ba0:	e084      	b.n	10002cac <CAN_Send_Message+0x1098>
10002ba2:	4647      	mov	r7, r8
10002ba4:	4642      	mov	r2, r8
10002ba6:	2400      	movs	r4, #0
10002ba8:	f7ff f91e 	bl	10001de8 <CAN_Send_Message+0x1d4>
10002bac:	291f      	cmp	r1, #31
10002bae:	dc26      	bgt.n	10002bfe <CAN_Send_Message+0xfea>
10002bb0:	2e00      	cmp	r6, #0
10002bb2:	d127      	bne.n	10002c04 <CAN_Send_Message+0xff0>
10002bb4:	221f      	movs	r2, #31
10002bb6:	2301      	movs	r3, #1
10002bb8:	1a52      	subs	r2, r2, r1
10002bba:	4093      	lsls	r3, r2
10002bbc:	9a04      	ldr	r2, [sp, #16]
10002bbe:	3101      	adds	r1, #1
10002bc0:	431a      	orrs	r2, r3
10002bc2:	9204      	str	r2, [sp, #16]
10002bc4:	e01e      	b.n	10002c04 <CAN_Send_Message+0xff0>
10002bc6:	2805      	cmp	r0, #5
10002bc8:	d000      	beq.n	10002bcc <CAN_Send_Message+0xfb8>
10002bca:	e175      	b.n	10002eb8 <CAN_Send_Message+0x12a4>
10002bcc:	2e1f      	cmp	r6, #31
10002bce:	dc08      	bgt.n	10002be2 <CAN_Send_Message+0xfce>
10002bd0:	4652      	mov	r2, sl
10002bd2:	4661      	mov	r1, ip
10002bd4:	1b92      	subs	r2, r2, r6
10002bd6:	4091      	lsls	r1, r2
10002bd8:	000a      	movs	r2, r1
10002bda:	9905      	ldr	r1, [sp, #20]
10002bdc:	3601      	adds	r6, #1
10002bde:	4311      	orrs	r1, r2
10002be0:	9105      	str	r1, [sp, #20]
10002be2:	2220      	movs	r2, #32
10002be4:	2400      	movs	r4, #0
10002be6:	2000      	movs	r0, #0
10002be8:	4690      	mov	r8, r2
10002bea:	2720      	movs	r7, #32
10002bec:	f7ff f847 	bl	10001c7e <CAN_Send_Message+0x6a>
10002bf0:	2f20      	cmp	r7, #32
10002bf2:	d100      	bne.n	10002bf6 <CAN_Send_Message+0xfe2>
10002bf4:	e0c4      	b.n	10002d80 <CAN_Send_Message+0x116c>
10002bf6:	2220      	movs	r2, #32
10002bf8:	2000      	movs	r0, #0
10002bfa:	f7ff f879 	bl	10001cf0 <CAN_Send_Message+0xdc>
10002bfe:	2920      	cmp	r1, #32
10002c00:	d100      	bne.n	10002c04 <CAN_Send_Message+0xff0>
10002c02:	e0df      	b.n	10002dc4 <CAN_Send_Message+0x11b0>
10002c04:	2c04      	cmp	r4, #4
10002c06:	d067      	beq.n	10002cd8 <CAN_Send_Message+0x10c4>
10002c08:	2220      	movs	r2, #32
10002c0a:	f7ff f900 	bl	10001e0e <CAN_Send_Message+0x1fa>
10002c0e:	2f20      	cmp	r7, #32
10002c10:	d1a5      	bne.n	10002b5e <CAN_Send_Message+0xf4a>
10002c12:	291f      	cmp	r1, #31
10002c14:	dd00      	ble.n	10002c18 <CAN_Send_Message+0x1004>
10002c16:	e11f      	b.n	10002e58 <CAN_Send_Message+0x1244>
10002c18:	2e00      	cmp	r6, #0
10002c1a:	d1a0      	bne.n	10002b5e <CAN_Send_Message+0xf4a>
10002c1c:	221f      	movs	r2, #31
10002c1e:	2301      	movs	r3, #1
10002c20:	1a52      	subs	r2, r2, r1
10002c22:	4093      	lsls	r3, r2
10002c24:	9a04      	ldr	r2, [sp, #16]
10002c26:	3101      	adds	r1, #1
10002c28:	431a      	orrs	r2, r3
10002c2a:	9204      	str	r2, [sp, #16]
10002c2c:	2001      	movs	r0, #1
10002c2e:	e61a      	b.n	10002866 <CAN_Send_Message+0xc52>
10002c30:	4273      	negs	r3, r6
10002c32:	4173      	adcs	r3, r6
10002c34:	18c9      	adds	r1, r1, r3
10002c36:	e61b      	b.n	10002870 <CAN_Send_Message+0xc5c>
10002c38:	4273      	negs	r3, r6
10002c3a:	4173      	adcs	r3, r6
10002c3c:	18c9      	adds	r1, r1, r3
10002c3e:	e60e      	b.n	1000285e <CAN_Send_Message+0xc4a>
10002c40:	4641      	mov	r1, r8
10002c42:	9a00      	ldr	r2, [sp, #0]
10002c44:	1a12      	subs	r2, r2, r0
10002c46:	4091      	lsls	r1, r2
10002c48:	000a      	movs	r2, r1
10002c4a:	9904      	ldr	r1, [sp, #16]
10002c4c:	4311      	orrs	r1, r2
10002c4e:	4652      	mov	r2, sl
10002c50:	3201      	adds	r2, #1
10002c52:	9104      	str	r1, [sp, #16]
10002c54:	4692      	mov	sl, r2
10002c56:	e57f      	b.n	10002758 <CAN_Send_Message+0xb44>
10002c58:	2e1f      	cmp	r6, #31
10002c5a:	dd00      	ble.n	10002c5e <CAN_Send_Message+0x104a>
10002c5c:	e735      	b.n	10002aca <CAN_Send_Message+0xeb6>
10002c5e:	3601      	adds	r6, #1
10002c60:	2720      	movs	r7, #32
10002c62:	2220      	movs	r2, #32
10002c64:	2400      	movs	r4, #0
10002c66:	2000      	movs	r0, #0
10002c68:	f7ff f809 	bl	10001c7e <CAN_Send_Message+0x6a>
10002c6c:	4272      	negs	r2, r6
10002c6e:	4172      	adcs	r2, r6
10002c70:	1889      	adds	r1, r1, r2
10002c72:	e781      	b.n	10002b78 <CAN_Send_Message+0xf64>
10002c74:	2e1f      	cmp	r6, #31
10002c76:	dd01      	ble.n	10002c7c <CAN_Send_Message+0x1068>
10002c78:	f7ff fb50 	bl	1000231c <CAN_Send_Message+0x708>
10002c7c:	3601      	adds	r6, #1
10002c7e:	2720      	movs	r7, #32
10002c80:	2220      	movs	r2, #32
10002c82:	2400      	movs	r4, #0
10002c84:	2000      	movs	r0, #0
10002c86:	f7ff f8af 	bl	10001de8 <CAN_Send_Message+0x1d4>
10002c8a:	4641      	mov	r1, r8
10002c8c:	9a00      	ldr	r2, [sp, #0]
10002c8e:	2600      	movs	r6, #0
10002c90:	1bd2      	subs	r2, r2, r7
10002c92:	4091      	lsls	r1, r2
10002c94:	000a      	movs	r2, r1
10002c96:	9902      	ldr	r1, [sp, #8]
10002c98:	3701      	adds	r7, #1
10002c9a:	4311      	orrs	r1, r2
10002c9c:	2200      	movs	r2, #0
10002c9e:	9102      	str	r1, [sp, #8]
10002ca0:	4692      	mov	sl, r2
10002ca2:	2400      	movs	r4, #0
10002ca4:	2000      	movs	r0, #0
10002ca6:	3220      	adds	r2, #32
10002ca8:	f7ff f845 	bl	10001d36 <CAN_Send_Message+0x122>
10002cac:	2e1f      	cmp	r6, #31
10002cae:	dc08      	bgt.n	10002cc2 <CAN_Send_Message+0x10ae>
10002cb0:	4652      	mov	r2, sl
10002cb2:	4661      	mov	r1, ip
10002cb4:	1b92      	subs	r2, r2, r6
10002cb6:	4091      	lsls	r1, r2
10002cb8:	000a      	movs	r2, r1
10002cba:	9905      	ldr	r1, [sp, #20]
10002cbc:	3601      	adds	r6, #1
10002cbe:	4311      	orrs	r1, r2
10002cc0:	9105      	str	r1, [sp, #20]
10002cc2:	2220      	movs	r2, #32
10002cc4:	2400      	movs	r4, #0
10002cc6:	2000      	movs	r0, #0
10002cc8:	4690      	mov	r8, r2
10002cca:	2720      	movs	r7, #32
10002ccc:	f7ff f88c 	bl	10001de8 <CAN_Send_Message+0x1d4>
10002cd0:	2f20      	cmp	r7, #32
10002cd2:	d001      	beq.n	10002cd8 <CAN_Send_Message+0x10c4>
10002cd4:	f7ff f89b 	bl	10001e0e <CAN_Send_Message+0x1fa>
10002cd8:	291f      	cmp	r1, #31
10002cda:	dd00      	ble.n	10002cde <CAN_Send_Message+0x10ca>
10002cdc:	e0ac      	b.n	10002e38 <CAN_Send_Message+0x1224>
10002cde:	2e00      	cmp	r6, #0
10002ce0:	d000      	beq.n	10002ce4 <CAN_Send_Message+0x10d0>
10002ce2:	e0a5      	b.n	10002e30 <CAN_Send_Message+0x121c>
10002ce4:	221f      	movs	r2, #31
10002ce6:	2301      	movs	r3, #1
10002ce8:	1a52      	subs	r2, r2, r1
10002cea:	4093      	lsls	r3, r2
10002cec:	9a04      	ldr	r2, [sp, #16]
10002cee:	3101      	adds	r1, #1
10002cf0:	431a      	orrs	r2, r3
10002cf2:	9204      	str	r2, [sp, #16]
10002cf4:	2720      	movs	r7, #32
10002cf6:	2220      	movs	r2, #32
10002cf8:	f7ff f889 	bl	10001e0e <CAN_Send_Message+0x1fa>
10002cfc:	2200      	movs	r2, #0
10002cfe:	4690      	mov	r8, r2
10002d00:	f7ff fb28 	bl	10002354 <CAN_Send_Message+0x740>
10002d04:	2c20      	cmp	r4, #32
10002d06:	d001      	beq.n	10002d0c <CAN_Send_Message+0x10f8>
10002d08:	f7ff fbf3 	bl	100024f2 <CAN_Send_Message+0x8de>
10002d0c:	2e1f      	cmp	r6, #31
10002d0e:	dc08      	bgt.n	10002d22 <CAN_Send_Message+0x110e>
10002d10:	4641      	mov	r1, r8
10002d12:	9a00      	ldr	r2, [sp, #0]
10002d14:	1b92      	subs	r2, r2, r6
10002d16:	4091      	lsls	r1, r2
10002d18:	000a      	movs	r2, r1
10002d1a:	9905      	ldr	r1, [sp, #20]
10002d1c:	3601      	adds	r6, #1
10002d1e:	4311      	orrs	r1, r2
10002d20:	9105      	str	r1, [sp, #20]
10002d22:	2220      	movs	r2, #32
10002d24:	2400      	movs	r4, #0
10002d26:	2000      	movs	r0, #0
10002d28:	4692      	mov	sl, r2
10002d2a:	2720      	movs	r7, #32
10002d2c:	f7ff f803 	bl	10001d36 <CAN_Send_Message+0x122>
10002d30:	2f20      	cmp	r7, #32
10002d32:	d000      	beq.n	10002d36 <CAN_Send_Message+0x1122>
10002d34:	e68f      	b.n	10002a56 <CAN_Send_Message+0xe42>
10002d36:	4652      	mov	r2, sl
10002d38:	2a1f      	cmp	r2, #31
10002d3a:	dc0e      	bgt.n	10002d5a <CAN_Send_Message+0x1146>
10002d3c:	2e00      	cmp	r6, #0
10002d3e:	d000      	beq.n	10002d42 <CAN_Send_Message+0x112e>
10002d40:	e688      	b.n	10002a54 <CAN_Send_Message+0xe40>
10002d42:	3201      	adds	r2, #1
10002d44:	4692      	mov	sl, r2
10002d46:	2400      	movs	r4, #0
10002d48:	2000      	movs	r0, #0
10002d4a:	2720      	movs	r7, #32
10002d4c:	2220      	movs	r2, #32
10002d4e:	f7fe fff2 	bl	10001d36 <CAN_Send_Message+0x122>
10002d52:	2000      	movs	r0, #0
10002d54:	2400      	movs	r4, #0
10002d56:	f7fe ffee 	bl	10001d36 <CAN_Send_Message+0x122>
10002d5a:	4652      	mov	r2, sl
10002d5c:	2a20      	cmp	r2, #32
10002d5e:	d000      	beq.n	10002d62 <CAN_Send_Message+0x114e>
10002d60:	e678      	b.n	10002a54 <CAN_Send_Message+0xe40>
10002d62:	2e1f      	cmp	r6, #31
10002d64:	dd00      	ble.n	10002d68 <CAN_Send_Message+0x1154>
10002d66:	e675      	b.n	10002a54 <CAN_Send_Message+0xe40>
10002d68:	3601      	adds	r6, #1
10002d6a:	2720      	movs	r7, #32
10002d6c:	2220      	movs	r2, #32
10002d6e:	2400      	movs	r4, #0
10002d70:	2000      	movs	r0, #0
10002d72:	f7fe ffe0 	bl	10001d36 <CAN_Send_Message+0x122>
10002d76:	2f20      	cmp	r7, #32
10002d78:	d100      	bne.n	10002d7c <CAN_Send_Message+0x1168>
10002d7a:	e700      	b.n	10002b7e <CAN_Send_Message+0xf6a>
10002d7c:	2001      	movs	r0, #1
10002d7e:	e565      	b.n	1000284c <CAN_Send_Message+0xc38>
10002d80:	291f      	cmp	r1, #31
10002d82:	dc7a      	bgt.n	10002e7a <CAN_Send_Message+0x1266>
10002d84:	2e00      	cmp	r6, #0
10002d86:	d000      	beq.n	10002d8a <CAN_Send_Message+0x1176>
10002d88:	e735      	b.n	10002bf6 <CAN_Send_Message+0xfe2>
10002d8a:	221f      	movs	r2, #31
10002d8c:	2301      	movs	r3, #1
10002d8e:	1a52      	subs	r2, r2, r1
10002d90:	4093      	lsls	r3, r2
10002d92:	9a04      	ldr	r2, [sp, #16]
10002d94:	3101      	adds	r1, #1
10002d96:	431a      	orrs	r2, r3
10002d98:	9204      	str	r2, [sp, #16]
10002d9a:	2000      	movs	r0, #0
10002d9c:	2220      	movs	r2, #32
10002d9e:	f7fe ffa7 	bl	10001cf0 <CAN_Send_Message+0xdc>
10002da2:	4652      	mov	r2, sl
10002da4:	4661      	mov	r1, ip
10002da6:	1b12      	subs	r2, r2, r4
10002da8:	4091      	lsls	r1, r2
10002daa:	000a      	movs	r2, r1
10002dac:	9904      	ldr	r1, [sp, #16]
10002dae:	2600      	movs	r6, #0
10002db0:	4311      	orrs	r1, r2
10002db2:	1c62      	adds	r2, r4, #1
10002db4:	4690      	mov	r8, r2
10002db6:	9104      	str	r1, [sp, #16]
10002db8:	2400      	movs	r4, #0
10002dba:	2000      	movs	r0, #0
10002dbc:	2720      	movs	r7, #32
10002dbe:	2220      	movs	r2, #32
10002dc0:	f7fe ff5d 	bl	10001c7e <CAN_Send_Message+0x6a>
10002dc4:	2e1f      	cmp	r6, #31
10002dc6:	dd00      	ble.n	10002dca <CAN_Send_Message+0x11b6>
10002dc8:	e71c      	b.n	10002c04 <CAN_Send_Message+0xff0>
10002dca:	221f      	movs	r2, #31
10002dcc:	2301      	movs	r3, #1
10002dce:	1b92      	subs	r2, r2, r6
10002dd0:	4093      	lsls	r3, r2
10002dd2:	9a05      	ldr	r2, [sp, #20]
10002dd4:	3601      	adds	r6, #1
10002dd6:	431a      	orrs	r2, r3
10002dd8:	9205      	str	r2, [sp, #20]
10002dda:	e713      	b.n	10002c04 <CAN_Send_Message+0xff0>
10002ddc:	2f20      	cmp	r7, #32
10002dde:	d000      	beq.n	10002de2 <CAN_Send_Message+0x11ce>
10002de0:	e753      	b.n	10002c8a <CAN_Send_Message+0x1076>
10002de2:	4641      	mov	r1, r8
10002de4:	9a00      	ldr	r2, [sp, #0]
10002de6:	2600      	movs	r6, #0
10002de8:	1b12      	subs	r2, r2, r4
10002dea:	4091      	lsls	r1, r2
10002dec:	000a      	movs	r2, r1
10002dee:	9904      	ldr	r1, [sp, #16]
10002df0:	2000      	movs	r0, #0
10002df2:	4311      	orrs	r1, r2
10002df4:	1c62      	adds	r2, r4, #1
10002df6:	4692      	mov	sl, r2
10002df8:	9104      	str	r1, [sp, #16]
10002dfa:	2400      	movs	r4, #0
10002dfc:	2720      	movs	r7, #32
10002dfe:	2220      	movs	r2, #32
10002e00:	f7fe ff99 	bl	10001d36 <CAN_Send_Message+0x122>
10002e04:	2805      	cmp	r0, #5
10002e06:	d081      	beq.n	10002d0c <CAN_Send_Message+0x10f8>
10002e08:	4652      	mov	r2, sl
10002e0a:	0017      	movs	r7, r2
10002e0c:	f7fe ff92 	bl	10001d34 <CAN_Send_Message+0x120>
10002e10:	2920      	cmp	r1, #32
10002e12:	d000      	beq.n	10002e16 <CAN_Send_Message+0x1202>
10002e14:	e6c0      	b.n	10002b98 <CAN_Send_Message+0xf84>
10002e16:	2e1f      	cmp	r6, #31
10002e18:	dd00      	ble.n	10002e1c <CAN_Send_Message+0x1208>
10002e1a:	e6bd      	b.n	10002b98 <CAN_Send_Message+0xf84>
10002e1c:	221f      	movs	r2, #31
10002e1e:	2301      	movs	r3, #1
10002e20:	1b92      	subs	r2, r2, r6
10002e22:	4093      	lsls	r3, r2
10002e24:	9a05      	ldr	r2, [sp, #20]
10002e26:	3601      	adds	r6, #1
10002e28:	431a      	orrs	r2, r3
10002e2a:	9205      	str	r2, [sp, #20]
10002e2c:	2001      	movs	r0, #1
10002e2e:	e5b5      	b.n	1000299c <CAN_Send_Message+0xd88>
10002e30:	2720      	movs	r7, #32
10002e32:	2220      	movs	r2, #32
10002e34:	f7fe ffeb 	bl	10001e0e <CAN_Send_Message+0x1fa>
10002e38:	2920      	cmp	r1, #32
10002e3a:	d1f9      	bne.n	10002e30 <CAN_Send_Message+0x121c>
10002e3c:	2e1f      	cmp	r6, #31
10002e3e:	dcf7      	bgt.n	10002e30 <CAN_Send_Message+0x121c>
10002e40:	221f      	movs	r2, #31
10002e42:	2301      	movs	r3, #1
10002e44:	1b92      	subs	r2, r2, r6
10002e46:	4093      	lsls	r3, r2
10002e48:	9a05      	ldr	r2, [sp, #20]
10002e4a:	3601      	adds	r6, #1
10002e4c:	431a      	orrs	r2, r3
10002e4e:	9205      	str	r2, [sp, #20]
10002e50:	2720      	movs	r7, #32
10002e52:	2220      	movs	r2, #32
10002e54:	f7fe ffdb 	bl	10001e0e <CAN_Send_Message+0x1fa>
10002e58:	2920      	cmp	r1, #32
10002e5a:	d000      	beq.n	10002e5e <CAN_Send_Message+0x124a>
10002e5c:	e67f      	b.n	10002b5e <CAN_Send_Message+0xf4a>
10002e5e:	000f      	movs	r7, r1
10002e60:	2e1f      	cmp	r6, #31
10002e62:	dd00      	ble.n	10002e66 <CAN_Send_Message+0x1252>
10002e64:	e67b      	b.n	10002b5e <CAN_Send_Message+0xf4a>
10002e66:	221f      	movs	r2, #31
10002e68:	2301      	movs	r3, #1
10002e6a:	1b92      	subs	r2, r2, r6
10002e6c:	4093      	lsls	r3, r2
10002e6e:	9a05      	ldr	r2, [sp, #20]
10002e70:	3601      	adds	r6, #1
10002e72:	431a      	orrs	r2, r3
10002e74:	9205      	str	r2, [sp, #20]
10002e76:	2001      	movs	r0, #1
10002e78:	e4f5      	b.n	10002866 <CAN_Send_Message+0xc52>
10002e7a:	2920      	cmp	r1, #32
10002e7c:	d000      	beq.n	10002e80 <CAN_Send_Message+0x126c>
10002e7e:	e6ba      	b.n	10002bf6 <CAN_Send_Message+0xfe2>
10002e80:	2e1f      	cmp	r6, #31
10002e82:	dc11      	bgt.n	10002ea8 <CAN_Send_Message+0x1294>
10002e84:	221f      	movs	r2, #31
10002e86:	2301      	movs	r3, #1
10002e88:	1b92      	subs	r2, r2, r6
10002e8a:	4093      	lsls	r3, r2
10002e8c:	9a05      	ldr	r2, [sp, #20]
10002e8e:	3601      	adds	r6, #1
10002e90:	431a      	orrs	r2, r3
10002e92:	9205      	str	r2, [sp, #20]
10002e94:	000f      	movs	r7, r1
10002e96:	2220      	movs	r2, #32
10002e98:	2000      	movs	r0, #0
10002e9a:	f7fe ff29 	bl	10001cf0 <CAN_Send_Message+0xdc>
10002e9e:	2c20      	cmp	r4, #32
10002ea0:	d001      	beq.n	10002ea6 <CAN_Send_Message+0x1292>
10002ea2:	f7ff f820 	bl	10001ee6 <CAN_Send_Message+0x2d2>
10002ea6:	e691      	b.n	10002bcc <CAN_Send_Message+0xfb8>
10002ea8:	000f      	movs	r7, r1
10002eaa:	e6a4      	b.n	10002bf6 <CAN_Send_Message+0xfe2>
10002eac:	2600      	movs	r6, #0
10002eae:	f7ff fb93 	bl	100025d8 <CAN_Send_Message+0x9c4>
10002eb2:	2600      	movs	r6, #0
10002eb4:	f7ff fb29 	bl	1000250a <CAN_Send_Message+0x8f6>
10002eb8:	4647      	mov	r7, r8
10002eba:	4642      	mov	r2, r8
10002ebc:	2400      	movs	r4, #0
10002ebe:	f7fe fede 	bl	10001c7e <CAN_Send_Message+0x6a>
10002ec2:	2600      	movs	r6, #0
10002ec4:	f7fe fffb 	bl	10001ebe <CAN_Send_Message+0x2aa>
10002ec8:	2600      	movs	r6, #0
10002eca:	f7fe ffee 	bl	10001eaa <CAN_Send_Message+0x296>
10002ece:	2600      	movs	r6, #0
10002ed0:	f7ff fb76 	bl	100025c0 <CAN_Send_Message+0x9ac>
10002ed4:	2600      	movs	r6, #0
10002ed6:	f7ff faf6 	bl	100024c6 <CAN_Send_Message+0x8b2>
10002eda:	46c0      	nop			; (mov r8, r8)

10002edc <CAN_Rx_program_getc>:
10002edc:	b5f0      	push	{r4, r5, r6, r7, lr}
10002ede:	4657      	mov	r7, sl
10002ee0:	464e      	mov	r6, r9
10002ee2:	4645      	mov	r5, r8
10002ee4:	46de      	mov	lr, fp
10002ee6:	000b      	movs	r3, r1
10002ee8:	b5e0      	push	{r5, r6, r7, lr}
10002eea:	2501      	movs	r5, #1
10002eec:	b085      	sub	sp, #20
10002eee:	3308      	adds	r3, #8
10002ef0:	9202      	str	r2, [sp, #8]
10002ef2:	409d      	lsls	r5, r3
10002ef4:	009a      	lsls	r2, r3, #2
10002ef6:	2300      	movs	r3, #0
10002ef8:	9301      	str	r3, [sp, #4]
10002efa:	4698      	mov	r8, r3
10002efc:	4bb4      	ldr	r3, [pc, #720]	; (100031d0 <CAN_Rx_program_getc+0x2f4>)
10002efe:	4692      	mov	sl, r2
10002f00:	4699      	mov	r9, r3
10002f02:	4bb4      	ldr	r3, [pc, #720]	; (100031d4 <CAN_Rx_program_getc+0x2f8>)
10002f04:	0004      	movs	r4, r0
10002f06:	469b      	mov	fp, r3
10002f08:	4eb3      	ldr	r6, [pc, #716]	; (100031d8 <CAN_Rx_program_getc+0x2fc>)
10002f0a:	4fb4      	ldr	r7, [pc, #720]	; (100031dc <CAN_Rx_program_getc+0x300>)
10002f0c:	9103      	str	r1, [sp, #12]
10002f0e:	4482      	add	sl, r0
10002f10:	6863      	ldr	r3, [r4, #4]
10002f12:	421d      	tst	r5, r3
10002f14:	d1fc      	bne.n	10002f10 <CAN_Rx_program_getc+0x34>
10002f16:	4653      	mov	r3, sl
10002f18:	781b      	ldrb	r3, [r3, #0]
10002f1a:	b2db      	uxtb	r3, r3
10002f1c:	01da      	lsls	r2, r3, #7
10002f1e:	7032      	strb	r2, [r6, #0]
10002f20:	4642      	mov	r2, r8
10002f22:	2a00      	cmp	r2, #0
10002f24:	d13e      	bne.n	10002fa4 <CAN_Rx_program_getc+0xc8>
10002f26:	464a      	mov	r2, r9
10002f28:	6812      	ldr	r2, [r2, #0]
10002f2a:	2a00      	cmp	r2, #0
10002f2c:	d05e      	beq.n	10002fec <CAN_Rx_program_getc+0x110>
10002f2e:	2a01      	cmp	r2, #1
10002f30:	d03c      	beq.n	10002fac <CAN_Rx_program_getc+0xd0>
10002f32:	4bab      	ldr	r3, [pc, #684]	; (100031e0 <CAN_Rx_program_getc+0x304>)
10002f34:	3601      	adds	r6, #1
10002f36:	429e      	cmp	r6, r3
10002f38:	d1ea      	bne.n	10002f10 <CAN_Rx_program_getc+0x34>
10002f3a:	2201      	movs	r2, #1
10002f3c:	0015      	movs	r5, r2
10002f3e:	9e03      	ldr	r6, [sp, #12]
10002f40:	6823      	ldr	r3, [r4, #0]
10002f42:	1d31      	adds	r1, r6, #4
10002f44:	408d      	lsls	r5, r1
10002f46:	432b      	orrs	r3, r5
10002f48:	6023      	str	r3, [r4, #0]
10002f4a:	4ba6      	ldr	r3, [pc, #664]	; (100031e4 <CAN_Rx_program_getc+0x308>)
10002f4c:	2100      	movs	r1, #0
10002f4e:	601a      	str	r2, [r3, #0]
10002f50:	2300      	movs	r3, #0
10002f52:	4aa5      	ldr	r2, [pc, #660]	; (100031e8 <CAN_Rx_program_getc+0x30c>)
10002f54:	1cf8      	adds	r0, r7, #3
10002f56:	6013      	str	r3, [r2, #0]
10002f58:	465a      	mov	r2, fp
10002f5a:	6013      	str	r3, [r2, #0]
10002f5c:	464a      	mov	r2, r9
10002f5e:	6013      	str	r3, [r2, #0]
10002f60:	2200      	movs	r2, #0
10002f62:	70ba      	strb	r2, [r7, #2]
10002f64:	2208      	movs	r2, #8
10002f66:	803b      	strh	r3, [r7, #0]
10002f68:	81bb      	strh	r3, [r7, #12]
10002f6a:	f004 fc09 	bl	10007780 <__wrap_memset>
10002f6e:	20fa      	movs	r0, #250	; 0xfa
10002f70:	0080      	lsls	r0, r0, #2
10002f72:	f000 ff4f 	bl	10003e14 <sleep_ms>
10002f76:	46b4      	mov	ip, r6
10002f78:	6823      	ldr	r3, [r4, #0]
10002f7a:	431d      	orrs	r5, r3
10002f7c:	0073      	lsls	r3, r6, #1
10002f7e:	4463      	add	r3, ip
10002f80:	00db      	lsls	r3, r3, #3
10002f82:	33d0      	adds	r3, #208	; 0xd0
10002f84:	6025      	str	r5, [r4, #0]
10002f86:	18e4      	adds	r4, r4, r3
10002f88:	2380      	movs	r3, #128	; 0x80
10002f8a:	015b      	lsls	r3, r3, #5
10002f8c:	431c      	orrs	r4, r3
10002f8e:	2380      	movs	r3, #128	; 0x80
10002f90:	061b      	lsls	r3, r3, #24
10002f92:	6023      	str	r3, [r4, #0]
10002f94:	6023      	str	r3, [r4, #0]
10002f96:	b005      	add	sp, #20
10002f98:	bc3c      	pop	{r2, r3, r4, r5}
10002f9a:	4690      	mov	r8, r2
10002f9c:	4699      	mov	r9, r3
10002f9e:	46a2      	mov	sl, r4
10002fa0:	46ab      	mov	fp, r5
10002fa2:	bdf0      	pop	{r4, r5, r6, r7, pc}
10002fa4:	464b      	mov	r3, r9
10002fa6:	681a      	ldr	r2, [r3, #0]
10002fa8:	2a01      	cmp	r2, #1
10002faa:	d1c2      	bne.n	10002f32 <CAN_Rx_program_getc+0x56>
10002fac:	9b01      	ldr	r3, [sp, #4]
10002fae:	2b00      	cmp	r3, #0
10002fb0:	d1bf      	bne.n	10002f32 <CAN_Rx_program_getc+0x56>
10002fb2:	9a02      	ldr	r2, [sp, #8]
10002fb4:	0038      	movs	r0, r7
10002fb6:	6813      	ldr	r3, [r2, #0]
10002fb8:	9301      	str	r3, [sp, #4]
10002fba:	3301      	adds	r3, #1
10002fbc:	6013      	str	r3, [r2, #0]
10002fbe:	f7fd fb9b 	bl	100006f8 <CRCCalculator>
10002fc2:	2201      	movs	r2, #1
10002fc4:	89bb      	ldrh	r3, [r7, #12]
10002fc6:	9201      	str	r2, [sp, #4]
10002fc8:	4283      	cmp	r3, r0
10002fca:	d1b2      	bne.n	10002f32 <CAN_Rx_program_getc+0x56>
10002fcc:	2002      	movs	r0, #2
10002fce:	f007 f927 	bl	1000a220 <multicore_fifo_push_blocking>
10002fd2:	9b02      	ldr	r3, [sp, #8]
10002fd4:	220e      	movs	r2, #14
10002fd6:	681b      	ldr	r3, [r3, #0]
10002fd8:	0039      	movs	r1, r7
10002fda:	00d8      	lsls	r0, r3, #3
10002fdc:	1ac0      	subs	r0, r0, r3
10002fde:	4b83      	ldr	r3, [pc, #524]	; (100031ec <CAN_Rx_program_getc+0x310>)
10002fe0:	0040      	lsls	r0, r0, #1
10002fe2:	469c      	mov	ip, r3
10002fe4:	4460      	add	r0, ip
10002fe6:	f004 fbd1 	bl	1000778c <__wrap___aeabi_memcpy>
10002fea:	e7a2      	b.n	10002f32 <CAN_Rx_program_getc+0x56>
10002fec:	4a7d      	ldr	r2, [pc, #500]	; (100031e4 <CAN_Rx_program_getc+0x308>)
10002fee:	497e      	ldr	r1, [pc, #504]	; (100031e8 <CAN_Rx_program_getc+0x30c>)
10002ff0:	6812      	ldr	r2, [r2, #0]
10002ff2:	6809      	ldr	r1, [r1, #0]
10002ff4:	2a05      	cmp	r2, #5
10002ff6:	d034      	beq.n	10003062 <CAN_Rx_program_getc+0x186>
10002ff8:	2905      	cmp	r1, #5
10002ffa:	d03e      	beq.n	1000307a <CAN_Rx_program_getc+0x19e>
10002ffc:	2a04      	cmp	r2, #4
10002ffe:	dc39      	bgt.n	10003074 <CAN_Rx_program_getc+0x198>
10003000:	2900      	cmp	r1, #0
10003002:	d003      	beq.n	1000300c <CAN_Rx_program_getc+0x130>
10003004:	2a00      	cmp	r2, #0
10003006:	d135      	bne.n	10003074 <CAN_Rx_program_getc+0x198>
10003008:	2904      	cmp	r1, #4
1000300a:	dc33      	bgt.n	10003074 <CAN_Rx_program_getc+0x198>
1000300c:	2001      	movs	r0, #1
1000300e:	4003      	ands	r3, r0
10003010:	d153      	bne.n	100030ba <CAN_Rx_program_getc+0x1de>
10003012:	2100      	movs	r1, #0
10003014:	3201      	adds	r2, #1
10003016:	4874      	ldr	r0, [pc, #464]	; (100031e8 <CAN_Rx_program_getc+0x30c>)
10003018:	6001      	str	r1, [r0, #0]
1000301a:	4972      	ldr	r1, [pc, #456]	; (100031e4 <CAN_Rx_program_getc+0x308>)
1000301c:	600a      	str	r2, [r1, #0]
1000301e:	465a      	mov	r2, fp
10003020:	6812      	ldr	r2, [r2, #0]
10003022:	2a0a      	cmp	r2, #10
10003024:	dd35      	ble.n	10003092 <CAN_Rx_program_getc+0x1b6>
10003026:	0011      	movs	r1, r2
10003028:	390b      	subs	r1, #11
1000302a:	2902      	cmp	r1, #2
1000302c:	d93f      	bls.n	100030ae <CAN_Rx_program_getc+0x1d2>
1000302e:	0011      	movs	r1, r2
10003030:	390e      	subs	r1, #14
10003032:	2903      	cmp	r1, #3
10003034:	d944      	bls.n	100030c0 <CAN_Rx_program_getc+0x1e4>
10003036:	78b9      	ldrb	r1, [r7, #2]
10003038:	2900      	cmp	r1, #0
1000303a:	d153      	bne.n	100030e4 <CAN_Rx_program_getc+0x208>
1000303c:	0011      	movs	r1, r2
1000303e:	3912      	subs	r1, #18
10003040:	290e      	cmp	r1, #14
10003042:	d930      	bls.n	100030a6 <CAN_Rx_program_getc+0x1ca>
10003044:	2a21      	cmp	r2, #33	; 0x21
10003046:	d115      	bne.n	10003074 <CAN_Rx_program_getc+0x198>
10003048:	2b00      	cmp	r3, #0
1000304a:	d100      	bne.n	1000304e <CAN_Rx_program_getc+0x172>
1000304c:	e134      	b.n	100032b8 <CAN_Rx_program_getc+0x3dc>
1000304e:	2301      	movs	r3, #1
10003050:	464a      	mov	r2, r9
10003052:	6013      	str	r3, [r2, #0]
10003054:	2300      	movs	r3, #0
10003056:	4698      	mov	r8, r3
10003058:	9b01      	ldr	r3, [sp, #4]
1000305a:	2b00      	cmp	r3, #0
1000305c:	d000      	beq.n	10003060 <CAN_Rx_program_getc+0x184>
1000305e:	e768      	b.n	10002f32 <CAN_Rx_program_getc+0x56>
10003060:	e7a7      	b.n	10002fb2 <CAN_Rx_program_getc+0xd6>
10003062:	2900      	cmp	r1, #0
10003064:	d1c8      	bne.n	10002ff8 <CAN_Rx_program_getc+0x11c>
10003066:	07db      	lsls	r3, r3, #31
10003068:	d534      	bpl.n	100030d4 <CAN_Rx_program_getc+0x1f8>
1000306a:	4642      	mov	r2, r8
1000306c:	4b5d      	ldr	r3, [pc, #372]	; (100031e4 <CAN_Rx_program_getc+0x308>)
1000306e:	601a      	str	r2, [r3, #0]
10003070:	4b5d      	ldr	r3, [pc, #372]	; (100031e8 <CAN_Rx_program_getc+0x30c>)
10003072:	601a      	str	r2, [r3, #0]
10003074:	2300      	movs	r3, #0
10003076:	4698      	mov	r8, r3
10003078:	e75b      	b.n	10002f32 <CAN_Rx_program_getc+0x56>
1000307a:	2a00      	cmp	r2, #0
1000307c:	d1fa      	bne.n	10003074 <CAN_Rx_program_getc+0x198>
1000307e:	07db      	lsls	r3, r3, #31
10003080:	d500      	bpl.n	10003084 <CAN_Rx_program_getc+0x1a8>
10003082:	e088      	b.n	10003196 <CAN_Rx_program_getc+0x2ba>
10003084:	4b58      	ldr	r3, [pc, #352]	; (100031e8 <CAN_Rx_program_getc+0x30c>)
10003086:	601a      	str	r2, [r3, #0]
10003088:	4b56      	ldr	r3, [pc, #344]	; (100031e4 <CAN_Rx_program_getc+0x308>)
1000308a:	601a      	str	r2, [r3, #0]
1000308c:	2300      	movs	r3, #0
1000308e:	4698      	mov	r8, r3
10003090:	e74f      	b.n	10002f32 <CAN_Rx_program_getc+0x56>
10003092:	8839      	ldrh	r1, [r7, #0]
10003094:	3201      	adds	r2, #1
10003096:	0049      	lsls	r1, r1, #1
10003098:	430b      	orrs	r3, r1
1000309a:	803b      	strh	r3, [r7, #0]
1000309c:	465b      	mov	r3, fp
1000309e:	601a      	str	r2, [r3, #0]
100030a0:	2300      	movs	r3, #0
100030a2:	4698      	mov	r8, r3
100030a4:	e745      	b.n	10002f32 <CAN_Rx_program_getc+0x56>
100030a6:	89b9      	ldrh	r1, [r7, #12]
100030a8:	0049      	lsls	r1, r1, #1
100030aa:	430b      	orrs	r3, r1
100030ac:	81bb      	strh	r3, [r7, #12]
100030ae:	465b      	mov	r3, fp
100030b0:	3201      	adds	r2, #1
100030b2:	601a      	str	r2, [r3, #0]
100030b4:	2300      	movs	r3, #0
100030b6:	4698      	mov	r8, r3
100030b8:	e73b      	b.n	10002f32 <CAN_Rx_program_getc+0x56>
100030ba:	3101      	adds	r1, #1
100030bc:	2200      	movs	r2, #0
100030be:	e7aa      	b.n	10003016 <CAN_Rx_program_getc+0x13a>
100030c0:	78b9      	ldrb	r1, [r7, #2]
100030c2:	3201      	adds	r2, #1
100030c4:	0049      	lsls	r1, r1, #1
100030c6:	430b      	orrs	r3, r1
100030c8:	70bb      	strb	r3, [r7, #2]
100030ca:	465b      	mov	r3, fp
100030cc:	601a      	str	r2, [r3, #0]
100030ce:	2300      	movs	r3, #0
100030d0:	4698      	mov	r8, r3
100030d2:	e72e      	b.n	10002f32 <CAN_Rx_program_getc+0x56>
100030d4:	4846      	ldr	r0, [pc, #280]	; (100031f0 <CAN_Rx_program_getc+0x314>)
100030d6:	f004 fbef 	bl	100078b8 <__wrap_puts>
100030da:	464b      	mov	r3, r9
100030dc:	681a      	ldr	r2, [r3, #0]
100030de:	2301      	movs	r3, #1
100030e0:	4698      	mov	r8, r3
100030e2:	e724      	b.n	10002f2e <CAN_Rx_program_getc+0x52>
100030e4:	2901      	cmp	r1, #1
100030e6:	d045      	beq.n	10003174 <CAN_Rx_program_getc+0x298>
100030e8:	2902      	cmp	r1, #2
100030ea:	d100      	bne.n	100030ee <CAN_Rx_program_getc+0x212>
100030ec:	e08a      	b.n	10003204 <CAN_Rx_program_getc+0x328>
100030ee:	2903      	cmp	r1, #3
100030f0:	d053      	beq.n	1000319a <CAN_Rx_program_getc+0x2be>
100030f2:	2904      	cmp	r1, #4
100030f4:	d100      	bne.n	100030f8 <CAN_Rx_program_getc+0x21c>
100030f6:	e09a      	b.n	1000322e <CAN_Rx_program_getc+0x352>
100030f8:	2905      	cmp	r1, #5
100030fa:	d100      	bne.n	100030fe <CAN_Rx_program_getc+0x222>
100030fc:	e155      	b.n	100033aa <CAN_Rx_program_getc+0x4ce>
100030fe:	2906      	cmp	r1, #6
10003100:	d100      	bne.n	10003104 <CAN_Rx_program_getc+0x228>
10003102:	e12c      	b.n	1000335e <CAN_Rx_program_getc+0x482>
10003104:	2907      	cmp	r1, #7
10003106:	d100      	bne.n	1000310a <CAN_Rx_program_getc+0x22e>
10003108:	e0d8      	b.n	100032bc <CAN_Rx_program_getc+0x3e0>
1000310a:	2908      	cmp	r1, #8
1000310c:	d1b2      	bne.n	10003074 <CAN_Rx_program_getc+0x198>
1000310e:	0011      	movs	r1, r2
10003110:	3912      	subs	r1, #18
10003112:	2907      	cmp	r1, #7
10003114:	d800      	bhi.n	10003118 <CAN_Rx_program_getc+0x23c>
10003116:	e0c5      	b.n	100032a4 <CAN_Rx_program_getc+0x3c8>
10003118:	0011      	movs	r1, r2
1000311a:	391a      	subs	r1, #26
1000311c:	2907      	cmp	r1, #7
1000311e:	d800      	bhi.n	10003122 <CAN_Rx_program_getc+0x246>
10003120:	e0b6      	b.n	10003290 <CAN_Rx_program_getc+0x3b4>
10003122:	0011      	movs	r1, r2
10003124:	3922      	subs	r1, #34	; 0x22
10003126:	2907      	cmp	r1, #7
10003128:	d800      	bhi.n	1000312c <CAN_Rx_program_getc+0x250>
1000312a:	e0a7      	b.n	1000327c <CAN_Rx_program_getc+0x3a0>
1000312c:	0011      	movs	r1, r2
1000312e:	392a      	subs	r1, #42	; 0x2a
10003130:	2907      	cmp	r1, #7
10003132:	d800      	bhi.n	10003136 <CAN_Rx_program_getc+0x25a>
10003134:	e098      	b.n	10003268 <CAN_Rx_program_getc+0x38c>
10003136:	0011      	movs	r1, r2
10003138:	3932      	subs	r1, #50	; 0x32
1000313a:	2907      	cmp	r1, #7
1000313c:	d800      	bhi.n	10003140 <CAN_Rx_program_getc+0x264>
1000313e:	e104      	b.n	1000334a <CAN_Rx_program_getc+0x46e>
10003140:	0011      	movs	r1, r2
10003142:	393a      	subs	r1, #58	; 0x3a
10003144:	2907      	cmp	r1, #7
10003146:	d800      	bhi.n	1000314a <CAN_Rx_program_getc+0x26e>
10003148:	e0f5      	b.n	10003336 <CAN_Rx_program_getc+0x45a>
1000314a:	0011      	movs	r1, r2
1000314c:	3942      	subs	r1, #66	; 0x42
1000314e:	2907      	cmp	r1, #7
10003150:	d800      	bhi.n	10003154 <CAN_Rx_program_getc+0x278>
10003152:	e0e6      	b.n	10003322 <CAN_Rx_program_getc+0x446>
10003154:	0011      	movs	r1, r2
10003156:	394a      	subs	r1, #74	; 0x4a
10003158:	2907      	cmp	r1, #7
1000315a:	d800      	bhi.n	1000315e <CAN_Rx_program_getc+0x282>
1000315c:	e0d7      	b.n	1000330e <CAN_Rx_program_getc+0x432>
1000315e:	0011      	movs	r1, r2
10003160:	3952      	subs	r1, #82	; 0x52
10003162:	290e      	cmp	r1, #14
10003164:	d99f      	bls.n	100030a6 <CAN_Rx_program_getc+0x1ca>
10003166:	2a61      	cmp	r2, #97	; 0x61
10003168:	d184      	bne.n	10003074 <CAN_Rx_program_getc+0x198>
1000316a:	2b00      	cmp	r3, #0
1000316c:	d000      	beq.n	10003170 <CAN_Rx_program_getc+0x294>
1000316e:	e76e      	b.n	1000304e <CAN_Rx_program_getc+0x172>
10003170:	4820      	ldr	r0, [pc, #128]	; (100031f4 <CAN_Rx_program_getc+0x318>)
10003172:	e7b0      	b.n	100030d6 <CAN_Rx_program_getc+0x1fa>
10003174:	0011      	movs	r1, r2
10003176:	3912      	subs	r1, #18
10003178:	2907      	cmp	r1, #7
1000317a:	d800      	bhi.n	1000317e <CAN_Rx_program_getc+0x2a2>
1000317c:	e092      	b.n	100032a4 <CAN_Rx_program_getc+0x3c8>
1000317e:	0011      	movs	r1, r2
10003180:	391a      	subs	r1, #26
10003182:	290e      	cmp	r1, #14
10003184:	d98f      	bls.n	100030a6 <CAN_Rx_program_getc+0x1ca>
10003186:	2a29      	cmp	r2, #41	; 0x29
10003188:	d000      	beq.n	1000318c <CAN_Rx_program_getc+0x2b0>
1000318a:	e773      	b.n	10003074 <CAN_Rx_program_getc+0x198>
1000318c:	2b00      	cmp	r3, #0
1000318e:	d000      	beq.n	10003192 <CAN_Rx_program_getc+0x2b6>
10003190:	e75d      	b.n	1000304e <CAN_Rx_program_getc+0x172>
10003192:	4819      	ldr	r0, [pc, #100]	; (100031f8 <CAN_Rx_program_getc+0x31c>)
10003194:	e79f      	b.n	100030d6 <CAN_Rx_program_getc+0x1fa>
10003196:	4819      	ldr	r0, [pc, #100]	; (100031fc <CAN_Rx_program_getc+0x320>)
10003198:	e79d      	b.n	100030d6 <CAN_Rx_program_getc+0x1fa>
1000319a:	0011      	movs	r1, r2
1000319c:	3912      	subs	r1, #18
1000319e:	2907      	cmp	r1, #7
100031a0:	d800      	bhi.n	100031a4 <CAN_Rx_program_getc+0x2c8>
100031a2:	e07f      	b.n	100032a4 <CAN_Rx_program_getc+0x3c8>
100031a4:	0011      	movs	r1, r2
100031a6:	391a      	subs	r1, #26
100031a8:	2907      	cmp	r1, #7
100031aa:	d971      	bls.n	10003290 <CAN_Rx_program_getc+0x3b4>
100031ac:	0011      	movs	r1, r2
100031ae:	3922      	subs	r1, #34	; 0x22
100031b0:	2907      	cmp	r1, #7
100031b2:	d963      	bls.n	1000327c <CAN_Rx_program_getc+0x3a0>
100031b4:	0011      	movs	r1, r2
100031b6:	392a      	subs	r1, #42	; 0x2a
100031b8:	290e      	cmp	r1, #14
100031ba:	d800      	bhi.n	100031be <CAN_Rx_program_getc+0x2e2>
100031bc:	e773      	b.n	100030a6 <CAN_Rx_program_getc+0x1ca>
100031be:	2a39      	cmp	r2, #57	; 0x39
100031c0:	d000      	beq.n	100031c4 <CAN_Rx_program_getc+0x2e8>
100031c2:	e757      	b.n	10003074 <CAN_Rx_program_getc+0x198>
100031c4:	2b00      	cmp	r3, #0
100031c6:	d000      	beq.n	100031ca <CAN_Rx_program_getc+0x2ee>
100031c8:	e741      	b.n	1000304e <CAN_Rx_program_getc+0x172>
100031ca:	480d      	ldr	r0, [pc, #52]	; (10003200 <CAN_Rx_program_getc+0x324>)
100031cc:	e783      	b.n	100030d6 <CAN_Rx_program_getc+0x1fa>
100031ce:	46c0      	nop			; (mov r8, r8)
100031d0:	20000f38 	.word	0x20000f38
100031d4:	20000b80 	.word	0x20000b80
100031d8:	20001688 	.word	0x20001688
100031dc:	20001708 	.word	0x20001708
100031e0:	20001708 	.word	0x20001708
100031e4:	20000248 	.word	0x20000248
100031e8:	20000b7c 	.word	0x20000b7c
100031ec:	20001718 	.word	0x20001718
100031f0:	1000b4e0 	.word	0x1000b4e0
100031f4:	1000b5c8 	.word	0x1000b5c8
100031f8:	1000b520 	.word	0x1000b520
100031fc:	1000b4f4 	.word	0x1000b4f4
10003200:	1000b550 	.word	0x1000b550
10003204:	0011      	movs	r1, r2
10003206:	3912      	subs	r1, #18
10003208:	2907      	cmp	r1, #7
1000320a:	d94b      	bls.n	100032a4 <CAN_Rx_program_getc+0x3c8>
1000320c:	0011      	movs	r1, r2
1000320e:	391a      	subs	r1, #26
10003210:	2907      	cmp	r1, #7
10003212:	d93d      	bls.n	10003290 <CAN_Rx_program_getc+0x3b4>
10003214:	0011      	movs	r1, r2
10003216:	3922      	subs	r1, #34	; 0x22
10003218:	290e      	cmp	r1, #14
1000321a:	d800      	bhi.n	1000321e <CAN_Rx_program_getc+0x342>
1000321c:	e743      	b.n	100030a6 <CAN_Rx_program_getc+0x1ca>
1000321e:	2a31      	cmp	r2, #49	; 0x31
10003220:	d000      	beq.n	10003224 <CAN_Rx_program_getc+0x348>
10003222:	e727      	b.n	10003074 <CAN_Rx_program_getc+0x198>
10003224:	2b00      	cmp	r3, #0
10003226:	d000      	beq.n	1000322a <CAN_Rx_program_getc+0x34e>
10003228:	e711      	b.n	1000304e <CAN_Rx_program_getc+0x172>
1000322a:	4872      	ldr	r0, [pc, #456]	; (100033f4 <CAN_Rx_program_getc+0x518>)
1000322c:	e753      	b.n	100030d6 <CAN_Rx_program_getc+0x1fa>
1000322e:	0011      	movs	r1, r2
10003230:	3912      	subs	r1, #18
10003232:	2907      	cmp	r1, #7
10003234:	d936      	bls.n	100032a4 <CAN_Rx_program_getc+0x3c8>
10003236:	0011      	movs	r1, r2
10003238:	391a      	subs	r1, #26
1000323a:	2907      	cmp	r1, #7
1000323c:	d928      	bls.n	10003290 <CAN_Rx_program_getc+0x3b4>
1000323e:	0011      	movs	r1, r2
10003240:	3922      	subs	r1, #34	; 0x22
10003242:	2907      	cmp	r1, #7
10003244:	d91a      	bls.n	1000327c <CAN_Rx_program_getc+0x3a0>
10003246:	0011      	movs	r1, r2
10003248:	392a      	subs	r1, #42	; 0x2a
1000324a:	2907      	cmp	r1, #7
1000324c:	d90c      	bls.n	10003268 <CAN_Rx_program_getc+0x38c>
1000324e:	0011      	movs	r1, r2
10003250:	3932      	subs	r1, #50	; 0x32
10003252:	290e      	cmp	r1, #14
10003254:	d800      	bhi.n	10003258 <CAN_Rx_program_getc+0x37c>
10003256:	e726      	b.n	100030a6 <CAN_Rx_program_getc+0x1ca>
10003258:	2a41      	cmp	r2, #65	; 0x41
1000325a:	d000      	beq.n	1000325e <CAN_Rx_program_getc+0x382>
1000325c:	e70a      	b.n	10003074 <CAN_Rx_program_getc+0x198>
1000325e:	2b00      	cmp	r3, #0
10003260:	d000      	beq.n	10003264 <CAN_Rx_program_getc+0x388>
10003262:	e6f4      	b.n	1000304e <CAN_Rx_program_getc+0x172>
10003264:	4864      	ldr	r0, [pc, #400]	; (100033f8 <CAN_Rx_program_getc+0x51c>)
10003266:	e736      	b.n	100030d6 <CAN_Rx_program_getc+0x1fa>
10003268:	79b9      	ldrb	r1, [r7, #6]
1000326a:	3201      	adds	r2, #1
1000326c:	0049      	lsls	r1, r1, #1
1000326e:	430b      	orrs	r3, r1
10003270:	71bb      	strb	r3, [r7, #6]
10003272:	465b      	mov	r3, fp
10003274:	601a      	str	r2, [r3, #0]
10003276:	2300      	movs	r3, #0
10003278:	4698      	mov	r8, r3
1000327a:	e65a      	b.n	10002f32 <CAN_Rx_program_getc+0x56>
1000327c:	7979      	ldrb	r1, [r7, #5]
1000327e:	3201      	adds	r2, #1
10003280:	0049      	lsls	r1, r1, #1
10003282:	430b      	orrs	r3, r1
10003284:	717b      	strb	r3, [r7, #5]
10003286:	465b      	mov	r3, fp
10003288:	601a      	str	r2, [r3, #0]
1000328a:	2300      	movs	r3, #0
1000328c:	4698      	mov	r8, r3
1000328e:	e650      	b.n	10002f32 <CAN_Rx_program_getc+0x56>
10003290:	7939      	ldrb	r1, [r7, #4]
10003292:	3201      	adds	r2, #1
10003294:	0049      	lsls	r1, r1, #1
10003296:	430b      	orrs	r3, r1
10003298:	713b      	strb	r3, [r7, #4]
1000329a:	465b      	mov	r3, fp
1000329c:	601a      	str	r2, [r3, #0]
1000329e:	2300      	movs	r3, #0
100032a0:	4698      	mov	r8, r3
100032a2:	e646      	b.n	10002f32 <CAN_Rx_program_getc+0x56>
100032a4:	78f9      	ldrb	r1, [r7, #3]
100032a6:	3201      	adds	r2, #1
100032a8:	0049      	lsls	r1, r1, #1
100032aa:	430b      	orrs	r3, r1
100032ac:	70fb      	strb	r3, [r7, #3]
100032ae:	465b      	mov	r3, fp
100032b0:	601a      	str	r2, [r3, #0]
100032b2:	2300      	movs	r3, #0
100032b4:	4698      	mov	r8, r3
100032b6:	e63c      	b.n	10002f32 <CAN_Rx_program_getc+0x56>
100032b8:	4850      	ldr	r0, [pc, #320]	; (100033fc <CAN_Rx_program_getc+0x520>)
100032ba:	e70c      	b.n	100030d6 <CAN_Rx_program_getc+0x1fa>
100032bc:	0011      	movs	r1, r2
100032be:	3912      	subs	r1, #18
100032c0:	2907      	cmp	r1, #7
100032c2:	d9ef      	bls.n	100032a4 <CAN_Rx_program_getc+0x3c8>
100032c4:	0011      	movs	r1, r2
100032c6:	391a      	subs	r1, #26
100032c8:	2907      	cmp	r1, #7
100032ca:	d9e1      	bls.n	10003290 <CAN_Rx_program_getc+0x3b4>
100032cc:	0011      	movs	r1, r2
100032ce:	3922      	subs	r1, #34	; 0x22
100032d0:	2907      	cmp	r1, #7
100032d2:	d9d3      	bls.n	1000327c <CAN_Rx_program_getc+0x3a0>
100032d4:	0011      	movs	r1, r2
100032d6:	392a      	subs	r1, #42	; 0x2a
100032d8:	2907      	cmp	r1, #7
100032da:	d9c5      	bls.n	10003268 <CAN_Rx_program_getc+0x38c>
100032dc:	0011      	movs	r1, r2
100032de:	3932      	subs	r1, #50	; 0x32
100032e0:	2907      	cmp	r1, #7
100032e2:	d932      	bls.n	1000334a <CAN_Rx_program_getc+0x46e>
100032e4:	0011      	movs	r1, r2
100032e6:	393a      	subs	r1, #58	; 0x3a
100032e8:	2907      	cmp	r1, #7
100032ea:	d924      	bls.n	10003336 <CAN_Rx_program_getc+0x45a>
100032ec:	0011      	movs	r1, r2
100032ee:	3942      	subs	r1, #66	; 0x42
100032f0:	2907      	cmp	r1, #7
100032f2:	d916      	bls.n	10003322 <CAN_Rx_program_getc+0x446>
100032f4:	0011      	movs	r1, r2
100032f6:	394a      	subs	r1, #74	; 0x4a
100032f8:	290e      	cmp	r1, #14
100032fa:	d800      	bhi.n	100032fe <CAN_Rx_program_getc+0x422>
100032fc:	e6d3      	b.n	100030a6 <CAN_Rx_program_getc+0x1ca>
100032fe:	2a59      	cmp	r2, #89	; 0x59
10003300:	d000      	beq.n	10003304 <CAN_Rx_program_getc+0x428>
10003302:	e6b7      	b.n	10003074 <CAN_Rx_program_getc+0x198>
10003304:	2b00      	cmp	r3, #0
10003306:	d000      	beq.n	1000330a <CAN_Rx_program_getc+0x42e>
10003308:	e6a1      	b.n	1000304e <CAN_Rx_program_getc+0x172>
1000330a:	483d      	ldr	r0, [pc, #244]	; (10003400 <CAN_Rx_program_getc+0x524>)
1000330c:	e6e3      	b.n	100030d6 <CAN_Rx_program_getc+0x1fa>
1000330e:	7ab9      	ldrb	r1, [r7, #10]
10003310:	3201      	adds	r2, #1
10003312:	0049      	lsls	r1, r1, #1
10003314:	430b      	orrs	r3, r1
10003316:	72bb      	strb	r3, [r7, #10]
10003318:	465b      	mov	r3, fp
1000331a:	601a      	str	r2, [r3, #0]
1000331c:	2300      	movs	r3, #0
1000331e:	4698      	mov	r8, r3
10003320:	e607      	b.n	10002f32 <CAN_Rx_program_getc+0x56>
10003322:	7a79      	ldrb	r1, [r7, #9]
10003324:	3201      	adds	r2, #1
10003326:	0049      	lsls	r1, r1, #1
10003328:	430b      	orrs	r3, r1
1000332a:	727b      	strb	r3, [r7, #9]
1000332c:	465b      	mov	r3, fp
1000332e:	601a      	str	r2, [r3, #0]
10003330:	2300      	movs	r3, #0
10003332:	4698      	mov	r8, r3
10003334:	e5fd      	b.n	10002f32 <CAN_Rx_program_getc+0x56>
10003336:	7a39      	ldrb	r1, [r7, #8]
10003338:	3201      	adds	r2, #1
1000333a:	0049      	lsls	r1, r1, #1
1000333c:	430b      	orrs	r3, r1
1000333e:	723b      	strb	r3, [r7, #8]
10003340:	465b      	mov	r3, fp
10003342:	601a      	str	r2, [r3, #0]
10003344:	2300      	movs	r3, #0
10003346:	4698      	mov	r8, r3
10003348:	e5f3      	b.n	10002f32 <CAN_Rx_program_getc+0x56>
1000334a:	79f9      	ldrb	r1, [r7, #7]
1000334c:	3201      	adds	r2, #1
1000334e:	0049      	lsls	r1, r1, #1
10003350:	430b      	orrs	r3, r1
10003352:	71fb      	strb	r3, [r7, #7]
10003354:	465b      	mov	r3, fp
10003356:	601a      	str	r2, [r3, #0]
10003358:	2300      	movs	r3, #0
1000335a:	4698      	mov	r8, r3
1000335c:	e5e9      	b.n	10002f32 <CAN_Rx_program_getc+0x56>
1000335e:	0011      	movs	r1, r2
10003360:	3912      	subs	r1, #18
10003362:	2907      	cmp	r1, #7
10003364:	d99e      	bls.n	100032a4 <CAN_Rx_program_getc+0x3c8>
10003366:	0011      	movs	r1, r2
10003368:	391a      	subs	r1, #26
1000336a:	2907      	cmp	r1, #7
1000336c:	d990      	bls.n	10003290 <CAN_Rx_program_getc+0x3b4>
1000336e:	0011      	movs	r1, r2
10003370:	3922      	subs	r1, #34	; 0x22
10003372:	2907      	cmp	r1, #7
10003374:	d982      	bls.n	1000327c <CAN_Rx_program_getc+0x3a0>
10003376:	0011      	movs	r1, r2
10003378:	392a      	subs	r1, #42	; 0x2a
1000337a:	2907      	cmp	r1, #7
1000337c:	d800      	bhi.n	10003380 <CAN_Rx_program_getc+0x4a4>
1000337e:	e773      	b.n	10003268 <CAN_Rx_program_getc+0x38c>
10003380:	0011      	movs	r1, r2
10003382:	3932      	subs	r1, #50	; 0x32
10003384:	2907      	cmp	r1, #7
10003386:	d9e0      	bls.n	1000334a <CAN_Rx_program_getc+0x46e>
10003388:	0011      	movs	r1, r2
1000338a:	393a      	subs	r1, #58	; 0x3a
1000338c:	2907      	cmp	r1, #7
1000338e:	d9d2      	bls.n	10003336 <CAN_Rx_program_getc+0x45a>
10003390:	0011      	movs	r1, r2
10003392:	3942      	subs	r1, #66	; 0x42
10003394:	290e      	cmp	r1, #14
10003396:	d800      	bhi.n	1000339a <CAN_Rx_program_getc+0x4be>
10003398:	e685      	b.n	100030a6 <CAN_Rx_program_getc+0x1ca>
1000339a:	2a51      	cmp	r2, #81	; 0x51
1000339c:	d000      	beq.n	100033a0 <CAN_Rx_program_getc+0x4c4>
1000339e:	e669      	b.n	10003074 <CAN_Rx_program_getc+0x198>
100033a0:	2b00      	cmp	r3, #0
100033a2:	d000      	beq.n	100033a6 <CAN_Rx_program_getc+0x4ca>
100033a4:	e653      	b.n	1000304e <CAN_Rx_program_getc+0x172>
100033a6:	4817      	ldr	r0, [pc, #92]	; (10003404 <CAN_Rx_program_getc+0x528>)
100033a8:	e695      	b.n	100030d6 <CAN_Rx_program_getc+0x1fa>
100033aa:	0011      	movs	r1, r2
100033ac:	3912      	subs	r1, #18
100033ae:	2907      	cmp	r1, #7
100033b0:	d800      	bhi.n	100033b4 <CAN_Rx_program_getc+0x4d8>
100033b2:	e777      	b.n	100032a4 <CAN_Rx_program_getc+0x3c8>
100033b4:	0011      	movs	r1, r2
100033b6:	391a      	subs	r1, #26
100033b8:	2907      	cmp	r1, #7
100033ba:	d800      	bhi.n	100033be <CAN_Rx_program_getc+0x4e2>
100033bc:	e768      	b.n	10003290 <CAN_Rx_program_getc+0x3b4>
100033be:	0011      	movs	r1, r2
100033c0:	3922      	subs	r1, #34	; 0x22
100033c2:	2907      	cmp	r1, #7
100033c4:	d800      	bhi.n	100033c8 <CAN_Rx_program_getc+0x4ec>
100033c6:	e759      	b.n	1000327c <CAN_Rx_program_getc+0x3a0>
100033c8:	0011      	movs	r1, r2
100033ca:	392a      	subs	r1, #42	; 0x2a
100033cc:	2907      	cmp	r1, #7
100033ce:	d800      	bhi.n	100033d2 <CAN_Rx_program_getc+0x4f6>
100033d0:	e74a      	b.n	10003268 <CAN_Rx_program_getc+0x38c>
100033d2:	0011      	movs	r1, r2
100033d4:	3932      	subs	r1, #50	; 0x32
100033d6:	2907      	cmp	r1, #7
100033d8:	d9b7      	bls.n	1000334a <CAN_Rx_program_getc+0x46e>
100033da:	0011      	movs	r1, r2
100033dc:	393a      	subs	r1, #58	; 0x3a
100033de:	290e      	cmp	r1, #14
100033e0:	d800      	bhi.n	100033e4 <CAN_Rx_program_getc+0x508>
100033e2:	e660      	b.n	100030a6 <CAN_Rx_program_getc+0x1ca>
100033e4:	2a49      	cmp	r2, #73	; 0x49
100033e6:	d000      	beq.n	100033ea <CAN_Rx_program_getc+0x50e>
100033e8:	e644      	b.n	10003074 <CAN_Rx_program_getc+0x198>
100033ea:	2b00      	cmp	r3, #0
100033ec:	d000      	beq.n	100033f0 <CAN_Rx_program_getc+0x514>
100033ee:	e62e      	b.n	1000304e <CAN_Rx_program_getc+0x172>
100033f0:	4805      	ldr	r0, [pc, #20]	; (10003408 <CAN_Rx_program_getc+0x52c>)
100033f2:	e670      	b.n	100030d6 <CAN_Rx_program_getc+0x1fa>
100033f4:	1000b538 	.word	0x1000b538
100033f8:	1000b568 	.word	0x1000b568
100033fc:	1000b508 	.word	0x1000b508
10003400:	1000b5b0 	.word	0x1000b5b0
10003404:	1000b598 	.word	0x1000b598
10003408:	1000b580 	.word	0x1000b580

1000340c <gpio_irq_handler>:
1000340c:	23d0      	movs	r3, #208	; 0xd0
1000340e:	b5f0      	push	{r4, r5, r6, r7, lr}
10003410:	46c6      	mov	lr, r8
10003412:	061b      	lsls	r3, r3, #24
10003414:	681b      	ldr	r3, [r3, #0]
10003416:	b500      	push	{lr}
10003418:	2b00      	cmp	r3, #0
1000341a:	d126      	bne.n	1000346a <gpio_irq_handler+0x5e>
1000341c:	4f14      	ldr	r7, [pc, #80]	; (10003470 <gpio_irq_handler+0x64>)
1000341e:	4b15      	ldr	r3, [pc, #84]	; (10003474 <gpio_irq_handler+0x68>)
10003420:	2400      	movs	r4, #0
10003422:	2607      	movs	r6, #7
10003424:	250f      	movs	r5, #15
10003426:	4698      	mov	r8, r3
10003428:	08e2      	lsrs	r2, r4, #3
1000342a:	0013      	movs	r3, r2
1000342c:	3308      	adds	r3, #8
1000342e:	009b      	lsls	r3, r3, #2
10003430:	59d9      	ldr	r1, [r3, r7]
10003432:	0033      	movs	r3, r6
10003434:	4023      	ands	r3, r4
10003436:	009b      	lsls	r3, r3, #2
10003438:	40d9      	lsrs	r1, r3
1000343a:	4029      	ands	r1, r5
1000343c:	d00f      	beq.n	1000345e <gpio_irq_handler+0x52>
1000343e:	0008      	movs	r0, r1
10003440:	4098      	lsls	r0, r3
10003442:	323c      	adds	r2, #60	; 0x3c
10003444:	4b0c      	ldr	r3, [pc, #48]	; (10003478 <gpio_irq_handler+0x6c>)
10003446:	0092      	lsls	r2, r2, #2
10003448:	50d0      	str	r0, [r2, r3]
1000344a:	23d0      	movs	r3, #208	; 0xd0
1000344c:	4642      	mov	r2, r8
1000344e:	061b      	lsls	r3, r3, #24
10003450:	681b      	ldr	r3, [r3, #0]
10003452:	009b      	lsls	r3, r3, #2
10003454:	589b      	ldr	r3, [r3, r2]
10003456:	2b00      	cmp	r3, #0
10003458:	d001      	beq.n	1000345e <gpio_irq_handler+0x52>
1000345a:	0020      	movs	r0, r4
1000345c:	4798      	blx	r3
1000345e:	3401      	adds	r4, #1
10003460:	2c1e      	cmp	r4, #30
10003462:	d1e1      	bne.n	10003428 <gpio_irq_handler+0x1c>
10003464:	bc04      	pop	{r2}
10003466:	4690      	mov	r8, r2
10003468:	bdf0      	pop	{r4, r5, r6, r7, pc}
1000346a:	4f04      	ldr	r7, [pc, #16]	; (1000347c <gpio_irq_handler+0x70>)
1000346c:	e7d7      	b.n	1000341e <gpio_irq_handler+0x12>
1000346e:	46c0      	nop			; (mov r8, r8)
10003470:	40014100 	.word	0x40014100
10003474:	20000bbc 	.word	0x20000bbc
10003478:	40014000 	.word	0x40014000
1000347c:	40014130 	.word	0x40014130

10003480 <gpio_set_function>:
10003480:	4a09      	ldr	r2, [pc, #36]	; (100034a8 <gpio_set_function+0x28>)
10003482:	0083      	lsls	r3, r0, #2
10003484:	4694      	mov	ip, r2
10003486:	2240      	movs	r2, #64	; 0x40
10003488:	4463      	add	r3, ip
1000348a:	b510      	push	{r4, lr}
1000348c:	681c      	ldr	r4, [r3, #0]
1000348e:	00c0      	lsls	r0, r0, #3
10003490:	4062      	eors	r2, r4
10003492:	24c0      	movs	r4, #192	; 0xc0
10003494:	4014      	ands	r4, r2
10003496:	2280      	movs	r2, #128	; 0x80
10003498:	0152      	lsls	r2, r2, #5
1000349a:	4313      	orrs	r3, r2
1000349c:	601c      	str	r4, [r3, #0]
1000349e:	4b03      	ldr	r3, [pc, #12]	; (100034ac <gpio_set_function+0x2c>)
100034a0:	469c      	mov	ip, r3
100034a2:	4460      	add	r0, ip
100034a4:	6041      	str	r1, [r0, #4]
100034a6:	bd10      	pop	{r4, pc}
100034a8:	4001c004 	.word	0x4001c004
100034ac:	40014000 	.word	0x40014000

100034b0 <gpio_set_pulls>:
100034b0:	4b0b      	ldr	r3, [pc, #44]	; (100034e0 <gpio_set_pulls+0x30>)
100034b2:	0080      	lsls	r0, r0, #2
100034b4:	469c      	mov	ip, r3
100034b6:	4460      	add	r0, ip
100034b8:	2900      	cmp	r1, #0
100034ba:	d00d      	beq.n	100034d8 <gpio_set_pulls+0x28>
100034bc:	210c      	movs	r1, #12
100034be:	2308      	movs	r3, #8
100034c0:	2a00      	cmp	r2, #0
100034c2:	d000      	beq.n	100034c6 <gpio_set_pulls+0x16>
100034c4:	000b      	movs	r3, r1
100034c6:	6802      	ldr	r2, [r0, #0]
100034c8:	4053      	eors	r3, r2
100034ca:	220c      	movs	r2, #12
100034cc:	401a      	ands	r2, r3
100034ce:	2380      	movs	r3, #128	; 0x80
100034d0:	015b      	lsls	r3, r3, #5
100034d2:	4318      	orrs	r0, r3
100034d4:	6002      	str	r2, [r0, #0]
100034d6:	4770      	bx	lr
100034d8:	2104      	movs	r1, #4
100034da:	2300      	movs	r3, #0
100034dc:	e7f0      	b.n	100034c0 <gpio_set_pulls+0x10>
100034de:	46c0      	nop			; (mov r8, r8)
100034e0:	4001c004 	.word	0x4001c004

100034e4 <gpio_set_irq_enabled_with_callback>:
100034e4:	b570      	push	{r4, r5, r6, lr}
100034e6:	24d0      	movs	r4, #208	; 0xd0
100034e8:	0624      	lsls	r4, r4, #24
100034ea:	6824      	ldr	r4, [r4, #0]
100034ec:	2c00      	cmp	r4, #0
100034ee:	d121      	bne.n	10003534 <gpio_set_irq_enabled_with_callback+0x50>
100034f0:	4e14      	ldr	r6, [pc, #80]	; (10003544 <gpio_set_irq_enabled_with_callback+0x60>)
100034f2:	2407      	movs	r4, #7
100034f4:	08c5      	lsrs	r5, r0, #3
100034f6:	4020      	ands	r0, r4
100034f8:	0080      	lsls	r0, r0, #2
100034fa:	4081      	lsls	r1, r0
100034fc:	0028      	movs	r0, r5
100034fe:	4c12      	ldr	r4, [pc, #72]	; (10003548 <gpio_set_irq_enabled_with_callback+0x64>)
10003500:	303c      	adds	r0, #60	; 0x3c
10003502:	0080      	lsls	r0, r0, #2
10003504:	00ad      	lsls	r5, r5, #2
10003506:	5101      	str	r1, [r0, r4]
10003508:	1975      	adds	r5, r6, r5
1000350a:	2a00      	cmp	r2, #0
1000350c:	d114      	bne.n	10003538 <gpio_set_irq_enabled_with_callback+0x54>
1000350e:	22c0      	movs	r2, #192	; 0xc0
10003510:	0192      	lsls	r2, r2, #6
10003512:	4315      	orrs	r5, r2
10003514:	6029      	str	r1, [r5, #0]
10003516:	22d0      	movs	r2, #208	; 0xd0
10003518:	0612      	lsls	r2, r2, #24
1000351a:	6812      	ldr	r2, [r2, #0]
1000351c:	490b      	ldr	r1, [pc, #44]	; (1000354c <gpio_set_irq_enabled_with_callback+0x68>)
1000351e:	0092      	lsls	r2, r2, #2
10003520:	5053      	str	r3, [r2, r1]
10003522:	200d      	movs	r0, #13
10003524:	490a      	ldr	r1, [pc, #40]	; (10003550 <gpio_set_irq_enabled_with_callback+0x6c>)
10003526:	f001 fc3f 	bl	10004da8 <irq_set_exclusive_handler>
1000352a:	2101      	movs	r1, #1
1000352c:	200d      	movs	r0, #13
1000352e:	f001 fc19 	bl	10004d64 <irq_set_enabled>
10003532:	bd70      	pop	{r4, r5, r6, pc}
10003534:	4e07      	ldr	r6, [pc, #28]	; (10003554 <gpio_set_irq_enabled_with_callback+0x70>)
10003536:	e7dc      	b.n	100034f2 <gpio_set_irq_enabled_with_callback+0xe>
10003538:	2280      	movs	r2, #128	; 0x80
1000353a:	0192      	lsls	r2, r2, #6
1000353c:	4315      	orrs	r5, r2
1000353e:	6029      	str	r1, [r5, #0]
10003540:	e7e9      	b.n	10003516 <gpio_set_irq_enabled_with_callback+0x32>
10003542:	46c0      	nop			; (mov r8, r8)
10003544:	40014100 	.word	0x40014100
10003548:	40014000 	.word	0x40014000
1000354c:	20000bbc 	.word	0x20000bbc
10003550:	1000340d 	.word	0x1000340d
10003554:	40014130 	.word	0x40014130

10003558 <gpio_init>:
10003558:	2301      	movs	r3, #1
1000355a:	22d0      	movs	r2, #208	; 0xd0
1000355c:	4083      	lsls	r3, r0
1000355e:	0612      	lsls	r2, r2, #24
10003560:	6293      	str	r3, [r2, #40]	; 0x28
10003562:	6193      	str	r3, [r2, #24]
10003564:	4a09      	ldr	r2, [pc, #36]	; (1000358c <gpio_init+0x34>)
10003566:	0083      	lsls	r3, r0, #2
10003568:	4694      	mov	ip, r2
1000356a:	2240      	movs	r2, #64	; 0x40
1000356c:	4463      	add	r3, ip
1000356e:	6819      	ldr	r1, [r3, #0]
10003570:	00c0      	lsls	r0, r0, #3
10003572:	404a      	eors	r2, r1
10003574:	21c0      	movs	r1, #192	; 0xc0
10003576:	4011      	ands	r1, r2
10003578:	2280      	movs	r2, #128	; 0x80
1000357a:	0152      	lsls	r2, r2, #5
1000357c:	4313      	orrs	r3, r2
1000357e:	6019      	str	r1, [r3, #0]
10003580:	4b03      	ldr	r3, [pc, #12]	; (10003590 <gpio_init+0x38>)
10003582:	469c      	mov	ip, r3
10003584:	2305      	movs	r3, #5
10003586:	4460      	add	r0, ip
10003588:	6043      	str	r3, [r0, #4]
1000358a:	4770      	bx	lr
1000358c:	4001c004 	.word	0x4001c004
10003590:	40014000 	.word	0x40014000

10003594 <hw_claim_lock>:
10003594:	f3ef 8010 	mrs	r0, PRIMASK
10003598:	b672      	cpsid	i
1000359a:	4a03      	ldr	r2, [pc, #12]	; (100035a8 <hw_claim_lock+0x14>)
1000359c:	6813      	ldr	r3, [r2, #0]
1000359e:	2b00      	cmp	r3, #0
100035a0:	d0fc      	beq.n	1000359c <hw_claim_lock+0x8>
100035a2:	f3bf 8f5f 	dmb	sy
100035a6:	4770      	bx	lr
100035a8:	d000012c 	.word	0xd000012c

100035ac <hw_claim_unlock>:
100035ac:	f3bf 8f5f 	dmb	sy
100035b0:	2200      	movs	r2, #0
100035b2:	4b02      	ldr	r3, [pc, #8]	; (100035bc <hw_claim_unlock+0x10>)
100035b4:	601a      	str	r2, [r3, #0]
100035b6:	f380 8810 	msr	PRIMASK, r0
100035ba:	4770      	bx	lr
100035bc:	d000012c 	.word	0xd000012c

100035c0 <hw_claim_or_assert>:
100035c0:	b5f8      	push	{r3, r4, r5, r6, r7, lr}
100035c2:	f3ef 8c10 	mrs	ip, PRIMASK
100035c6:	b672      	cpsid	i
100035c8:	4f0d      	ldr	r7, [pc, #52]	; (10003600 <hw_claim_or_assert+0x40>)
100035ca:	683b      	ldr	r3, [r7, #0]
100035cc:	2b00      	cmp	r3, #0
100035ce:	d0fc      	beq.n	100035ca <hw_claim_or_assert+0xa>
100035d0:	f3bf 8f5f 	dmb	sy
100035d4:	08cb      	lsrs	r3, r1, #3
100035d6:	18c0      	adds	r0, r0, r3
100035d8:	7805      	ldrb	r5, [r0, #0]
100035da:	2407      	movs	r4, #7
100035dc:	002b      	movs	r3, r5
100035de:	400c      	ands	r4, r1
100035e0:	40e3      	lsrs	r3, r4
100035e2:	2601      	movs	r6, #1
100035e4:	4033      	ands	r3, r6
100035e6:	d108      	bne.n	100035fa <hw_claim_or_assert+0x3a>
100035e8:	40a6      	lsls	r6, r4
100035ea:	4335      	orrs	r5, r6
100035ec:	7005      	strb	r5, [r0, #0]
100035ee:	f3bf 8f5f 	dmb	sy
100035f2:	603b      	str	r3, [r7, #0]
100035f4:	f38c 8810 	msr	PRIMASK, ip
100035f8:	bdf8      	pop	{r3, r4, r5, r6, r7, pc}
100035fa:	0010      	movs	r0, r2
100035fc:	f001 f9d4 	bl	100049a8 <panic>
10003600:	d000012c 	.word	0xd000012c

10003604 <hw_claim_unused_from_range>:
10003604:	b5f8      	push	{r3, r4, r5, r6, r7, lr}
10003606:	4647      	mov	r7, r8
10003608:	46ce      	mov	lr, r9
1000360a:	4688      	mov	r8, r1
1000360c:	b580      	push	{r7, lr}
1000360e:	f3ef 8c10 	mrs	ip, PRIMASK
10003612:	b672      	cpsid	i
10003614:	4d1d      	ldr	r5, [pc, #116]	; (1000368c <hw_claim_unused_from_range+0x88>)
10003616:	682c      	ldr	r4, [r5, #0]
10003618:	2c00      	cmp	r4, #0
1000361a:	d0fc      	beq.n	10003616 <hw_claim_unused_from_range+0x12>
1000361c:	f3bf 8f5f 	dmb	sy
10003620:	429a      	cmp	r2, r3
10003622:	d818      	bhi.n	10003656 <hw_claim_unused_from_range+0x52>
10003624:	08d4      	lsrs	r4, r2, #3
10003626:	1904      	adds	r4, r0, r4
10003628:	7826      	ldrb	r6, [r4, #0]
1000362a:	2507      	movs	r5, #7
1000362c:	0037      	movs	r7, r6
1000362e:	4015      	ands	r5, r2
10003630:	40ef      	lsrs	r7, r5
10003632:	07f9      	lsls	r1, r7, #31
10003634:	d51e      	bpl.n	10003674 <hw_claim_unused_from_range+0x70>
10003636:	2107      	movs	r1, #7
10003638:	4689      	mov	r9, r1
1000363a:	3906      	subs	r1, #6
1000363c:	e008      	b.n	10003650 <hw_claim_unused_from_range+0x4c>
1000363e:	08d4      	lsrs	r4, r2, #3
10003640:	1904      	adds	r4, r0, r4
10003642:	7826      	ldrb	r6, [r4, #0]
10003644:	464d      	mov	r5, r9
10003646:	0037      	movs	r7, r6
10003648:	4015      	ands	r5, r2
1000364a:	40ef      	lsrs	r7, r5
1000364c:	4239      	tst	r1, r7
1000364e:	d011      	beq.n	10003674 <hw_claim_unused_from_range+0x70>
10003650:	3201      	adds	r2, #1
10003652:	4293      	cmp	r3, r2
10003654:	d2f3      	bcs.n	1000363e <hw_claim_unused_from_range+0x3a>
10003656:	2001      	movs	r0, #1
10003658:	4240      	negs	r0, r0
1000365a:	f3bf 8f5f 	dmb	sy
1000365e:	2200      	movs	r2, #0
10003660:	4b0a      	ldr	r3, [pc, #40]	; (1000368c <hw_claim_unused_from_range+0x88>)
10003662:	601a      	str	r2, [r3, #0]
10003664:	f38c 8810 	msr	PRIMASK, ip
10003668:	2800      	cmp	r0, #0
1000366a:	db09      	blt.n	10003680 <hw_claim_unused_from_range+0x7c>
1000366c:	bc0c      	pop	{r2, r3}
1000366e:	4690      	mov	r8, r2
10003670:	4699      	mov	r9, r3
10003672:	bdf8      	pop	{r3, r4, r5, r6, r7, pc}
10003674:	2301      	movs	r3, #1
10003676:	40ab      	lsls	r3, r5
10003678:	431e      	orrs	r6, r3
1000367a:	7026      	strb	r6, [r4, #0]
1000367c:	0010      	movs	r0, r2
1000367e:	e7ec      	b.n	1000365a <hw_claim_unused_from_range+0x56>
10003680:	4643      	mov	r3, r8
10003682:	2b00      	cmp	r3, #0
10003684:	d0f2      	beq.n	1000366c <hw_claim_unused_from_range+0x68>
10003686:	9808      	ldr	r0, [sp, #32]
10003688:	f001 f98e 	bl	100049a8 <panic>
1000368c:	d000012c 	.word	0xd000012c

10003690 <spin_locks_reset>:
10003690:	2100      	movs	r1, #0
10003692:	4b04      	ldr	r3, [pc, #16]	; (100036a4 <spin_locks_reset+0x14>)
10003694:	4a04      	ldr	r2, [pc, #16]	; (100036a8 <spin_locks_reset+0x18>)
10003696:	f3bf 8f5f 	dmb	sy
1000369a:	c302      	stmia	r3!, {r1}
1000369c:	4293      	cmp	r3, r2
1000369e:	d1fa      	bne.n	10003696 <spin_locks_reset+0x6>
100036a0:	4770      	bx	lr
100036a2:	46c0      	nop			; (mov r8, r8)
100036a4:	d0000100 	.word	0xd0000100
100036a8:	d0000180 	.word	0xd0000180

100036ac <next_striped_spin_lock_num>:
100036ac:	4a04      	ldr	r2, [pc, #16]	; (100036c0 <next_striped_spin_lock_num+0x14>)
100036ae:	7810      	ldrb	r0, [r2, #0]
100036b0:	1c43      	adds	r3, r0, #1
100036b2:	b2db      	uxtb	r3, r3
100036b4:	2b17      	cmp	r3, #23
100036b6:	d900      	bls.n	100036ba <next_striped_spin_lock_num+0xe>
100036b8:	2310      	movs	r3, #16
100036ba:	7013      	strb	r3, [r2, #0]
100036bc:	4770      	bx	lr
100036be:	46c0      	nop			; (mov r8, r8)
100036c0:	2000024c 	.word	0x2000024c

100036c4 <spin_lock_claim_unused>:
100036c4:	b500      	push	{lr}
100036c6:	4b05      	ldr	r3, [pc, #20]	; (100036dc <spin_lock_claim_unused+0x18>)
100036c8:	b083      	sub	sp, #12
100036ca:	0001      	movs	r1, r0
100036cc:	9300      	str	r3, [sp, #0]
100036ce:	2218      	movs	r2, #24
100036d0:	231f      	movs	r3, #31
100036d2:	4803      	ldr	r0, [pc, #12]	; (100036e0 <spin_lock_claim_unused+0x1c>)
100036d4:	f7ff ff96 	bl	10003604 <hw_claim_unused_from_range>
100036d8:	b003      	add	sp, #12
100036da:	bd00      	pop	{pc}
100036dc:	1000b5e0 	.word	0x1000b5e0
100036e0:	20000f4c 	.word	0x20000f4c

100036e4 <running_on_fpga>:
100036e4:	4b02      	ldr	r3, [pc, #8]	; (100036f0 <running_on_fpga+0xc>)
100036e6:	6818      	ldr	r0, [r3, #0]
100036e8:	0780      	lsls	r0, r0, #30
100036ea:	0fc0      	lsrs	r0, r0, #31
100036ec:	4770      	bx	lr
100036ee:	46c0      	nop			; (mov r8, r8)
100036f0:	4006c000 	.word	0x4006c000

100036f4 <timer_pool_entry_comparator>:
100036f4:	6883      	ldr	r3, [r0, #8]
100036f6:	480b      	ldr	r0, [pc, #44]	; (10003724 <timer_pool_entry_comparator+0x30>)
100036f8:	b510      	push	{r4, lr}
100036fa:	4684      	mov	ip, r0
100036fc:	4461      	add	r1, ip
100036fe:	4462      	add	r2, ip
10003700:	0109      	lsls	r1, r1, #4
10003702:	0112      	lsls	r2, r2, #4
10003704:	189a      	adds	r2, r3, r2
10003706:	1859      	adds	r1, r3, r1
10003708:	6854      	ldr	r4, [r2, #4]
1000370a:	684b      	ldr	r3, [r1, #4]
1000370c:	2001      	movs	r0, #1
1000370e:	429c      	cmp	r4, r3
10003710:	d801      	bhi.n	10003716 <timer_pool_entry_comparator+0x22>
10003712:	d002      	beq.n	1000371a <timer_pool_entry_comparator+0x26>
10003714:	2000      	movs	r0, #0
10003716:	b2c0      	uxtb	r0, r0
10003718:	bd10      	pop	{r4, pc}
1000371a:	6812      	ldr	r2, [r2, #0]
1000371c:	680b      	ldr	r3, [r1, #0]
1000371e:	429a      	cmp	r2, r3
10003720:	d8f9      	bhi.n	10003716 <timer_pool_entry_comparator+0x22>
10003722:	e7f7      	b.n	10003714 <timer_pool_entry_comparator+0x20>
10003724:	0fffffff 	.word	0x0fffffff

10003728 <sev_callback>:
10003728:	bf40      	sev
1000372a:	2000      	movs	r0, #0
1000372c:	2100      	movs	r1, #0
1000372e:	4770      	bx	lr

10003730 <add_alarm_under_lock>:
10003730:	b5f8      	push	{r3, r4, r5, r6, r7, lr}
10003732:	464e      	mov	r6, r9
10003734:	4657      	mov	r7, sl
10003736:	4645      	mov	r5, r8
10003738:	46de      	mov	lr, fp
1000373a:	b5e0      	push	{r5, r6, r7, lr}
1000373c:	001f      	movs	r7, r3
1000373e:	ab0d      	add	r3, sp, #52	; 0x34
10003740:	781b      	ldrb	r3, [r3, #0]
10003742:	4680      	mov	r8, r0
10003744:	4699      	mov	r9, r3
10003746:	9b0c      	ldr	r3, [sp, #48]	; 0x30
10003748:	0016      	movs	r6, r2
1000374a:	2b00      	cmp	r3, #0
1000374c:	d035      	beq.n	100037ba <add_alarm_under_lock+0x8a>
1000374e:	2230      	movs	r2, #48	; 0x30
10003750:	466b      	mov	r3, sp
10003752:	189b      	adds	r3, r3, r2
10003754:	4642      	mov	r2, r8
10003756:	25ff      	movs	r5, #255	; 0xff
10003758:	6892      	ldr	r2, [r2, #8]
1000375a:	781b      	ldrb	r3, [r3, #0]
1000375c:	4694      	mov	ip, r2
1000375e:	469a      	mov	sl, r3
10003760:	9b0c      	ldr	r3, [sp, #48]	; 0x30
10003762:	9a0a      	ldr	r2, [sp, #40]	; 0x28
10003764:	401d      	ands	r5, r3
10003766:	4b3c      	ldr	r3, [pc, #240]	; (10003858 <add_alarm_under_lock+0x128>)
10003768:	18eb      	adds	r3, r5, r3
1000376a:	011b      	lsls	r3, r3, #4
1000376c:	4463      	add	r3, ip
1000376e:	609a      	str	r2, [r3, #8]
10003770:	9a0b      	ldr	r2, [sp, #44]	; 0x2c
10003772:	601e      	str	r6, [r3, #0]
10003774:	605f      	str	r7, [r3, #4]
10003776:	60da      	str	r2, [r3, #12]
10003778:	4643      	mov	r3, r8
1000377a:	681b      	ldr	r3, [r3, #0]
1000377c:	2200      	movs	r2, #0
1000377e:	469b      	mov	fp, r3
10003780:	006b      	lsls	r3, r5, #1
10003782:	195d      	adds	r5, r3, r5
10003784:	465b      	mov	r3, fp
10003786:	681b      	ldr	r3, [r3, #0]
10003788:	3d03      	subs	r5, #3
1000378a:	195b      	adds	r3, r3, r5
1000378c:	709a      	strb	r2, [r3, #2]
1000378e:	705a      	strb	r2, [r3, #1]
10003790:	701a      	strb	r2, [r3, #0]
10003792:	465b      	mov	r3, fp
10003794:	7b5c      	ldrb	r4, [r3, #13]
10003796:	2c00      	cmp	r4, #0
10003798:	d021      	beq.n	100037de <add_alarm_under_lock+0xae>
1000379a:	4653      	mov	r3, sl
1000379c:	2b00      	cmp	r3, #0
1000379e:	d120      	bne.n	100037e2 <add_alarm_under_lock+0xb2>
100037a0:	465b      	mov	r3, fp
100037a2:	735c      	strb	r4, [r3, #13]
100037a4:	9b0c      	ldr	r3, [sp, #48]	; 0x30
100037a6:	429c      	cmp	r4, r3
100037a8:	d032      	beq.n	10003810 <add_alarm_under_lock+0xe0>
100037aa:	001c      	movs	r4, r3
100037ac:	0020      	movs	r0, r4
100037ae:	bc3c      	pop	{r2, r3, r4, r5}
100037b0:	4690      	mov	r8, r2
100037b2:	4699      	mov	r9, r3
100037b4:	46a2      	mov	sl, r4
100037b6:	46ab      	mov	fp, r5
100037b8:	bdf8      	pop	{r3, r4, r5, r6, r7, pc}
100037ba:	6802      	ldr	r2, [r0, #0]
100037bc:	2400      	movs	r4, #0
100037be:	7b93      	ldrb	r3, [r2, #14]
100037c0:	2b00      	cmp	r3, #0
100037c2:	d0f3      	beq.n	100037ac <add_alarm_under_lock+0x7c>
100037c4:	6810      	ldr	r0, [r2, #0]
100037c6:	0059      	lsls	r1, r3, #1
100037c8:	4684      	mov	ip, r0
100037ca:	18c9      	adds	r1, r1, r3
100037cc:	4461      	add	r1, ip
100037ce:	3903      	subs	r1, #3
100037d0:	7849      	ldrb	r1, [r1, #1]
100037d2:	7391      	strb	r1, [r2, #14]
100037d4:	2900      	cmp	r1, #0
100037d6:	d100      	bne.n	100037da <add_alarm_under_lock+0xaa>
100037d8:	73d1      	strb	r1, [r2, #15]
100037da:	930c      	str	r3, [sp, #48]	; 0x30
100037dc:	e7b7      	b.n	1000374e <add_alarm_under_lock+0x1e>
100037de:	4654      	mov	r4, sl
100037e0:	e7de      	b.n	100037a0 <add_alarm_under_lock+0x70>
100037e2:	465b      	mov	r3, fp
100037e4:	4652      	mov	r2, sl
100037e6:	6898      	ldr	r0, [r3, #8]
100037e8:	0021      	movs	r1, r4
100037ea:	685b      	ldr	r3, [r3, #4]
100037ec:	4798      	blx	r3
100037ee:	465b      	mov	r3, fp
100037f0:	681a      	ldr	r2, [r3, #0]
100037f2:	2800      	cmp	r0, #0
100037f4:	d021      	beq.n	1000383a <add_alarm_under_lock+0x10a>
100037f6:	0063      	lsls	r3, r4, #1
100037f8:	191b      	adds	r3, r3, r4
100037fa:	1955      	adds	r5, r2, r5
100037fc:	3b03      	subs	r3, #3
100037fe:	18d3      	adds	r3, r2, r3
10003800:	70ac      	strb	r4, [r5, #2]
10003802:	781a      	ldrb	r2, [r3, #0]
10003804:	2a00      	cmp	r2, #0
10003806:	d000      	beq.n	1000380a <add_alarm_under_lock+0xda>
10003808:	706a      	strb	r2, [r5, #1]
1000380a:	4652      	mov	r2, sl
1000380c:	701a      	strb	r2, [r3, #0]
1000380e:	e7c7      	b.n	100037a0 <add_alarm_under_lock+0x70>
10003810:	4643      	mov	r3, r8
10003812:	0032      	movs	r2, r6
10003814:	7d18      	ldrb	r0, [r3, #20]
10003816:	003b      	movs	r3, r7
10003818:	f000 fcc4 	bl	100041a4 <hardware_alarm_set_target>
1000381c:	1e05      	subs	r5, r0, #0
1000381e:	d007      	beq.n	10003830 <add_alarm_under_lock+0x100>
10003820:	464b      	mov	r3, r9
10003822:	2b00      	cmp	r3, #0
10003824:	d104      	bne.n	10003830 <add_alarm_under_lock+0x100>
10003826:	4643      	mov	r3, r8
10003828:	4651      	mov	r1, sl
1000382a:	6818      	ldr	r0, [r3, #0]
1000382c:	f000 fefe 	bl	1000462c <ph_delete>
10003830:	9b0e      	ldr	r3, [sp, #56]	; 0x38
10003832:	2b00      	cmp	r3, #0
10003834:	d0ba      	beq.n	100037ac <add_alarm_under_lock+0x7c>
10003836:	701d      	strb	r5, [r3, #0]
10003838:	e7b8      	b.n	100037ac <add_alarm_under_lock+0x7c>
1000383a:	0063      	lsls	r3, r4, #1
1000383c:	191b      	adds	r3, r3, r4
1000383e:	3b03      	subs	r3, #3
10003840:	1955      	adds	r5, r2, r5
10003842:	18d3      	adds	r3, r2, r3
10003844:	4652      	mov	r2, sl
10003846:	709a      	strb	r2, [r3, #2]
10003848:	782a      	ldrb	r2, [r5, #0]
1000384a:	2a00      	cmp	r2, #0
1000384c:	d000      	beq.n	10003850 <add_alarm_under_lock+0x120>
1000384e:	705a      	strb	r2, [r3, #1]
10003850:	702c      	strb	r4, [r5, #0]
10003852:	4654      	mov	r4, sl
10003854:	e7a4      	b.n	100037a0 <add_alarm_under_lock+0x70>
10003856:	46c0      	nop			; (mov r8, r8)
10003858:	0fffffff 	.word	0x0fffffff

1000385c <alarm_pool_alarm_callback>:
1000385c:	b5f0      	push	{r4, r5, r6, r7, lr}
1000385e:	46de      	mov	lr, fp
10003860:	4645      	mov	r5, r8
10003862:	4657      	mov	r7, sl
10003864:	464e      	mov	r6, r9
10003866:	4b72      	ldr	r3, [pc, #456]	; (10003a30 <alarm_pool_alarm_callback+0x1d4>)
10003868:	0082      	lsls	r2, r0, #2
1000386a:	b5e0      	push	{r5, r6, r7, lr}
1000386c:	58d5      	ldr	r5, [r2, r3]
1000386e:	2300      	movs	r3, #0
10003870:	469b      	mov	fp, r3
10003872:	b08d      	sub	sp, #52	; 0x34
10003874:	900b      	str	r0, [sp, #44]	; 0x2c
10003876:	f000 fc33 	bl	100040e0 <time_us_64>
1000387a:	686b      	ldr	r3, [r5, #4]
1000387c:	f3ef 8410 	mrs	r4, PRIMASK
10003880:	b672      	cpsid	i
10003882:	681a      	ldr	r2, [r3, #0]
10003884:	2a00      	cmp	r2, #0
10003886:	d0fc      	beq.n	10003882 <alarm_pool_alarm_callback+0x26>
10003888:	f3bf 8f5f 	dmb	sy
1000388c:	682a      	ldr	r2, [r5, #0]
1000388e:	4694      	mov	ip, r2
10003890:	7b52      	ldrb	r2, [r2, #13]
10003892:	4691      	mov	r9, r2
10003894:	2a00      	cmp	r2, #0
10003896:	d100      	bne.n	1000389a <alarm_pool_alarm_callback+0x3e>
10003898:	e07c      	b.n	10003994 <alarm_pool_alarm_callback+0x138>
1000389a:	68aa      	ldr	r2, [r5, #8]
1000389c:	4b65      	ldr	r3, [pc, #404]	; (10003a34 <alarm_pool_alarm_callback+0x1d8>)
1000389e:	4690      	mov	r8, r2
100038a0:	444b      	add	r3, r9
100038a2:	011b      	lsls	r3, r3, #4
100038a4:	4498      	add	r8, r3
100038a6:	4643      	mov	r3, r8
100038a8:	681e      	ldr	r6, [r3, #0]
100038aa:	685f      	ldr	r7, [r3, #4]
100038ac:	0032      	movs	r2, r6
100038ae:	003b      	movs	r3, r7
100038b0:	1a12      	subs	r2, r2, r0
100038b2:	418b      	sbcs	r3, r1
100038b4:	2b00      	cmp	r3, #0
100038b6:	dc00      	bgt.n	100038ba <alarm_pool_alarm_callback+0x5e>
100038b8:	e085      	b.n	100039c6 <alarm_pool_alarm_callback+0x16a>
100038ba:	0032      	movs	r2, r6
100038bc:	003b      	movs	r3, r7
100038be:	980b      	ldr	r0, [sp, #44]	; 0x2c
100038c0:	f000 fc70 	bl	100041a4 <hardware_alarm_set_target>
100038c4:	2100      	movs	r1, #0
100038c6:	2200      	movs	r2, #0
100038c8:	2700      	movs	r7, #0
100038ca:	2600      	movs	r6, #0
100038cc:	9108      	str	r1, [sp, #32]
100038ce:	9209      	str	r2, [sp, #36]	; 0x24
100038d0:	686b      	ldr	r3, [r5, #4]
100038d2:	f3bf 8f5f 	dmb	sy
100038d6:	465a      	mov	r2, fp
100038d8:	601a      	str	r2, [r3, #0]
100038da:	f384 8810 	msr	PRIMASK, r4
100038de:	2e00      	cmp	r6, #0
100038e0:	d067      	beq.n	100039b2 <alarm_pool_alarm_callback+0x156>
100038e2:	4653      	mov	r3, sl
100038e4:	0218      	lsls	r0, r3, #8
100038e6:	464b      	mov	r3, r9
100038e8:	0039      	movs	r1, r7
100038ea:	4318      	orrs	r0, r3
100038ec:	47b0      	blx	r6
100038ee:	686a      	ldr	r2, [r5, #4]
100038f0:	9006      	str	r0, [sp, #24]
100038f2:	9107      	str	r1, [sp, #28]
100038f4:	f3ef 8810 	mrs	r8, PRIMASK
100038f8:	b672      	cpsid	i
100038fa:	4644      	mov	r4, r8
100038fc:	6813      	ldr	r3, [r2, #0]
100038fe:	2b00      	cmp	r3, #0
10003900:	d0fc      	beq.n	100038fc <alarm_pool_alarm_callback+0xa0>
10003902:	46a0      	mov	r8, r4
10003904:	f3bf 8f5f 	dmb	sy
10003908:	9906      	ldr	r1, [sp, #24]
1000390a:	9a07      	ldr	r2, [sp, #28]
1000390c:	2a00      	cmp	r2, #0
1000390e:	da24      	bge.n	1000395a <alarm_pool_alarm_callback+0xfe>
10003910:	692b      	ldr	r3, [r5, #16]
10003912:	2b00      	cmp	r3, #0
10003914:	d027      	beq.n	10003966 <alarm_pool_alarm_callback+0x10a>
10003916:	9b08      	ldr	r3, [sp, #32]
10003918:	9c09      	ldr	r4, [sp, #36]	; 0x24
1000391a:	1a5b      	subs	r3, r3, r1
1000391c:	4194      	sbcs	r4, r2
1000391e:	9808      	ldr	r0, [sp, #32]
10003920:	9909      	ldr	r1, [sp, #36]	; 0x24
10003922:	001a      	movs	r2, r3
10003924:	0023      	movs	r3, r4
10003926:	4299      	cmp	r1, r3
10003928:	d900      	bls.n	1000392c <alarm_pool_alarm_callback+0xd0>
1000392a:	e075      	b.n	10003a18 <alarm_pool_alarm_callback+0x1bc>
1000392c:	d100      	bne.n	10003930 <alarm_pool_alarm_callback+0xd4>
1000392e:	e077      	b.n	10003a20 <alarm_pool_alarm_callback+0x1c4>
10003930:	4659      	mov	r1, fp
10003932:	9104      	str	r1, [sp, #16]
10003934:	2101      	movs	r1, #1
10003936:	9103      	str	r1, [sp, #12]
10003938:	4649      	mov	r1, r9
1000393a:	9701      	str	r7, [sp, #4]
1000393c:	9102      	str	r1, [sp, #8]
1000393e:	9600      	str	r6, [sp, #0]
10003940:	0028      	movs	r0, r5
10003942:	f7ff fef5 	bl	10003730 <add_alarm_under_lock>
10003946:	465b      	mov	r3, fp
10003948:	612b      	str	r3, [r5, #16]
1000394a:	686b      	ldr	r3, [r5, #4]
1000394c:	f3bf 8f5f 	dmb	sy
10003950:	465a      	mov	r2, fp
10003952:	601a      	str	r2, [r3, #0]
10003954:	f388 8810 	msr	PRIMASK, r8
10003958:	e78d      	b.n	10003876 <alarm_pool_alarm_callback+0x1a>
1000395a:	0013      	movs	r3, r2
1000395c:	4319      	orrs	r1, r3
1000395e:	d002      	beq.n	10003966 <alarm_pool_alarm_callback+0x10a>
10003960:	692b      	ldr	r3, [r5, #16]
10003962:	2b00      	cmp	r3, #0
10003964:	d14b      	bne.n	100039fe <alarm_pool_alarm_callback+0x1a2>
10003966:	682b      	ldr	r3, [r5, #0]
10003968:	7bda      	ldrb	r2, [r3, #15]
1000396a:	2a00      	cmp	r2, #0
1000396c:	d007      	beq.n	1000397e <alarm_pool_alarm_callback+0x122>
1000396e:	0051      	lsls	r1, r2, #1
10003970:	188a      	adds	r2, r1, r2
10003972:	6819      	ldr	r1, [r3, #0]
10003974:	468c      	mov	ip, r1
10003976:	4649      	mov	r1, r9
10003978:	4462      	add	r2, ip
1000397a:	3a03      	subs	r2, #3
1000397c:	7051      	strb	r1, [r2, #1]
1000397e:	464a      	mov	r2, r9
10003980:	73da      	strb	r2, [r3, #15]
10003982:	68ea      	ldr	r2, [r5, #12]
10003984:	464b      	mov	r3, r9
10003986:	4694      	mov	ip, r2
10003988:	3b01      	subs	r3, #1
1000398a:	4463      	add	r3, ip
1000398c:	781a      	ldrb	r2, [r3, #0]
1000398e:	3201      	adds	r2, #1
10003990:	701a      	strb	r2, [r3, #0]
10003992:	e7d8      	b.n	10003946 <alarm_pool_alarm_callback+0xea>
10003994:	2100      	movs	r1, #0
10003996:	2200      	movs	r2, #0
10003998:	2700      	movs	r7, #0
1000399a:	9108      	str	r1, [sp, #32]
1000399c:	9209      	str	r2, [sp, #36]	; 0x24
1000399e:	2600      	movs	r6, #0
100039a0:	2000      	movs	r0, #0
100039a2:	f3bf 8f5f 	dmb	sy
100039a6:	465a      	mov	r2, fp
100039a8:	601a      	str	r2, [r3, #0]
100039aa:	f384 8810 	msr	PRIMASK, r4
100039ae:	2e00      	cmp	r6, #0
100039b0:	d197      	bne.n	100038e2 <alarm_pool_alarm_callback+0x86>
100039b2:	2800      	cmp	r0, #0
100039b4:	d000      	beq.n	100039b8 <alarm_pool_alarm_callback+0x15c>
100039b6:	e75e      	b.n	10003876 <alarm_pool_alarm_callback+0x1a>
100039b8:	b00d      	add	sp, #52	; 0x34
100039ba:	bc3c      	pop	{r2, r3, r4, r5}
100039bc:	4690      	mov	r8, r2
100039be:	4699      	mov	r9, r3
100039c0:	46a2      	mov	sl, r4
100039c2:	46ab      	mov	fp, r5
100039c4:	bdf0      	pop	{r4, r5, r6, r7, pc}
100039c6:	2b00      	cmp	r3, #0
100039c8:	d102      	bne.n	100039d0 <alarm_pool_alarm_callback+0x174>
100039ca:	2a00      	cmp	r2, #0
100039cc:	d000      	beq.n	100039d0 <alarm_pool_alarm_callback+0x174>
100039ce:	e774      	b.n	100038ba <alarm_pool_alarm_callback+0x5e>
100039d0:	2101      	movs	r1, #1
100039d2:	4660      	mov	r0, ip
100039d4:	f000 fd7e 	bl	100044d4 <ph_remove_head_reserve>
100039d8:	4643      	mov	r3, r8
100039da:	681a      	ldr	r2, [r3, #0]
100039dc:	685b      	ldr	r3, [r3, #4]
100039de:	9208      	str	r2, [sp, #32]
100039e0:	9309      	str	r3, [sp, #36]	; 0x24
100039e2:	4643      	mov	r3, r8
100039e4:	689e      	ldr	r6, [r3, #8]
100039e6:	68df      	ldr	r7, [r3, #12]
100039e8:	68eb      	ldr	r3, [r5, #12]
100039ea:	444b      	add	r3, r9
100039ec:	3b01      	subs	r3, #1
100039ee:	781b      	ldrb	r3, [r3, #0]
100039f0:	469a      	mov	sl, r3
100039f2:	021b      	lsls	r3, r3, #8
100039f4:	4318      	orrs	r0, r3
100039f6:	6128      	str	r0, [r5, #16]
100039f8:	686b      	ldr	r3, [r5, #4]
100039fa:	2000      	movs	r0, #0
100039fc:	e769      	b.n	100038d2 <alarm_pool_alarm_callback+0x76>
100039fe:	f000 fb6f 	bl	100040e0 <time_us_64>
10003a02:	9a06      	ldr	r2, [sp, #24]
10003a04:	9b07      	ldr	r3, [sp, #28]
10003a06:	1812      	adds	r2, r2, r0
10003a08:	414b      	adcs	r3, r1
10003a0a:	4299      	cmp	r1, r3
10003a0c:	d804      	bhi.n	10003a18 <alarm_pool_alarm_callback+0x1bc>
10003a0e:	d000      	beq.n	10003a12 <alarm_pool_alarm_callback+0x1b6>
10003a10:	e78e      	b.n	10003930 <alarm_pool_alarm_callback+0xd4>
10003a12:	4290      	cmp	r0, r2
10003a14:	d800      	bhi.n	10003a18 <alarm_pool_alarm_callback+0x1bc>
10003a16:	e78b      	b.n	10003930 <alarm_pool_alarm_callback+0xd4>
10003a18:	2201      	movs	r2, #1
10003a1a:	4252      	negs	r2, r2
10003a1c:	17d3      	asrs	r3, r2, #31
10003a1e:	e787      	b.n	10003930 <alarm_pool_alarm_callback+0xd4>
10003a20:	4290      	cmp	r0, r2
10003a22:	d800      	bhi.n	10003a26 <alarm_pool_alarm_callback+0x1ca>
10003a24:	e784      	b.n	10003930 <alarm_pool_alarm_callback+0xd4>
10003a26:	2201      	movs	r2, #1
10003a28:	4252      	negs	r2, r2
10003a2a:	17d3      	asrs	r3, r2, #31
10003a2c:	e780      	b.n	10003930 <alarm_pool_alarm_callback+0xd4>
10003a2e:	46c0      	nop			; (mov r8, r8)
10003a30:	20001638 	.word	0x20001638
10003a34:	0fffffff 	.word	0x0fffffff

10003a38 <alarm_pool_init_default>:
10003a38:	b570      	push	{r4, r5, r6, lr}
10003a3a:	4c18      	ldr	r4, [pc, #96]	; (10003a9c <alarm_pool_init_default+0x64>)
10003a3c:	6823      	ldr	r3, [r4, #0]
10003a3e:	2b00      	cmp	r3, #0
10003a40:	d000      	beq.n	10003a44 <alarm_pool_init_default+0xc>
10003a42:	bd70      	pop	{r4, r5, r6, pc}
10003a44:	2003      	movs	r0, #3
10003a46:	f000 fb3f 	bl	100040c8 <hardware_alarm_claim>
10003a4a:	2003      	movs	r0, #3
10003a4c:	f000 fc08 	bl	10004260 <hardware_alarm_cancel>
10003a50:	4913      	ldr	r1, [pc, #76]	; (10003aa0 <alarm_pool_init_default+0x68>)
10003a52:	2003      	movs	r0, #3
10003a54:	f000 fb60 	bl	10004118 <hardware_alarm_set_callback>
10003a58:	2018      	movs	r0, #24
10003a5a:	f003 fe81 	bl	10007760 <__wrap_malloc>
10003a5e:	0005      	movs	r5, r0
10003a60:	f7ff fe24 	bl	100036ac <next_striped_spin_lock_num>
10003a64:	4b0f      	ldr	r3, [pc, #60]	; (10003aa4 <alarm_pool_init_default+0x6c>)
10003a66:	002a      	movs	r2, r5
10003a68:	469c      	mov	ip, r3
10003a6a:	4460      	add	r0, ip
10003a6c:	0080      	lsls	r0, r0, #2
10003a6e:	6068      	str	r0, [r5, #4]
10003a70:	490d      	ldr	r1, [pc, #52]	; (10003aa8 <alarm_pool_init_default+0x70>)
10003a72:	2010      	movs	r0, #16
10003a74:	f000 fcfc 	bl	10004470 <ph_create>
10003a78:	2110      	movs	r1, #16
10003a7a:	6028      	str	r0, [r5, #0]
10003a7c:	2010      	movs	r0, #16
10003a7e:	f003 fe73 	bl	10007768 <__wrap_calloc>
10003a82:	2101      	movs	r1, #1
10003a84:	60a8      	str	r0, [r5, #8]
10003a86:	2010      	movs	r0, #16
10003a88:	f003 fe6e 	bl	10007768 <__wrap_calloc>
10003a8c:	2303      	movs	r3, #3
10003a8e:	752b      	strb	r3, [r5, #20]
10003a90:	4b06      	ldr	r3, [pc, #24]	; (10003aac <alarm_pool_init_default+0x74>)
10003a92:	60e8      	str	r0, [r5, #12]
10003a94:	60dd      	str	r5, [r3, #12]
10003a96:	6025      	str	r5, [r4, #0]
10003a98:	e7d3      	b.n	10003a42 <alarm_pool_init_default+0xa>
10003a9a:	46c0      	nop			; (mov r8, r8)
10003a9c:	20000f78 	.word	0x20000f78
10003aa0:	1000385d 	.word	0x1000385d
10003aa4:	34000040 	.word	0x34000040
10003aa8:	100036f5 	.word	0x100036f5
10003aac:	20001638 	.word	0x20001638

10003ab0 <alarm_pool_get_default>:
10003ab0:	4b01      	ldr	r3, [pc, #4]	; (10003ab8 <alarm_pool_get_default+0x8>)
10003ab2:	6818      	ldr	r0, [r3, #0]
10003ab4:	4770      	bx	lr
10003ab6:	46c0      	nop			; (mov r8, r8)
10003ab8:	20000f78 	.word	0x20000f78

10003abc <alarm_pool_add_alarm_at>:
10003abc:	b5f0      	push	{r4, r5, r6, r7, lr}
10003abe:	46de      	mov	lr, fp
10003ac0:	4657      	mov	r7, sl
10003ac2:	464e      	mov	r6, r9
10003ac4:	4645      	mov	r5, r8
10003ac6:	b5e0      	push	{r5, r6, r7, lr}
10003ac8:	b085      	sub	sp, #20
10003aca:	9200      	str	r2, [sp, #0]
10003acc:	9301      	str	r3, [sp, #4]
10003ace:	ab10      	add	r3, sp, #64	; 0x40
10003ad0:	781b      	ldrb	r3, [r3, #0]
10003ad2:	0007      	movs	r7, r0
10003ad4:	469b      	mov	fp, r3
10003ad6:	2300      	movs	r3, #0
10003ad8:	4699      	mov	r9, r3
10003ada:	4698      	mov	r8, r3
10003adc:	687b      	ldr	r3, [r7, #4]
10003ade:	f3ef 8a10 	mrs	sl, PRIMASK
10003ae2:	b672      	cpsid	i
10003ae4:	681a      	ldr	r2, [r3, #0]
10003ae6:	2a00      	cmp	r2, #0
10003ae8:	d0fc      	beq.n	10003ae4 <alarm_pool_add_alarm_at+0x28>
10003aea:	f3bf 8f5f 	dmb	sy
10003aee:	683d      	ldr	r5, [r7, #0]
10003af0:	7bac      	ldrb	r4, [r5, #14]
10003af2:	2c00      	cmp	r4, #0
10003af4:	d100      	bne.n	10003af8 <alarm_pool_add_alarm_at+0x3c>
10003af6:	e073      	b.n	10003be0 <alarm_pool_add_alarm_at+0x124>
10003af8:	0066      	lsls	r6, r4, #1
10003afa:	1936      	adds	r6, r6, r4
10003afc:	682b      	ldr	r3, [r5, #0]
10003afe:	3e03      	subs	r6, #3
10003b00:	199b      	adds	r3, r3, r6
10003b02:	785b      	ldrb	r3, [r3, #1]
10003b04:	73ab      	strb	r3, [r5, #14]
10003b06:	2b00      	cmp	r3, #0
10003b08:	d100      	bne.n	10003b0c <alarm_pool_add_alarm_at+0x50>
10003b0a:	73eb      	strb	r3, [r5, #15]
10003b0c:	68ba      	ldr	r2, [r7, #8]
10003b0e:	4b55      	ldr	r3, [pc, #340]	; (10003c64 <alarm_pool_add_alarm_at+0x1a8>)
10003b10:	4694      	mov	ip, r2
10003b12:	9900      	ldr	r1, [sp, #0]
10003b14:	9a01      	ldr	r2, [sp, #4]
10003b16:	18e3      	adds	r3, r4, r3
10003b18:	011b      	lsls	r3, r3, #4
10003b1a:	4463      	add	r3, ip
10003b1c:	6019      	str	r1, [r3, #0]
10003b1e:	605a      	str	r2, [r3, #4]
10003b20:	9a0e      	ldr	r2, [sp, #56]	; 0x38
10003b22:	9402      	str	r4, [sp, #8]
10003b24:	609a      	str	r2, [r3, #8]
10003b26:	9a0f      	ldr	r2, [sp, #60]	; 0x3c
10003b28:	60da      	str	r2, [r3, #12]
10003b2a:	4642      	mov	r2, r8
10003b2c:	682b      	ldr	r3, [r5, #0]
10003b2e:	199b      	adds	r3, r3, r6
10003b30:	709a      	strb	r2, [r3, #2]
10003b32:	705a      	strb	r2, [r3, #1]
10003b34:	701a      	strb	r2, [r3, #0]
10003b36:	7b6b      	ldrb	r3, [r5, #13]
10003b38:	9303      	str	r3, [sp, #12]
10003b3a:	2b00      	cmp	r3, #0
10003b3c:	d100      	bne.n	10003b40 <alarm_pool_add_alarm_at+0x84>
10003b3e:	e07e      	b.n	10003c3e <alarm_pool_add_alarm_at+0x182>
10003b40:	0019      	movs	r1, r3
10003b42:	686b      	ldr	r3, [r5, #4]
10003b44:	0022      	movs	r2, r4
10003b46:	68a8      	ldr	r0, [r5, #8]
10003b48:	469c      	mov	ip, r3
10003b4a:	47e0      	blx	ip
10003b4c:	682a      	ldr	r2, [r5, #0]
10003b4e:	2800      	cmp	r0, #0
10003b50:	d066      	beq.n	10003c20 <alarm_pool_add_alarm_at+0x164>
10003b52:	9803      	ldr	r0, [sp, #12]
10003b54:	1996      	adds	r6, r2, r6
10003b56:	4684      	mov	ip, r0
10003b58:	0043      	lsls	r3, r0, #1
10003b5a:	4463      	add	r3, ip
10003b5c:	3b03      	subs	r3, #3
10003b5e:	18d3      	adds	r3, r2, r3
10003b60:	70b0      	strb	r0, [r6, #2]
10003b62:	781a      	ldrb	r2, [r3, #0]
10003b64:	2a00      	cmp	r2, #0
10003b66:	d000      	beq.n	10003b6a <alarm_pool_add_alarm_at+0xae>
10003b68:	e078      	b.n	10003c5c <alarm_pool_add_alarm_at+0x1a0>
10003b6a:	701c      	strb	r4, [r3, #0]
10003b6c:	7368      	strb	r0, [r5, #13]
10003b6e:	4284      	cmp	r4, r0
10003b70:	d066      	beq.n	10003c40 <alarm_pool_add_alarm_at+0x184>
10003b72:	68fb      	ldr	r3, [r7, #12]
10003b74:	191b      	adds	r3, r3, r4
10003b76:	3b01      	subs	r3, #1
10003b78:	7818      	ldrb	r0, [r3, #0]
10003b7a:	687b      	ldr	r3, [r7, #4]
10003b7c:	f3bf 8f5f 	dmb	sy
10003b80:	4642      	mov	r2, r8
10003b82:	601a      	str	r2, [r3, #0]
10003b84:	f38a 8810 	msr	PRIMASK, sl
10003b88:	2c00      	cmp	r4, #0
10003b8a:	d034      	beq.n	10003bf6 <alarm_pool_add_alarm_at+0x13a>
10003b8c:	464b      	mov	r3, r9
10003b8e:	2b00      	cmp	r3, #0
10003b90:	d109      	bne.n	10003ba6 <alarm_pool_add_alarm_at+0xea>
10003b92:	9b02      	ldr	r3, [sp, #8]
10003b94:	0200      	lsls	r0, r0, #8
10003b96:	4318      	orrs	r0, r3
10003b98:	b005      	add	sp, #20
10003b9a:	bc3c      	pop	{r2, r3, r4, r5}
10003b9c:	4690      	mov	r8, r2
10003b9e:	4699      	mov	r9, r3
10003ba0:	46a2      	mov	sl, r4
10003ba2:	46ab      	mov	fp, r5
10003ba4:	bdf0      	pop	{r4, r5, r6, r7, pc}
10003ba6:	465b      	mov	r3, fp
10003ba8:	2b00      	cmp	r3, #0
10003baa:	d059      	beq.n	10003c60 <alarm_pool_add_alarm_at+0x1a4>
10003bac:	9b0e      	ldr	r3, [sp, #56]	; 0x38
10003bae:	990f      	ldr	r1, [sp, #60]	; 0x3c
10003bb0:	2000      	movs	r0, #0
10003bb2:	4798      	blx	r3
10003bb4:	0003      	movs	r3, r0
10003bb6:	0004      	movs	r4, r0
10003bb8:	000d      	movs	r5, r1
10003bba:	430b      	orrs	r3, r1
10003bbc:	d050      	beq.n	10003c60 <alarm_pool_add_alarm_at+0x1a4>
10003bbe:	2900      	cmp	r1, #0
10003bc0:	da1c      	bge.n	10003bfc <alarm_pool_add_alarm_at+0x140>
10003bc2:	9800      	ldr	r0, [sp, #0]
10003bc4:	9901      	ldr	r1, [sp, #4]
10003bc6:	0002      	movs	r2, r0
10003bc8:	000b      	movs	r3, r1
10003bca:	1b12      	subs	r2, r2, r4
10003bcc:	41ab      	sbcs	r3, r5
10003bce:	4299      	cmp	r1, r3
10003bd0:	d81f      	bhi.n	10003c12 <alarm_pool_add_alarm_at+0x156>
10003bd2:	d101      	bne.n	10003bd8 <alarm_pool_add_alarm_at+0x11c>
10003bd4:	4290      	cmp	r0, r2
10003bd6:	d81c      	bhi.n	10003c12 <alarm_pool_add_alarm_at+0x156>
10003bd8:	9200      	str	r2, [sp, #0]
10003bda:	9301      	str	r3, [sp, #4]
10003bdc:	46d9      	mov	r9, fp
10003bde:	e77d      	b.n	10003adc <alarm_pool_add_alarm_at+0x20>
10003be0:	2200      	movs	r2, #0
10003be2:	2000      	movs	r0, #0
10003be4:	9202      	str	r2, [sp, #8]
10003be6:	f3bf 8f5f 	dmb	sy
10003bea:	4642      	mov	r2, r8
10003bec:	601a      	str	r2, [r3, #0]
10003bee:	f38a 8810 	msr	PRIMASK, sl
10003bf2:	2c00      	cmp	r4, #0
10003bf4:	d1ca      	bne.n	10003b8c <alarm_pool_add_alarm_at+0xd0>
10003bf6:	2001      	movs	r0, #1
10003bf8:	4240      	negs	r0, r0
10003bfa:	e7cd      	b.n	10003b98 <alarm_pool_add_alarm_at+0xdc>
10003bfc:	f000 fa70 	bl	100040e0 <time_us_64>
10003c00:	1824      	adds	r4, r4, r0
10003c02:	414d      	adcs	r5, r1
10003c04:	9400      	str	r4, [sp, #0]
10003c06:	9501      	str	r5, [sp, #4]
10003c08:	42a9      	cmp	r1, r5
10003c0a:	d802      	bhi.n	10003c12 <alarm_pool_add_alarm_at+0x156>
10003c0c:	d1e6      	bne.n	10003bdc <alarm_pool_add_alarm_at+0x120>
10003c0e:	42a0      	cmp	r0, r4
10003c10:	d9e4      	bls.n	10003bdc <alarm_pool_add_alarm_at+0x120>
10003c12:	2301      	movs	r3, #1
10003c14:	425b      	negs	r3, r3
10003c16:	17dc      	asrs	r4, r3, #31
10003c18:	46d9      	mov	r9, fp
10003c1a:	9300      	str	r3, [sp, #0]
10003c1c:	9401      	str	r4, [sp, #4]
10003c1e:	e75d      	b.n	10003adc <alarm_pool_add_alarm_at+0x20>
10003c20:	9903      	ldr	r1, [sp, #12]
10003c22:	1996      	adds	r6, r2, r6
10003c24:	468c      	mov	ip, r1
10003c26:	004b      	lsls	r3, r1, #1
10003c28:	4463      	add	r3, ip
10003c2a:	3b03      	subs	r3, #3
10003c2c:	18d3      	adds	r3, r2, r3
10003c2e:	709c      	strb	r4, [r3, #2]
10003c30:	7832      	ldrb	r2, [r6, #0]
10003c32:	2a00      	cmp	r2, #0
10003c34:	d000      	beq.n	10003c38 <alarm_pool_add_alarm_at+0x17c>
10003c36:	705a      	strb	r2, [r3, #1]
10003c38:	466b      	mov	r3, sp
10003c3a:	7b1b      	ldrb	r3, [r3, #12]
10003c3c:	7033      	strb	r3, [r6, #0]
10003c3e:	736c      	strb	r4, [r5, #13]
10003c40:	7d38      	ldrb	r0, [r7, #20]
10003c42:	9a00      	ldr	r2, [sp, #0]
10003c44:	9b01      	ldr	r3, [sp, #4]
10003c46:	f000 faad 	bl	100041a4 <hardware_alarm_set_target>
10003c4a:	4681      	mov	r9, r0
10003c4c:	2800      	cmp	r0, #0
10003c4e:	d100      	bne.n	10003c52 <alarm_pool_add_alarm_at+0x196>
10003c50:	e78f      	b.n	10003b72 <alarm_pool_add_alarm_at+0xb6>
10003c52:	0021      	movs	r1, r4
10003c54:	6838      	ldr	r0, [r7, #0]
10003c56:	f000 fce9 	bl	1000462c <ph_delete>
10003c5a:	e78a      	b.n	10003b72 <alarm_pool_add_alarm_at+0xb6>
10003c5c:	7072      	strb	r2, [r6, #1]
10003c5e:	e784      	b.n	10003b6a <alarm_pool_add_alarm_at+0xae>
10003c60:	2000      	movs	r0, #0
10003c62:	e799      	b.n	10003b98 <alarm_pool_add_alarm_at+0xdc>
10003c64:	0fffffff 	.word	0x0fffffff

10003c68 <sleep_until>:
10003c68:	b5f0      	push	{r4, r5, r6, r7, lr}
10003c6a:	4657      	mov	r7, sl
10003c6c:	464e      	mov	r6, r9
10003c6e:	4645      	mov	r5, r8
10003c70:	46de      	mov	lr, fp
10003c72:	0004      	movs	r4, r0
10003c74:	b5e0      	push	{r5, r6, r7, lr}
10003c76:	000d      	movs	r5, r1
10003c78:	2606      	movs	r6, #6
10003c7a:	4276      	negs	r6, r6
10003c7c:	17f7      	asrs	r7, r6, #31
10003c7e:	1936      	adds	r6, r6, r4
10003c80:	416f      	adcs	r7, r5
10003c82:	b083      	sub	sp, #12
10003c84:	428f      	cmp	r7, r1
10003c86:	d83d      	bhi.n	10003d04 <sleep_until+0x9c>
10003c88:	d03a      	beq.n	10003d00 <sleep_until+0x98>
10003c8a:	f000 fa29 	bl	100040e0 <time_us_64>
10003c8e:	0032      	movs	r2, r6
10003c90:	003b      	movs	r3, r7
10003c92:	1a12      	subs	r2, r2, r0
10003c94:	418b      	sbcs	r3, r1
10003c96:	2b00      	cmp	r3, #0
10003c98:	dd3e      	ble.n	10003d18 <sleep_until+0xb0>
10003c9a:	4b5a      	ldr	r3, [pc, #360]	; (10003e04 <sleep_until+0x19c>)
10003c9c:	681b      	ldr	r3, [r3, #0]
10003c9e:	469a      	mov	sl, r3
10003ca0:	685b      	ldr	r3, [r3, #4]
10003ca2:	f3ef 8b10 	mrs	fp, PRIMASK
10003ca6:	b672      	cpsid	i
10003ca8:	681a      	ldr	r2, [r3, #0]
10003caa:	2a00      	cmp	r2, #0
10003cac:	d0fc      	beq.n	10003ca8 <sleep_until+0x40>
10003cae:	f3bf 8f5f 	dmb	sy
10003cb2:	4652      	mov	r2, sl
10003cb4:	6812      	ldr	r2, [r2, #0]
10003cb6:	4691      	mov	r9, r2
10003cb8:	7b92      	ldrb	r2, [r2, #14]
10003cba:	4690      	mov	r8, r2
10003cbc:	2a00      	cmp	r2, #0
10003cbe:	d130      	bne.n	10003d22 <sleep_until+0xba>
10003cc0:	f3bf 8f5f 	dmb	sy
10003cc4:	2200      	movs	r2, #0
10003cc6:	601a      	str	r2, [r3, #0]
10003cc8:	f38b 8810 	msr	PRIMASK, fp
10003ccc:	4643      	mov	r3, r8
10003cce:	2b00      	cmp	r3, #0
10003cd0:	d009      	beq.n	10003ce6 <sleep_until+0x7e>
10003cd2:	0039      	movs	r1, r7
10003cd4:	4a4c      	ldr	r2, [pc, #304]	; (10003e08 <sleep_until+0x1a0>)
10003cd6:	6a53      	ldr	r3, [r2, #36]	; 0x24
10003cd8:	428b      	cmp	r3, r1
10003cda:	d30f      	bcc.n	10003cfc <sleep_until+0x94>
10003cdc:	6a90      	ldr	r0, [r2, #40]	; 0x28
10003cde:	42b0      	cmp	r0, r6
10003ce0:	d201      	bcs.n	10003ce6 <sleep_until+0x7e>
10003ce2:	428b      	cmp	r3, r1
10003ce4:	d00a      	beq.n	10003cfc <sleep_until+0x94>
10003ce6:	0020      	movs	r0, r4
10003ce8:	0029      	movs	r1, r5
10003cea:	f000 fa05 	bl	100040f8 <busy_wait_until>
10003cee:	b003      	add	sp, #12
10003cf0:	bc3c      	pop	{r2, r3, r4, r5}
10003cf2:	4690      	mov	r8, r2
10003cf4:	4699      	mov	r9, r3
10003cf6:	46a2      	mov	sl, r4
10003cf8:	46ab      	mov	fp, r5
10003cfa:	bdf0      	pop	{r4, r5, r6, r7, pc}
10003cfc:	bf20      	wfe
10003cfe:	e7ea      	b.n	10003cd6 <sleep_until+0x6e>
10003d00:	4286      	cmp	r6, r0
10003d02:	d9c2      	bls.n	10003c8a <sleep_until+0x22>
10003d04:	2600      	movs	r6, #0
10003d06:	2700      	movs	r7, #0
10003d08:	f000 f9ea 	bl	100040e0 <time_us_64>
10003d0c:	0032      	movs	r2, r6
10003d0e:	003b      	movs	r3, r7
10003d10:	1a12      	subs	r2, r2, r0
10003d12:	418b      	sbcs	r3, r1
10003d14:	2b00      	cmp	r3, #0
10003d16:	dcc0      	bgt.n	10003c9a <sleep_until+0x32>
10003d18:	2b00      	cmp	r3, #0
10003d1a:	d1e4      	bne.n	10003ce6 <sleep_until+0x7e>
10003d1c:	2a00      	cmp	r2, #0
10003d1e:	d1bc      	bne.n	10003c9a <sleep_until+0x32>
10003d20:	e7e1      	b.n	10003ce6 <sleep_until+0x7e>
10003d22:	0053      	lsls	r3, r2, #1
10003d24:	4443      	add	r3, r8
10003d26:	3b03      	subs	r3, #3
10003d28:	001a      	movs	r2, r3
10003d2a:	9300      	str	r3, [sp, #0]
10003d2c:	464b      	mov	r3, r9
10003d2e:	4694      	mov	ip, r2
10003d30:	464a      	mov	r2, r9
10003d32:	681b      	ldr	r3, [r3, #0]
10003d34:	4463      	add	r3, ip
10003d36:	785b      	ldrb	r3, [r3, #1]
10003d38:	7393      	strb	r3, [r2, #14]
10003d3a:	2b00      	cmp	r3, #0
10003d3c:	d100      	bne.n	10003d40 <sleep_until+0xd8>
10003d3e:	73d3      	strb	r3, [r2, #15]
10003d40:	4652      	mov	r2, sl
10003d42:	6892      	ldr	r2, [r2, #8]
10003d44:	4b31      	ldr	r3, [pc, #196]	; (10003e0c <sleep_until+0x1a4>)
10003d46:	4694      	mov	ip, r2
10003d48:	4443      	add	r3, r8
10003d4a:	4a31      	ldr	r2, [pc, #196]	; (10003e10 <sleep_until+0x1a8>)
10003d4c:	011b      	lsls	r3, r3, #4
10003d4e:	4463      	add	r3, ip
10003d50:	609a      	str	r2, [r3, #8]
10003d52:	2200      	movs	r2, #0
10003d54:	601e      	str	r6, [r3, #0]
10003d56:	605f      	str	r7, [r3, #4]
10003d58:	60da      	str	r2, [r3, #12]
10003d5a:	9900      	ldr	r1, [sp, #0]
10003d5c:	464b      	mov	r3, r9
10003d5e:	468c      	mov	ip, r1
10003d60:	681b      	ldr	r3, [r3, #0]
10003d62:	4463      	add	r3, ip
10003d64:	709a      	strb	r2, [r3, #2]
10003d66:	705a      	strb	r2, [r3, #1]
10003d68:	701a      	strb	r2, [r3, #0]
10003d6a:	464b      	mov	r3, r9
10003d6c:	7b5b      	ldrb	r3, [r3, #13]
10003d6e:	9301      	str	r3, [sp, #4]
10003d70:	2b00      	cmp	r3, #0
10003d72:	d036      	beq.n	10003de2 <sleep_until+0x17a>
10003d74:	0019      	movs	r1, r3
10003d76:	4648      	mov	r0, r9
10003d78:	464b      	mov	r3, r9
10003d7a:	4642      	mov	r2, r8
10003d7c:	6880      	ldr	r0, [r0, #8]
10003d7e:	685b      	ldr	r3, [r3, #4]
10003d80:	4798      	blx	r3
10003d82:	2800      	cmp	r0, #0
10003d84:	d01a      	beq.n	10003dbc <sleep_until+0x154>
10003d86:	9801      	ldr	r0, [sp, #4]
10003d88:	9900      	ldr	r1, [sp, #0]
10003d8a:	4684      	mov	ip, r0
10003d8c:	464a      	mov	r2, r9
10003d8e:	0043      	lsls	r3, r0, #1
10003d90:	4463      	add	r3, ip
10003d92:	468c      	mov	ip, r1
10003d94:	4669      	mov	r1, sp
10003d96:	6812      	ldr	r2, [r2, #0]
10003d98:	7909      	ldrb	r1, [r1, #4]
10003d9a:	3b03      	subs	r3, #3
10003d9c:	18d3      	adds	r3, r2, r3
10003d9e:	4462      	add	r2, ip
10003da0:	7091      	strb	r1, [r2, #2]
10003da2:	7819      	ldrb	r1, [r3, #0]
10003da4:	2900      	cmp	r1, #0
10003da6:	d000      	beq.n	10003daa <sleep_until+0x142>
10003da8:	7051      	strb	r1, [r2, #1]
10003daa:	4642      	mov	r2, r8
10003dac:	701a      	strb	r2, [r3, #0]
10003dae:	464b      	mov	r3, r9
10003db0:	7358      	strb	r0, [r3, #13]
10003db2:	4580      	cmp	r8, r0
10003db4:	d018      	beq.n	10003de8 <sleep_until+0x180>
10003db6:	4653      	mov	r3, sl
10003db8:	685b      	ldr	r3, [r3, #4]
10003dba:	e781      	b.n	10003cc0 <sleep_until+0x58>
10003dbc:	464b      	mov	r3, r9
10003dbe:	9801      	ldr	r0, [sp, #4]
10003dc0:	681a      	ldr	r2, [r3, #0]
10003dc2:	4684      	mov	ip, r0
10003dc4:	9b00      	ldr	r3, [sp, #0]
10003dc6:	18d1      	adds	r1, r2, r3
10003dc8:	0043      	lsls	r3, r0, #1
10003dca:	4463      	add	r3, ip
10003dcc:	3b03      	subs	r3, #3
10003dce:	18d3      	adds	r3, r2, r3
10003dd0:	4642      	mov	r2, r8
10003dd2:	709a      	strb	r2, [r3, #2]
10003dd4:	780a      	ldrb	r2, [r1, #0]
10003dd6:	2a00      	cmp	r2, #0
10003dd8:	d000      	beq.n	10003ddc <sleep_until+0x174>
10003dda:	705a      	strb	r2, [r3, #1]
10003ddc:	466b      	mov	r3, sp
10003dde:	791b      	ldrb	r3, [r3, #4]
10003de0:	700b      	strb	r3, [r1, #0]
10003de2:	464b      	mov	r3, r9
10003de4:	4642      	mov	r2, r8
10003de6:	735a      	strb	r2, [r3, #13]
10003de8:	4653      	mov	r3, sl
10003dea:	0032      	movs	r2, r6
10003dec:	7d18      	ldrb	r0, [r3, #20]
10003dee:	003b      	movs	r3, r7
10003df0:	f000 f9d8 	bl	100041a4 <hardware_alarm_set_target>
10003df4:	2800      	cmp	r0, #0
10003df6:	d0de      	beq.n	10003db6 <sleep_until+0x14e>
10003df8:	4653      	mov	r3, sl
10003dfa:	4641      	mov	r1, r8
10003dfc:	6818      	ldr	r0, [r3, #0]
10003dfe:	f000 fc15 	bl	1000462c <ph_delete>
10003e02:	e7d8      	b.n	10003db6 <sleep_until+0x14e>
10003e04:	20000f78 	.word	0x20000f78
10003e08:	40054000 	.word	0x40054000
10003e0c:	0fffffff 	.word	0x0fffffff
10003e10:	10003729 	.word	0x10003729

10003e14 <sleep_ms>:
10003e14:	b570      	push	{r4, r5, r6, lr}
10003e16:	0006      	movs	r6, r0
10003e18:	f000 f962 	bl	100040e0 <time_us_64>
10003e1c:	22fa      	movs	r2, #250	; 0xfa
10003e1e:	0004      	movs	r4, r0
10003e20:	000d      	movs	r5, r1
10003e22:	0092      	lsls	r2, r2, #2
10003e24:	2300      	movs	r3, #0
10003e26:	0030      	movs	r0, r6
10003e28:	2100      	movs	r1, #0
10003e2a:	f003 fbf5 	bl	10007618 <__wrap___aeabi_lmul>
10003e2e:	1900      	adds	r0, r0, r4
10003e30:	4169      	adcs	r1, r5
10003e32:	428d      	cmp	r5, r1
10003e34:	d905      	bls.n	10003e42 <sleep_ms+0x2e>
10003e36:	2001      	movs	r0, #1
10003e38:	4240      	negs	r0, r0
10003e3a:	17c1      	asrs	r1, r0, #31
10003e3c:	f7ff ff14 	bl	10003c68 <sleep_until>
10003e40:	bd70      	pop	{r4, r5, r6, pc}
10003e42:	428d      	cmp	r5, r1
10003e44:	d1fa      	bne.n	10003e3c <sleep_ms+0x28>
10003e46:	4284      	cmp	r4, r0
10003e48:	d8f5      	bhi.n	10003e36 <sleep_ms+0x22>
10003e4a:	e7f7      	b.n	10003e3c <sleep_ms+0x28>

10003e4c <best_effort_wfe_or_timeout>:
10003e4c:	b5f0      	push	{r4, r5, r6, r7, lr}
10003e4e:	4657      	mov	r7, sl
10003e50:	464e      	mov	r6, r9
10003e52:	4645      	mov	r5, r8
10003e54:	46de      	mov	lr, fp
10003e56:	b5e0      	push	{r5, r6, r7, lr}
10003e58:	4b6f      	ldr	r3, [pc, #444]	; (10004018 <best_effort_wfe_or_timeout+0x1cc>)
10003e5a:	b083      	sub	sp, #12
10003e5c:	681e      	ldr	r6, [r3, #0]
10003e5e:	4698      	mov	r8, r3
10003e60:	4681      	mov	r9, r0
10003e62:	000f      	movs	r7, r1
10003e64:	6873      	ldr	r3, [r6, #4]
10003e66:	f3ef 8a10 	mrs	sl, PRIMASK
10003e6a:	b672      	cpsid	i
10003e6c:	681a      	ldr	r2, [r3, #0]
10003e6e:	2a00      	cmp	r2, #0
10003e70:	d0fc      	beq.n	10003e6c <best_effort_wfe_or_timeout+0x20>
10003e72:	f3bf 8f5f 	dmb	sy
10003e76:	6835      	ldr	r5, [r6, #0]
10003e78:	7bac      	ldrb	r4, [r5, #14]
10003e7a:	2c00      	cmp	r4, #0
10003e7c:	d049      	beq.n	10003f12 <best_effort_wfe_or_timeout+0xc6>
10003e7e:	0063      	lsls	r3, r4, #1
10003e80:	191b      	adds	r3, r3, r4
10003e82:	3b03      	subs	r3, #3
10003e84:	001a      	movs	r2, r3
10003e86:	4694      	mov	ip, r2
10003e88:	9301      	str	r3, [sp, #4]
10003e8a:	682b      	ldr	r3, [r5, #0]
10003e8c:	4463      	add	r3, ip
10003e8e:	785b      	ldrb	r3, [r3, #1]
10003e90:	73ab      	strb	r3, [r5, #14]
10003e92:	2b00      	cmp	r3, #0
10003e94:	d100      	bne.n	10003e98 <best_effort_wfe_or_timeout+0x4c>
10003e96:	73eb      	strb	r3, [r5, #15]
10003e98:	68b2      	ldr	r2, [r6, #8]
10003e9a:	4b60      	ldr	r3, [pc, #384]	; (1000401c <best_effort_wfe_or_timeout+0x1d0>)
10003e9c:	4694      	mov	ip, r2
10003e9e:	464a      	mov	r2, r9
10003ea0:	18e3      	adds	r3, r4, r3
10003ea2:	011b      	lsls	r3, r3, #4
10003ea4:	4463      	add	r3, ip
10003ea6:	601a      	str	r2, [r3, #0]
10003ea8:	4a5d      	ldr	r2, [pc, #372]	; (10004020 <best_effort_wfe_or_timeout+0x1d4>)
10003eaa:	9901      	ldr	r1, [sp, #4]
10003eac:	609a      	str	r2, [r3, #8]
10003eae:	2200      	movs	r2, #0
10003eb0:	468c      	mov	ip, r1
10003eb2:	60da      	str	r2, [r3, #12]
10003eb4:	605f      	str	r7, [r3, #4]
10003eb6:	682b      	ldr	r3, [r5, #0]
10003eb8:	4463      	add	r3, ip
10003eba:	709a      	strb	r2, [r3, #2]
10003ebc:	705a      	strb	r2, [r3, #1]
10003ebe:	701a      	strb	r2, [r3, #0]
10003ec0:	7b6b      	ldrb	r3, [r5, #13]
10003ec2:	469b      	mov	fp, r3
10003ec4:	2b00      	cmp	r3, #0
10003ec6:	d100      	bne.n	10003eca <best_effort_wfe_or_timeout+0x7e>
10003ec8:	e08f      	b.n	10003fea <best_effort_wfe_or_timeout+0x19e>
10003eca:	0022      	movs	r2, r4
10003ecc:	0019      	movs	r1, r3
10003ece:	68a8      	ldr	r0, [r5, #8]
10003ed0:	686b      	ldr	r3, [r5, #4]
10003ed2:	4798      	blx	r3
10003ed4:	682a      	ldr	r2, [r5, #0]
10003ed6:	2800      	cmp	r0, #0
10003ed8:	d100      	bne.n	10003edc <best_effort_wfe_or_timeout+0x90>
10003eda:	e078      	b.n	10003fce <best_effort_wfe_or_timeout+0x182>
10003edc:	465b      	mov	r3, fp
10003ede:	9901      	ldr	r1, [sp, #4]
10003ee0:	005b      	lsls	r3, r3, #1
10003ee2:	468c      	mov	ip, r1
10003ee4:	4659      	mov	r1, fp
10003ee6:	445b      	add	r3, fp
10003ee8:	3b03      	subs	r3, #3
10003eea:	18d3      	adds	r3, r2, r3
10003eec:	4462      	add	r2, ip
10003eee:	7091      	strb	r1, [r2, #2]
10003ef0:	7819      	ldrb	r1, [r3, #0]
10003ef2:	2900      	cmp	r1, #0
10003ef4:	d000      	beq.n	10003ef8 <best_effort_wfe_or_timeout+0xac>
10003ef6:	7051      	strb	r1, [r2, #1]
10003ef8:	701c      	strb	r4, [r3, #0]
10003efa:	465b      	mov	r3, fp
10003efc:	736b      	strb	r3, [r5, #13]
10003efe:	455c      	cmp	r4, fp
10003f00:	d100      	bne.n	10003f04 <best_effort_wfe_or_timeout+0xb8>
10003f02:	e073      	b.n	10003fec <best_effort_wfe_or_timeout+0x1a0>
10003f04:	2500      	movs	r5, #0
10003f06:	68f3      	ldr	r3, [r6, #12]
10003f08:	191b      	adds	r3, r3, r4
10003f0a:	3b01      	subs	r3, #1
10003f0c:	781a      	ldrb	r2, [r3, #0]
10003f0e:	6873      	ldr	r3, [r6, #4]
10003f10:	e001      	b.n	10003f16 <best_effort_wfe_or_timeout+0xca>
10003f12:	2500      	movs	r5, #0
10003f14:	2200      	movs	r2, #0
10003f16:	f3bf 8f5f 	dmb	sy
10003f1a:	2100      	movs	r1, #0
10003f1c:	6019      	str	r1, [r3, #0]
10003f1e:	f38a 8810 	msr	PRIMASK, sl
10003f22:	2c00      	cmp	r4, #0
10003f24:	d044      	beq.n	10003fb0 <best_effort_wfe_or_timeout+0x164>
10003f26:	2d00      	cmp	r5, #0
10003f28:	d142      	bne.n	10003fb0 <best_effort_wfe_or_timeout+0x164>
10003f2a:	0212      	lsls	r2, r2, #8
10003f2c:	4314      	orrs	r4, r2
10003f2e:	bf20      	wfe
10003f30:	4643      	mov	r3, r8
10003f32:	681e      	ldr	r6, [r3, #0]
10003f34:	6871      	ldr	r1, [r6, #4]
10003f36:	f3ef 8810 	mrs	r8, PRIMASK
10003f3a:	b672      	cpsid	i
10003f3c:	680b      	ldr	r3, [r1, #0]
10003f3e:	2b00      	cmp	r3, #0
10003f40:	d0fc      	beq.n	10003f3c <best_effort_wfe_or_timeout+0xf0>
10003f42:	f3bf 8f5f 	dmb	sy
10003f46:	b2e3      	uxtb	r3, r4
10003f48:	469c      	mov	ip, r3
10003f4a:	6830      	ldr	r0, [r6, #0]
10003f4c:	7b43      	ldrb	r3, [r0, #13]
10003f4e:	4563      	cmp	r3, ip
10003f50:	d059      	beq.n	10004006 <best_effort_wfe_or_timeout+0x1ba>
10003f52:	23ff      	movs	r3, #255	; 0xff
10003f54:	4023      	ands	r3, r4
10003f56:	005a      	lsls	r2, r3, #1
10003f58:	4693      	mov	fp, r2
10003f5a:	6802      	ldr	r2, [r0, #0]
10003f5c:	449b      	add	fp, r3
10003f5e:	4692      	mov	sl, r2
10003f60:	465a      	mov	r2, fp
10003f62:	4452      	add	r2, sl
10003f64:	3a03      	subs	r2, #3
10003f66:	7892      	ldrb	r2, [r2, #2]
10003f68:	2a00      	cmp	r2, #0
10003f6a:	d02b      	beq.n	10003fc4 <best_effort_wfe_or_timeout+0x178>
10003f6c:	68f2      	ldr	r2, [r6, #12]
10003f6e:	0a24      	lsrs	r4, r4, #8
10003f70:	4692      	mov	sl, r2
10003f72:	4453      	add	r3, sl
10003f74:	3b01      	subs	r3, #1
10003f76:	781b      	ldrb	r3, [r3, #0]
10003f78:	42a3      	cmp	r3, r4
10003f7a:	d047      	beq.n	1000400c <best_effort_wfe_or_timeout+0x1c0>
10003f7c:	f3bf 8f5f 	dmb	sy
10003f80:	2300      	movs	r3, #0
10003f82:	600b      	str	r3, [r1, #0]
10003f84:	f388 8810 	msr	PRIMASK, r8
10003f88:	4a26      	ldr	r2, [pc, #152]	; (10004024 <best_effort_wfe_or_timeout+0x1d8>)
10003f8a:	6a53      	ldr	r3, [r2, #36]	; 0x24
10003f8c:	429f      	cmp	r7, r3
10003f8e:	d807      	bhi.n	10003fa0 <best_effort_wfe_or_timeout+0x154>
10003f90:	6a92      	ldr	r2, [r2, #40]	; 0x28
10003f92:	2501      	movs	r5, #1
10003f94:	454a      	cmp	r2, r9
10003f96:	d203      	bcs.n	10003fa0 <best_effort_wfe_or_timeout+0x154>
10003f98:	1aff      	subs	r7, r7, r3
10003f9a:	1e7b      	subs	r3, r7, #1
10003f9c:	419f      	sbcs	r7, r3
10003f9e:	b2fd      	uxtb	r5, r7
10003fa0:	0028      	movs	r0, r5
10003fa2:	b003      	add	sp, #12
10003fa4:	bc3c      	pop	{r2, r3, r4, r5}
10003fa6:	4690      	mov	r8, r2
10003fa8:	4699      	mov	r9, r3
10003faa:	46a2      	mov	sl, r4
10003fac:	46ab      	mov	fp, r5
10003fae:	bdf0      	pop	{r4, r5, r6, r7, pc}
10003fb0:	4a1c      	ldr	r2, [pc, #112]	; (10004024 <best_effort_wfe_or_timeout+0x1d8>)
10003fb2:	2500      	movs	r5, #0
10003fb4:	6a53      	ldr	r3, [r2, #36]	; 0x24
10003fb6:	429f      	cmp	r7, r3
10003fb8:	d8f2      	bhi.n	10003fa0 <best_effort_wfe_or_timeout+0x154>
10003fba:	6a92      	ldr	r2, [r2, #40]	; 0x28
10003fbc:	3501      	adds	r5, #1
10003fbe:	454a      	cmp	r2, r9
10003fc0:	d3ea      	bcc.n	10003f98 <best_effort_wfe_or_timeout+0x14c>
10003fc2:	e7ed      	b.n	10003fa0 <best_effort_wfe_or_timeout+0x154>
10003fc4:	6933      	ldr	r3, [r6, #16]
10003fc6:	429c      	cmp	r4, r3
10003fc8:	d1d8      	bne.n	10003f7c <best_effort_wfe_or_timeout+0x130>
10003fca:	6132      	str	r2, [r6, #16]
10003fcc:	e7d6      	b.n	10003f7c <best_effort_wfe_or_timeout+0x130>
10003fce:	9b01      	ldr	r3, [sp, #4]
10003fd0:	18d1      	adds	r1, r2, r3
10003fd2:	465b      	mov	r3, fp
10003fd4:	005b      	lsls	r3, r3, #1
10003fd6:	445b      	add	r3, fp
10003fd8:	3b03      	subs	r3, #3
10003fda:	18d3      	adds	r3, r2, r3
10003fdc:	709c      	strb	r4, [r3, #2]
10003fde:	780a      	ldrb	r2, [r1, #0]
10003fe0:	2a00      	cmp	r2, #0
10003fe2:	d000      	beq.n	10003fe6 <best_effort_wfe_or_timeout+0x19a>
10003fe4:	705a      	strb	r2, [r3, #1]
10003fe6:	465b      	mov	r3, fp
10003fe8:	700b      	strb	r3, [r1, #0]
10003fea:	736c      	strb	r4, [r5, #13]
10003fec:	7d30      	ldrb	r0, [r6, #20]
10003fee:	464a      	mov	r2, r9
10003ff0:	003b      	movs	r3, r7
10003ff2:	f000 f8d7 	bl	100041a4 <hardware_alarm_set_target>
10003ff6:	1e05      	subs	r5, r0, #0
10003ff8:	d100      	bne.n	10003ffc <best_effort_wfe_or_timeout+0x1b0>
10003ffa:	e783      	b.n	10003f04 <best_effort_wfe_or_timeout+0xb8>
10003ffc:	0021      	movs	r1, r4
10003ffe:	6830      	ldr	r0, [r6, #0]
10004000:	f000 fb14 	bl	1000462c <ph_delete>
10004004:	e77f      	b.n	10003f06 <best_effort_wfe_or_timeout+0xba>
10004006:	23ff      	movs	r3, #255	; 0xff
10004008:	4023      	ands	r3, r4
1000400a:	e7af      	b.n	10003f6c <best_effort_wfe_or_timeout+0x120>
1000400c:	4661      	mov	r1, ip
1000400e:	f000 fb0d 	bl	1000462c <ph_delete>
10004012:	6871      	ldr	r1, [r6, #4]
10004014:	e7b2      	b.n	10003f7c <best_effort_wfe_or_timeout+0x130>
10004016:	46c0      	nop			; (mov r8, r8)
10004018:	20000f78 	.word	0x20000f78
1000401c:	0fffffff 	.word	0x0fffffff
10004020:	10003729 	.word	0x10003729
10004024:	40054000 	.word	0x40054000

10004028 <hardware_alarm_irq_handler>:
10004028:	b5f8      	push	{r3, r4, r5, r6, r7, lr}
1000402a:	46ce      	mov	lr, r9
1000402c:	4647      	mov	r7, r8
1000402e:	b580      	push	{r7, lr}
10004030:	f3ef 8305 	mrs	r3, IPSR
10004034:	223f      	movs	r2, #63	; 0x3f
10004036:	4013      	ands	r3, r2
10004038:	0018      	movs	r0, r3
1000403a:	3810      	subs	r0, #16
1000403c:	f3ef 8c10 	mrs	ip, PRIMASK
10004040:	b672      	cpsid	i
10004042:	491b      	ldr	r1, [pc, #108]	; (100040b0 <hardware_alarm_irq_handler+0x88>)
10004044:	680a      	ldr	r2, [r1, #0]
10004046:	2a00      	cmp	r2, #0
10004048:	d0fc      	beq.n	10004044 <hardware_alarm_irq_handler+0x1c>
1000404a:	f3bf 8f5f 	dmb	sy
1000404e:	2101      	movs	r1, #1
10004050:	000f      	movs	r7, r1
10004052:	4087      	lsls	r7, r0
10004054:	4d17      	ldr	r5, [pc, #92]	; (100040b4 <hardware_alarm_irq_handler+0x8c>)
10004056:	4a18      	ldr	r2, [pc, #96]	; (100040b8 <hardware_alarm_irq_handler+0x90>)
10004058:	636f      	str	r7, [r5, #52]	; 0x34
1000405a:	7814      	ldrb	r4, [r2, #0]
1000405c:	4691      	mov	r9, r2
1000405e:	0022      	movs	r2, r4
10004060:	40c2      	lsrs	r2, r0
10004062:	4690      	mov	r8, r2
10004064:	4646      	mov	r6, r8
10004066:	2200      	movs	r2, #0
10004068:	4231      	tst	r1, r6
1000406a:	d00b      	beq.n	10004084 <hardware_alarm_irq_handler+0x5c>
1000406c:	6a69      	ldr	r1, [r5, #36]	; 0x24
1000406e:	4d13      	ldr	r5, [pc, #76]	; (100040bc <hardware_alarm_irq_handler+0x94>)
10004070:	4688      	mov	r8, r1
10004072:	0081      	lsls	r1, r0, #2
10004074:	594d      	ldr	r5, [r1, r5]
10004076:	45a8      	cmp	r8, r5
10004078:	d312      	bcc.n	100040a0 <hardware_alarm_irq_handler+0x78>
1000407a:	4b11      	ldr	r3, [pc, #68]	; (100040c0 <hardware_alarm_irq_handler+0x98>)
1000407c:	43bc      	bics	r4, r7
1000407e:	58ca      	ldr	r2, [r1, r3]
10004080:	464b      	mov	r3, r9
10004082:	701c      	strb	r4, [r3, #0]
10004084:	f3bf 8f5f 	dmb	sy
10004088:	2100      	movs	r1, #0
1000408a:	4b09      	ldr	r3, [pc, #36]	; (100040b0 <hardware_alarm_irq_handler+0x88>)
1000408c:	6019      	str	r1, [r3, #0]
1000408e:	f38c 8810 	msr	PRIMASK, ip
10004092:	2a00      	cmp	r2, #0
10004094:	d000      	beq.n	10004098 <hardware_alarm_irq_handler+0x70>
10004096:	4790      	blx	r2
10004098:	bc0c      	pop	{r2, r3}
1000409a:	4690      	mov	r8, r2
1000409c:	4699      	mov	r9, r3
1000409e:	bdf8      	pop	{r3, r4, r5, r6, r7, pc}
100040a0:	4908      	ldr	r1, [pc, #32]	; (100040c4 <hardware_alarm_irq_handler+0x9c>)
100040a2:	009b      	lsls	r3, r3, #2
100040a4:	4688      	mov	r8, r1
100040a6:	4443      	add	r3, r8
100040a8:	6819      	ldr	r1, [r3, #0]
100040aa:	6019      	str	r1, [r3, #0]
100040ac:	e7ea      	b.n	10004084 <hardware_alarm_irq_handler+0x5c>
100040ae:	46c0      	nop			; (mov r8, r8)
100040b0:	d0000128 	.word	0xd0000128
100040b4:	40054000 	.word	0x40054000
100040b8:	20001666 	.word	0x20001666
100040bc:	20001650 	.word	0x20001650
100040c0:	20000f3c 	.word	0x20000f3c
100040c4:	40053fd0 	.word	0x40053fd0

100040c8 <hardware_alarm_claim>:
100040c8:	b510      	push	{r4, lr}
100040ca:	0001      	movs	r1, r0
100040cc:	4a02      	ldr	r2, [pc, #8]	; (100040d8 <hardware_alarm_claim+0x10>)
100040ce:	4803      	ldr	r0, [pc, #12]	; (100040dc <hardware_alarm_claim+0x14>)
100040d0:	f7ff fa76 	bl	100035c0 <hw_claim_or_assert>
100040d4:	bd10      	pop	{r4, pc}
100040d6:	46c0      	nop			; (mov r8, r8)
100040d8:	1000b608 	.word	0x1000b608
100040dc:	20001663 	.word	0x20001663

100040e0 <time_us_64>:
100040e0:	4a04      	ldr	r2, [pc, #16]	; (100040f4 <time_us_64+0x14>)
100040e2:	6a51      	ldr	r1, [r2, #36]	; 0x24
100040e4:	e000      	b.n	100040e8 <time_us_64+0x8>
100040e6:	0019      	movs	r1, r3
100040e8:	6a90      	ldr	r0, [r2, #40]	; 0x28
100040ea:	6a53      	ldr	r3, [r2, #36]	; 0x24
100040ec:	4299      	cmp	r1, r3
100040ee:	d1fa      	bne.n	100040e6 <time_us_64+0x6>
100040f0:	4770      	bx	lr
100040f2:	46c0      	nop			; (mov r8, r8)
100040f4:	40054000 	.word	0x40054000

100040f8 <busy_wait_until>:
100040f8:	4a06      	ldr	r2, [pc, #24]	; (10004114 <busy_wait_until+0x1c>)
100040fa:	6a53      	ldr	r3, [r2, #36]	; 0x24
100040fc:	4299      	cmp	r1, r3
100040fe:	d8fc      	bhi.n	100040fa <busy_wait_until+0x2>
10004100:	d107      	bne.n	10004112 <busy_wait_until+0x1a>
10004102:	4b04      	ldr	r3, [pc, #16]	; (10004114 <busy_wait_until+0x1c>)
10004104:	e002      	b.n	1000410c <busy_wait_until+0x14>
10004106:	6a5a      	ldr	r2, [r3, #36]	; 0x24
10004108:	4291      	cmp	r1, r2
1000410a:	d102      	bne.n	10004112 <busy_wait_until+0x1a>
1000410c:	6a9a      	ldr	r2, [r3, #40]	; 0x28
1000410e:	4282      	cmp	r2, r0
10004110:	d3f9      	bcc.n	10004106 <busy_wait_until+0xe>
10004112:	4770      	bx	lr
10004114:	40054000 	.word	0x40054000

10004118 <hardware_alarm_set_callback>:
10004118:	b570      	push	{r4, r5, r6, lr}
1000411a:	0004      	movs	r4, r0
1000411c:	000d      	movs	r5, r1
1000411e:	f3ef 8610 	mrs	r6, PRIMASK
10004122:	b672      	cpsid	i
10004124:	4a1a      	ldr	r2, [pc, #104]	; (10004190 <hardware_alarm_set_callback+0x78>)
10004126:	6813      	ldr	r3, [r2, #0]
10004128:	2b00      	cmp	r3, #0
1000412a:	d0fc      	beq.n	10004126 <hardware_alarm_set_callback+0xe>
1000412c:	f3bf 8f5f 	dmb	sy
10004130:	2d00      	cmp	r5, #0
10004132:	d01b      	beq.n	1000416c <hardware_alarm_set_callback+0x54>
10004134:	0020      	movs	r0, r4
10004136:	f000 fe2f 	bl	10004d98 <irq_get_vtable_handler>
1000413a:	4916      	ldr	r1, [pc, #88]	; (10004194 <hardware_alarm_set_callback+0x7c>)
1000413c:	4288      	cmp	r0, r1
1000413e:	d00a      	beq.n	10004156 <hardware_alarm_set_callback+0x3e>
10004140:	0020      	movs	r0, r4
10004142:	f000 fe31 	bl	10004da8 <irq_set_exclusive_handler>
10004146:	2101      	movs	r1, #1
10004148:	0020      	movs	r0, r4
1000414a:	f000 fe0b 	bl	10004d64 <irq_set_enabled>
1000414e:	2301      	movs	r3, #1
10004150:	40a3      	lsls	r3, r4
10004152:	4a11      	ldr	r2, [pc, #68]	; (10004198 <hardware_alarm_set_callback+0x80>)
10004154:	6013      	str	r3, [r2, #0]
10004156:	4b11      	ldr	r3, [pc, #68]	; (1000419c <hardware_alarm_set_callback+0x84>)
10004158:	00a4      	lsls	r4, r4, #2
1000415a:	50e5      	str	r5, [r4, r3]
1000415c:	f3bf 8f5f 	dmb	sy
10004160:	2200      	movs	r2, #0
10004162:	4b0b      	ldr	r3, [pc, #44]	; (10004190 <hardware_alarm_set_callback+0x78>)
10004164:	601a      	str	r2, [r3, #0]
10004166:	f386 8810 	msr	PRIMASK, r6
1000416a:	bd70      	pop	{r4, r5, r6, pc}
1000416c:	4b0b      	ldr	r3, [pc, #44]	; (1000419c <hardware_alarm_set_callback+0x84>)
1000416e:	00a2      	lsls	r2, r4, #2
10004170:	50d5      	str	r5, [r2, r3]
10004172:	2201      	movs	r2, #1
10004174:	40a2      	lsls	r2, r4
10004176:	490a      	ldr	r1, [pc, #40]	; (100041a0 <hardware_alarm_set_callback+0x88>)
10004178:	0020      	movs	r0, r4
1000417a:	780b      	ldrb	r3, [r1, #0]
1000417c:	4393      	bics	r3, r2
1000417e:	700b      	strb	r3, [r1, #0]
10004180:	4904      	ldr	r1, [pc, #16]	; (10004194 <hardware_alarm_set_callback+0x7c>)
10004182:	f000 fe3b 	bl	10004dfc <irq_remove_handler>
10004186:	2100      	movs	r1, #0
10004188:	0020      	movs	r0, r4
1000418a:	f000 fdeb 	bl	10004d64 <irq_set_enabled>
1000418e:	e7e5      	b.n	1000415c <hardware_alarm_set_callback+0x44>
10004190:	d0000128 	.word	0xd0000128
10004194:	10004029 	.word	0x10004029
10004198:	40056038 	.word	0x40056038
1000419c:	20000f3c 	.word	0x20000f3c
100041a0:	20001666 	.word	0x20001666

100041a4 <hardware_alarm_set_target>:
100041a4:	b5f0      	push	{r4, r5, r6, r7, lr}
100041a6:	46ce      	mov	lr, r9
100041a8:	4647      	mov	r7, r8
100041aa:	4c29      	ldr	r4, [pc, #164]	; (10004250 <hardware_alarm_set_target+0xac>)
100041ac:	b580      	push	{r7, lr}
100041ae:	6a65      	ldr	r5, [r4, #36]	; 0x24
100041b0:	e000      	b.n	100041b4 <hardware_alarm_set_target+0x10>
100041b2:	000d      	movs	r5, r1
100041b4:	6aa6      	ldr	r6, [r4, #40]	; 0x28
100041b6:	6a61      	ldr	r1, [r4, #36]	; 0x24
100041b8:	42a9      	cmp	r1, r5
100041ba:	d1fa      	bne.n	100041b2 <hardware_alarm_set_target+0xe>
100041bc:	42ab      	cmp	r3, r5
100041be:	d937      	bls.n	10004230 <hardware_alarm_set_target+0x8c>
100041c0:	f3ef 8810 	mrs	r8, PRIMASK
100041c4:	b672      	cpsid	i
100041c6:	4c23      	ldr	r4, [pc, #140]	; (10004254 <hardware_alarm_set_target+0xb0>)
100041c8:	6821      	ldr	r1, [r4, #0]
100041ca:	2900      	cmp	r1, #0
100041cc:	d0fc      	beq.n	100041c8 <hardware_alarm_set_target+0x24>
100041ce:	f3bf 8f5f 	dmb	sy
100041d2:	2501      	movs	r5, #1
100041d4:	4085      	lsls	r5, r0
100041d6:	491e      	ldr	r1, [pc, #120]	; (10004250 <hardware_alarm_set_target+0xac>)
100041d8:	4e1f      	ldr	r6, [pc, #124]	; (10004258 <hardware_alarm_set_target+0xb4>)
100041da:	634d      	str	r5, [r1, #52]	; 0x34
100041dc:	b2ec      	uxtb	r4, r5
100041de:	46a4      	mov	ip, r4
100041e0:	7834      	ldrb	r4, [r6, #0]
100041e2:	46a1      	mov	r9, r4
100041e4:	4664      	mov	r4, ip
100041e6:	464f      	mov	r7, r9
100041e8:	433c      	orrs	r4, r7
100041ea:	7034      	strb	r4, [r6, #0]
100041ec:	1d04      	adds	r4, r0, #4
100041ee:	00a4      	lsls	r4, r4, #2
100041f0:	5062      	str	r2, [r4, r1]
100041f2:	4c1a      	ldr	r4, [pc, #104]	; (1000425c <hardware_alarm_set_target+0xb8>)
100041f4:	0080      	lsls	r0, r0, #2
100041f6:	5103      	str	r3, [r0, r4]
100041f8:	6a0c      	ldr	r4, [r1, #32]
100041fa:	2000      	movs	r0, #0
100041fc:	422c      	tst	r4, r5
100041fe:	d00c      	beq.n	1000421a <hardware_alarm_set_target+0x76>
10004200:	6a4c      	ldr	r4, [r1, #36]	; 0x24
10004202:	e000      	b.n	10004206 <hardware_alarm_set_target+0x62>
10004204:	0004      	movs	r4, r0
10004206:	6a8f      	ldr	r7, [r1, #40]	; 0x28
10004208:	6a48      	ldr	r0, [r1, #36]	; 0x24
1000420a:	42a0      	cmp	r0, r4
1000420c:	d1fa      	bne.n	10004204 <hardware_alarm_set_target+0x60>
1000420e:	42a3      	cmp	r3, r4
10004210:	d802      	bhi.n	10004218 <hardware_alarm_set_target+0x74>
10004212:	d113      	bne.n	1000423c <hardware_alarm_set_target+0x98>
10004214:	42ba      	cmp	r2, r7
10004216:	d911      	bls.n	1000423c <hardware_alarm_set_target+0x98>
10004218:	2000      	movs	r0, #0
1000421a:	f3bf 8f5f 	dmb	sy
1000421e:	2200      	movs	r2, #0
10004220:	4b0c      	ldr	r3, [pc, #48]	; (10004254 <hardware_alarm_set_target+0xb0>)
10004222:	601a      	str	r2, [r3, #0]
10004224:	f388 8810 	msr	PRIMASK, r8
10004228:	bc0c      	pop	{r2, r3}
1000422a:	4690      	mov	r8, r2
1000422c:	4699      	mov	r9, r3
1000422e:	bdf0      	pop	{r4, r5, r6, r7, pc}
10004230:	42ab      	cmp	r3, r5
10004232:	d101      	bne.n	10004238 <hardware_alarm_set_target+0x94>
10004234:	42b2      	cmp	r2, r6
10004236:	d8c3      	bhi.n	100041c0 <hardware_alarm_set_target+0x1c>
10004238:	2001      	movs	r0, #1
1000423a:	e7f5      	b.n	10004228 <hardware_alarm_set_target+0x84>
1000423c:	4b04      	ldr	r3, [pc, #16]	; (10004250 <hardware_alarm_set_target+0xac>)
1000423e:	464f      	mov	r7, r9
10004240:	621d      	str	r5, [r3, #32]
10004242:	635d      	str	r5, [r3, #52]	; 0x34
10004244:	4663      	mov	r3, ip
10004246:	439f      	bics	r7, r3
10004248:	7037      	strb	r7, [r6, #0]
1000424a:	2001      	movs	r0, #1
1000424c:	e7e5      	b.n	1000421a <hardware_alarm_set_target+0x76>
1000424e:	46c0      	nop			; (mov r8, r8)
10004250:	40054000 	.word	0x40054000
10004254:	d0000128 	.word	0xd0000128
10004258:	20001666 	.word	0x20001666
1000425c:	20001650 	.word	0x20001650

10004260 <hardware_alarm_cancel>:
10004260:	b510      	push	{r4, lr}
10004262:	f3ef 8410 	mrs	r4, PRIMASK
10004266:	b672      	cpsid	i
10004268:	490a      	ldr	r1, [pc, #40]	; (10004294 <hardware_alarm_cancel+0x34>)
1000426a:	680b      	ldr	r3, [r1, #0]
1000426c:	2b00      	cmp	r3, #0
1000426e:	d0fc      	beq.n	1000426a <hardware_alarm_cancel+0xa>
10004270:	f3bf 8f5f 	dmb	sy
10004274:	2301      	movs	r3, #1
10004276:	4083      	lsls	r3, r0
10004278:	4a07      	ldr	r2, [pc, #28]	; (10004298 <hardware_alarm_cancel+0x38>)
1000427a:	4808      	ldr	r0, [pc, #32]	; (1000429c <hardware_alarm_cancel+0x3c>)
1000427c:	6213      	str	r3, [r2, #32]
1000427e:	7802      	ldrb	r2, [r0, #0]
10004280:	439a      	bics	r2, r3
10004282:	7002      	strb	r2, [r0, #0]
10004284:	f3bf 8f5f 	dmb	sy
10004288:	2300      	movs	r3, #0
1000428a:	600b      	str	r3, [r1, #0]
1000428c:	f384 8810 	msr	PRIMASK, r4
10004290:	bd10      	pop	{r4, pc}
10004292:	46c0      	nop			; (mov r8, r8)
10004294:	d0000128 	.word	0xd0000128
10004298:	40054000 	.word	0x40054000
1000429c:	20001666 	.word	0x20001666

100042a0 <lock_init>:
100042a0:	4b02      	ldr	r3, [pc, #8]	; (100042ac <lock_init+0xc>)
100042a2:	469c      	mov	ip, r3
100042a4:	4461      	add	r1, ip
100042a6:	0089      	lsls	r1, r1, #2
100042a8:	6001      	str	r1, [r0, #0]
100042aa:	4770      	bx	lr
100042ac:	34000040 	.word	0x34000040

100042b0 <mutex_init>:
100042b0:	b510      	push	{r4, lr}
100042b2:	0004      	movs	r4, r0
100042b4:	f7ff f9fa 	bl	100036ac <next_striped_spin_lock_num>
100042b8:	0001      	movs	r1, r0
100042ba:	0020      	movs	r0, r4
100042bc:	f7ff fff0 	bl	100042a0 <lock_init>
100042c0:	23ff      	movs	r3, #255	; 0xff
100042c2:	7123      	strb	r3, [r4, #4]
100042c4:	f3bf 8f5f 	dmb	sy
100042c8:	bd10      	pop	{r4, pc}
100042ca:	46c0      	nop			; (mov r8, r8)

100042cc <critical_section_init>:
100042cc:	b510      	push	{r4, lr}
100042ce:	0004      	movs	r4, r0
100042d0:	2001      	movs	r0, #1
100042d2:	f7ff f9f7 	bl	100036c4 <spin_lock_claim_unused>
100042d6:	0001      	movs	r1, r0
100042d8:	0020      	movs	r0, r4
100042da:	f7ff ffe1 	bl	100042a0 <lock_init>
100042de:	f3bf 8f5f 	dmb	sy
100042e2:	bd10      	pop	{r4, pc}

100042e4 <ph_merge_two_pass.part.3>:
100042e4:	b5f8      	push	{r3, r4, r5, r6, r7, lr}
100042e6:	464e      	mov	r6, r9
100042e8:	4645      	mov	r5, r8
100042ea:	46de      	mov	lr, fp
100042ec:	4657      	mov	r7, sl
100042ee:	b5e0      	push	{r5, r6, r7, lr}
100042f0:	004c      	lsls	r4, r1, #1
100042f2:	1864      	adds	r4, r4, r1
100042f4:	6803      	ldr	r3, [r0, #0]
100042f6:	3c03      	subs	r4, #3
100042f8:	191a      	adds	r2, r3, r4
100042fa:	000d      	movs	r5, r1
100042fc:	7851      	ldrb	r1, [r2, #1]
100042fe:	0006      	movs	r6, r0
10004300:	4689      	mov	r9, r1
10004302:	2900      	cmp	r1, #0
10004304:	d106      	bne.n	10004314 <ph_merge_two_pass.part.3+0x30>
10004306:	0028      	movs	r0, r5
10004308:	bc3c      	pop	{r2, r3, r4, r5}
1000430a:	4690      	mov	r8, r2
1000430c:	4699      	mov	r9, r3
1000430e:	46a2      	mov	sl, r4
10004310:	46ab      	mov	fp, r5
10004312:	bdf8      	pop	{r3, r4, r5, r6, r7, pc}
10004314:	004f      	lsls	r7, r1, #1
10004316:	444f      	add	r7, r9
10004318:	3f03      	subs	r7, #3
1000431a:	19d8      	adds	r0, r3, r7
1000431c:	7841      	ldrb	r1, [r0, #1]
1000431e:	4688      	mov	r8, r1
10004320:	2100      	movs	r1, #0
10004322:	7041      	strb	r1, [r0, #1]
10004324:	7051      	strb	r1, [r2, #1]
10004326:	2d00      	cmp	r5, #0
10004328:	d012      	beq.n	10004350 <ph_merge_two_pass.part.3+0x6c>
1000432a:	6873      	ldr	r3, [r6, #4]
1000432c:	464a      	mov	r2, r9
1000432e:	0029      	movs	r1, r5
10004330:	68b0      	ldr	r0, [r6, #8]
10004332:	4798      	blx	r3
10004334:	6833      	ldr	r3, [r6, #0]
10004336:	2800      	cmp	r0, #0
10004338:	d073      	beq.n	10004422 <ph_merge_two_pass.part.3+0x13e>
1000433a:	19df      	adds	r7, r3, r7
1000433c:	191a      	adds	r2, r3, r4
1000433e:	70bd      	strb	r5, [r7, #2]
10004340:	7811      	ldrb	r1, [r2, #0]
10004342:	2900      	cmp	r1, #0
10004344:	d000      	beq.n	10004348 <ph_merge_two_pass.part.3+0x64>
10004346:	7079      	strb	r1, [r7, #1]
10004348:	4649      	mov	r1, r9
1000434a:	0027      	movs	r7, r4
1000434c:	7011      	strb	r1, [r2, #0]
1000434e:	e000      	b.n	10004352 <ph_merge_two_pass.part.3+0x6e>
10004350:	464d      	mov	r5, r9
10004352:	4642      	mov	r2, r8
10004354:	2a00      	cmp	r2, #0
10004356:	d0d6      	beq.n	10004306 <ph_merge_two_pass.part.3+0x22>
10004358:	0054      	lsls	r4, r2, #1
1000435a:	4444      	add	r4, r8
1000435c:	3c03      	subs	r4, #3
1000435e:	191a      	adds	r2, r3, r4
10004360:	7851      	ldrb	r1, [r2, #1]
10004362:	4689      	mov	r9, r1
10004364:	2900      	cmp	r1, #0
10004366:	d111      	bne.n	1000438c <ph_merge_two_pass.part.3+0xa8>
10004368:	6873      	ldr	r3, [r6, #4]
1000436a:	4642      	mov	r2, r8
1000436c:	0029      	movs	r1, r5
1000436e:	68b0      	ldr	r0, [r6, #8]
10004370:	4798      	blx	r3
10004372:	6833      	ldr	r3, [r6, #0]
10004374:	2800      	cmp	r0, #0
10004376:	d049      	beq.n	1000440c <ph_merge_two_pass.part.3+0x128>
10004378:	191c      	adds	r4, r3, r4
1000437a:	19df      	adds	r7, r3, r7
1000437c:	70a5      	strb	r5, [r4, #2]
1000437e:	783b      	ldrb	r3, [r7, #0]
10004380:	2b00      	cmp	r3, #0
10004382:	d000      	beq.n	10004386 <ph_merge_two_pass.part.3+0xa2>
10004384:	7063      	strb	r3, [r4, #1]
10004386:	4643      	mov	r3, r8
10004388:	703b      	strb	r3, [r7, #0]
1000438a:	e7bc      	b.n	10004306 <ph_merge_two_pass.part.3+0x22>
1000438c:	0049      	lsls	r1, r1, #1
1000438e:	4449      	add	r1, r9
10004390:	3903      	subs	r1, #3
10004392:	468a      	mov	sl, r1
10004394:	4453      	add	r3, sl
10004396:	7859      	ldrb	r1, [r3, #1]
10004398:	468b      	mov	fp, r1
1000439a:	2100      	movs	r1, #0
1000439c:	7059      	strb	r1, [r3, #1]
1000439e:	7051      	strb	r1, [r2, #1]
100043a0:	6873      	ldr	r3, [r6, #4]
100043a2:	464a      	mov	r2, r9
100043a4:	4641      	mov	r1, r8
100043a6:	68b0      	ldr	r0, [r6, #8]
100043a8:	4798      	blx	r3
100043aa:	6833      	ldr	r3, [r6, #0]
100043ac:	2800      	cmp	r0, #0
100043ae:	d143      	bne.n	10004438 <ph_merge_two_pass.part.3+0x154>
100043b0:	4652      	mov	r2, sl
100043b2:	191c      	adds	r4, r3, r4
100043b4:	189a      	adds	r2, r3, r2
100043b6:	464b      	mov	r3, r9
100043b8:	70a3      	strb	r3, [r4, #2]
100043ba:	7813      	ldrb	r3, [r2, #0]
100043bc:	2b00      	cmp	r3, #0
100043be:	d000      	beq.n	100043c2 <ph_merge_two_pass.part.3+0xde>
100043c0:	7063      	strb	r3, [r4, #1]
100043c2:	4643      	mov	r3, r8
100043c4:	4654      	mov	r4, sl
100043c6:	46c8      	mov	r8, r9
100043c8:	7013      	strb	r3, [r2, #0]
100043ca:	465b      	mov	r3, fp
100043cc:	2b00      	cmp	r3, #0
100043ce:	d0cb      	beq.n	10004368 <ph_merge_two_pass.part.3+0x84>
100043d0:	4659      	mov	r1, fp
100043d2:	0030      	movs	r0, r6
100043d4:	f7ff ff86 	bl	100042e4 <ph_merge_two_pass.part.3>
100043d8:	4681      	mov	r9, r0
100043da:	2800      	cmp	r0, #0
100043dc:	d0c4      	beq.n	10004368 <ph_merge_two_pass.part.3+0x84>
100043de:	0002      	movs	r2, r0
100043e0:	4641      	mov	r1, r8
100043e2:	68b0      	ldr	r0, [r6, #8]
100043e4:	6873      	ldr	r3, [r6, #4]
100043e6:	4798      	blx	r3
100043e8:	6832      	ldr	r2, [r6, #0]
100043ea:	2800      	cmp	r0, #0
100043ec:	d02f      	beq.n	1000444e <ph_merge_two_pass.part.3+0x16a>
100043ee:	464b      	mov	r3, r9
100043f0:	005b      	lsls	r3, r3, #1
100043f2:	444b      	add	r3, r9
100043f4:	3b03      	subs	r3, #3
100043f6:	1911      	adds	r1, r2, r4
100043f8:	18d3      	adds	r3, r2, r3
100043fa:	4642      	mov	r2, r8
100043fc:	709a      	strb	r2, [r3, #2]
100043fe:	780a      	ldrb	r2, [r1, #0]
10004400:	2a00      	cmp	r2, #0
10004402:	d000      	beq.n	10004406 <ph_merge_two_pass.part.3+0x122>
10004404:	705a      	strb	r2, [r3, #1]
10004406:	464b      	mov	r3, r9
10004408:	700b      	strb	r3, [r1, #0]
1000440a:	e7ad      	b.n	10004368 <ph_merge_two_pass.part.3+0x84>
1000440c:	191c      	adds	r4, r3, r4
1000440e:	19df      	adds	r7, r3, r7
10004410:	4643      	mov	r3, r8
10004412:	70bb      	strb	r3, [r7, #2]
10004414:	7823      	ldrb	r3, [r4, #0]
10004416:	2b00      	cmp	r3, #0
10004418:	d000      	beq.n	1000441c <ph_merge_two_pass.part.3+0x138>
1000441a:	707b      	strb	r3, [r7, #1]
1000441c:	7025      	strb	r5, [r4, #0]
1000441e:	4645      	mov	r5, r8
10004420:	e771      	b.n	10004306 <ph_merge_two_pass.part.3+0x22>
10004422:	4649      	mov	r1, r9
10004424:	191c      	adds	r4, r3, r4
10004426:	19da      	adds	r2, r3, r7
10004428:	70a1      	strb	r1, [r4, #2]
1000442a:	7811      	ldrb	r1, [r2, #0]
1000442c:	2900      	cmp	r1, #0
1000442e:	d000      	beq.n	10004432 <ph_merge_two_pass.part.3+0x14e>
10004430:	7061      	strb	r1, [r4, #1]
10004432:	7015      	strb	r5, [r2, #0]
10004434:	464d      	mov	r5, r9
10004436:	e78c      	b.n	10004352 <ph_merge_two_pass.part.3+0x6e>
10004438:	4641      	mov	r1, r8
1000443a:	191a      	adds	r2, r3, r4
1000443c:	4453      	add	r3, sl
1000443e:	7099      	strb	r1, [r3, #2]
10004440:	7811      	ldrb	r1, [r2, #0]
10004442:	2900      	cmp	r1, #0
10004444:	d000      	beq.n	10004448 <ph_merge_two_pass.part.3+0x164>
10004446:	7059      	strb	r1, [r3, #1]
10004448:	464b      	mov	r3, r9
1000444a:	7013      	strb	r3, [r2, #0]
1000444c:	e7bd      	b.n	100043ca <ph_merge_two_pass.part.3+0xe6>
1000444e:	464b      	mov	r3, r9
10004450:	005b      	lsls	r3, r3, #1
10004452:	444b      	add	r3, r9
10004454:	3b03      	subs	r3, #3
10004456:	18d1      	adds	r1, r2, r3
10004458:	1914      	adds	r4, r2, r4
1000445a:	464a      	mov	r2, r9
1000445c:	70a2      	strb	r2, [r4, #2]
1000445e:	780a      	ldrb	r2, [r1, #0]
10004460:	2a00      	cmp	r2, #0
10004462:	d000      	beq.n	10004466 <ph_merge_two_pass.part.3+0x182>
10004464:	7062      	strb	r2, [r4, #1]
10004466:	4642      	mov	r2, r8
10004468:	001c      	movs	r4, r3
1000446a:	700a      	strb	r2, [r1, #0]
1000446c:	46c8      	mov	r8, r9
1000446e:	e77b      	b.n	10004368 <ph_merge_two_pass.part.3+0x84>

10004470 <ph_create>:
10004470:	b5f0      	push	{r4, r5, r6, r7, lr}
10004472:	46c6      	mov	lr, r8
10004474:	0005      	movs	r5, r0
10004476:	000e      	movs	r6, r1
10004478:	b500      	push	{lr}
1000447a:	2110      	movs	r1, #16
1000447c:	2001      	movs	r0, #1
1000447e:	4690      	mov	r8, r2
10004480:	f003 f972 	bl	10007768 <__wrap_calloc>
10004484:	b2ef      	uxtb	r7, r5
10004486:	0004      	movs	r4, r0
10004488:	6046      	str	r6, [r0, #4]
1000448a:	7307      	strb	r7, [r0, #12]
1000448c:	2103      	movs	r1, #3
1000448e:	0028      	movs	r0, r5
10004490:	f003 f96a 	bl	10007768 <__wrap_calloc>
10004494:	4643      	mov	r3, r8
10004496:	60a3      	str	r3, [r4, #8]
10004498:	2300      	movs	r3, #0
1000449a:	0006      	movs	r6, r0
1000449c:	6020      	str	r0, [r4, #0]
1000449e:	20ff      	movs	r0, #255	; 0xff
100044a0:	7363      	strb	r3, [r4, #13]
100044a2:	3301      	adds	r3, #1
100044a4:	73a3      	strb	r3, [r4, #14]
100044a6:	73e7      	strb	r7, [r4, #15]
100044a8:	4028      	ands	r0, r5
100044aa:	2801      	cmp	r0, #1
100044ac:	d907      	bls.n	100044be <ph_create+0x4e>
100044ae:	1c72      	adds	r2, r6, #1
100044b0:	1c41      	adds	r1, r0, #1
100044b2:	3301      	adds	r3, #1
100044b4:	7013      	strb	r3, [r2, #0]
100044b6:	3301      	adds	r3, #1
100044b8:	3203      	adds	r2, #3
100044ba:	4299      	cmp	r1, r3
100044bc:	d1fa      	bne.n	100044b4 <ph_create+0x44>
100044be:	0043      	lsls	r3, r0, #1
100044c0:	1818      	adds	r0, r3, r0
100044c2:	2300      	movs	r3, #0
100044c4:	1830      	adds	r0, r6, r0
100044c6:	3803      	subs	r0, #3
100044c8:	7043      	strb	r3, [r0, #1]
100044ca:	0020      	movs	r0, r4
100044cc:	bc04      	pop	{r2}
100044ce:	4690      	mov	r8, r2
100044d0:	bdf0      	pop	{r4, r5, r6, r7, pc}
100044d2:	46c0      	nop			; (mov r8, r8)

100044d4 <ph_remove_head_reserve>:
100044d4:	b5f0      	push	{r4, r5, r6, r7, lr}
100044d6:	464e      	mov	r6, r9
100044d8:	4657      	mov	r7, sl
100044da:	4645      	mov	r5, r8
100044dc:	46de      	mov	lr, fp
100044de:	b5e0      	push	{r5, r6, r7, lr}
100044e0:	7b47      	ldrb	r7, [r0, #13]
100044e2:	6803      	ldr	r3, [r0, #0]
100044e4:	007c      	lsls	r4, r7, #1
100044e6:	19e4      	adds	r4, r4, r7
100044e8:	3c03      	subs	r4, #3
100044ea:	191a      	adds	r2, r3, r4
100044ec:	7816      	ldrb	r6, [r2, #0]
100044ee:	b083      	sub	sp, #12
100044f0:	0005      	movs	r5, r0
100044f2:	4689      	mov	r9, r1
100044f4:	2e00      	cmp	r6, #0
100044f6:	d11e      	bne.n	10004536 <ph_remove_head_reserve+0x62>
100044f8:	2900      	cmp	r1, #0
100044fa:	d111      	bne.n	10004520 <ph_remove_head_reserve+0x4c>
100044fc:	7bc0      	ldrb	r0, [r0, #15]
100044fe:	2800      	cmp	r0, #0
10004500:	d069      	beq.n	100045d6 <ph_remove_head_reserve+0x102>
10004502:	0041      	lsls	r1, r0, #1
10004504:	1809      	adds	r1, r1, r0
10004506:	1859      	adds	r1, r3, r1
10004508:	3903      	subs	r1, #3
1000450a:	704f      	strb	r7, [r1, #1]
1000450c:	73ef      	strb	r7, [r5, #15]
1000450e:	2e00      	cmp	r6, #0
10004510:	d006      	beq.n	10004520 <ph_remove_head_reserve+0x4c>
10004512:	0071      	lsls	r1, r6, #1
10004514:	1989      	adds	r1, r1, r6
10004516:	3903      	subs	r1, #3
10004518:	4688      	mov	r8, r1
1000451a:	2100      	movs	r1, #0
1000451c:	4443      	add	r3, r8
1000451e:	7099      	strb	r1, [r3, #2]
10004520:	2300      	movs	r3, #0
10004522:	0038      	movs	r0, r7
10004524:	7053      	strb	r3, [r2, #1]
10004526:	736e      	strb	r6, [r5, #13]
10004528:	b003      	add	sp, #12
1000452a:	bc3c      	pop	{r2, r3, r4, r5}
1000452c:	4690      	mov	r8, r2
1000452e:	4699      	mov	r9, r3
10004530:	46a2      	mov	sl, r4
10004532:	46ab      	mov	fp, r5
10004534:	bdf0      	pop	{r4, r5, r6, r7, pc}
10004536:	0071      	lsls	r1, r6, #1
10004538:	1989      	adds	r1, r1, r6
1000453a:	3903      	subs	r1, #3
1000453c:	4688      	mov	r8, r1
1000453e:	1859      	adds	r1, r3, r1
10004540:	7848      	ldrb	r0, [r1, #1]
10004542:	4682      	mov	sl, r0
10004544:	2800      	cmp	r0, #0
10004546:	d107      	bne.n	10004558 <ph_remove_head_reserve+0x84>
10004548:	4649      	mov	r1, r9
1000454a:	2900      	cmp	r1, #0
1000454c:	d1e5      	bne.n	1000451a <ph_remove_head_reserve+0x46>
1000454e:	7be8      	ldrb	r0, [r5, #15]
10004550:	2800      	cmp	r0, #0
10004552:	d1d6      	bne.n	10004502 <ph_remove_head_reserve+0x2e>
10004554:	73ef      	strb	r7, [r5, #15]
10004556:	e7dc      	b.n	10004512 <ph_remove_head_reserve+0x3e>
10004558:	0042      	lsls	r2, r0, #1
1000455a:	4452      	add	r2, sl
1000455c:	3a03      	subs	r2, #3
1000455e:	4694      	mov	ip, r2
10004560:	9201      	str	r2, [sp, #4]
10004562:	4463      	add	r3, ip
10004564:	785a      	ldrb	r2, [r3, #1]
10004566:	4693      	mov	fp, r2
10004568:	2200      	movs	r2, #0
1000456a:	705a      	strb	r2, [r3, #1]
1000456c:	704a      	strb	r2, [r1, #1]
1000456e:	686b      	ldr	r3, [r5, #4]
10004570:	4652      	mov	r2, sl
10004572:	0031      	movs	r1, r6
10004574:	68a8      	ldr	r0, [r5, #8]
10004576:	4798      	blx	r3
10004578:	682b      	ldr	r3, [r5, #0]
1000457a:	2800      	cmp	r0, #0
1000457c:	d032      	beq.n	100045e4 <ph_remove_head_reserve+0x110>
1000457e:	4641      	mov	r1, r8
10004580:	9801      	ldr	r0, [sp, #4]
10004582:	185a      	adds	r2, r3, r1
10004584:	1819      	adds	r1, r3, r0
10004586:	708e      	strb	r6, [r1, #2]
10004588:	7810      	ldrb	r0, [r2, #0]
1000458a:	2800      	cmp	r0, #0
1000458c:	d125      	bne.n	100045da <ph_remove_head_reserve+0x106>
1000458e:	4651      	mov	r1, sl
10004590:	7011      	strb	r1, [r2, #0]
10004592:	465a      	mov	r2, fp
10004594:	2a00      	cmp	r2, #0
10004596:	d023      	beq.n	100045e0 <ph_remove_head_reserve+0x10c>
10004598:	4659      	mov	r1, fp
1000459a:	0028      	movs	r0, r5
1000459c:	f7ff fea2 	bl	100042e4 <ph_merge_two_pass.part.3>
100045a0:	4682      	mov	sl, r0
100045a2:	2800      	cmp	r0, #0
100045a4:	d01b      	beq.n	100045de <ph_remove_head_reserve+0x10a>
100045a6:	0002      	movs	r2, r0
100045a8:	686b      	ldr	r3, [r5, #4]
100045aa:	0031      	movs	r1, r6
100045ac:	68a8      	ldr	r0, [r5, #8]
100045ae:	4798      	blx	r3
100045b0:	682b      	ldr	r3, [r5, #0]
100045b2:	2800      	cmp	r0, #0
100045b4:	d025      	beq.n	10004602 <ph_remove_head_reserve+0x12e>
100045b6:	4642      	mov	r2, r8
100045b8:	1899      	adds	r1, r3, r2
100045ba:	4652      	mov	r2, sl
100045bc:	0052      	lsls	r2, r2, #1
100045be:	4452      	add	r2, sl
100045c0:	3a03      	subs	r2, #3
100045c2:	189a      	adds	r2, r3, r2
100045c4:	7096      	strb	r6, [r2, #2]
100045c6:	7808      	ldrb	r0, [r1, #0]
100045c8:	2800      	cmp	r0, #0
100045ca:	d000      	beq.n	100045ce <ph_remove_head_reserve+0xfa>
100045cc:	7050      	strb	r0, [r2, #1]
100045ce:	4652      	mov	r2, sl
100045d0:	700a      	strb	r2, [r1, #0]
100045d2:	191a      	adds	r2, r3, r4
100045d4:	e7b8      	b.n	10004548 <ph_remove_head_reserve+0x74>
100045d6:	73ef      	strb	r7, [r5, #15]
100045d8:	e7a2      	b.n	10004520 <ph_remove_head_reserve+0x4c>
100045da:	7048      	strb	r0, [r1, #1]
100045dc:	e7d7      	b.n	1000458e <ph_remove_head_reserve+0xba>
100045de:	682b      	ldr	r3, [r5, #0]
100045e0:	191a      	adds	r2, r3, r4
100045e2:	e7b1      	b.n	10004548 <ph_remove_head_reserve+0x74>
100045e4:	4641      	mov	r1, r8
100045e6:	4650      	mov	r0, sl
100045e8:	9a01      	ldr	r2, [sp, #4]
100045ea:	1859      	adds	r1, r3, r1
100045ec:	189a      	adds	r2, r3, r2
100045ee:	7088      	strb	r0, [r1, #2]
100045f0:	7810      	ldrb	r0, [r2, #0]
100045f2:	2800      	cmp	r0, #0
100045f4:	d000      	beq.n	100045f8 <ph_remove_head_reserve+0x124>
100045f6:	7048      	strb	r0, [r1, #1]
100045f8:	7016      	strb	r6, [r2, #0]
100045fa:	9a01      	ldr	r2, [sp, #4]
100045fc:	4656      	mov	r6, sl
100045fe:	4690      	mov	r8, r2
10004600:	e7c7      	b.n	10004592 <ph_remove_head_reserve+0xbe>
10004602:	4652      	mov	r2, sl
10004604:	0051      	lsls	r1, r2, #1
10004606:	4451      	add	r1, sl
10004608:	3903      	subs	r1, #3
1000460a:	185a      	adds	r2, r3, r1
1000460c:	4640      	mov	r0, r8
1000460e:	4693      	mov	fp, r2
10004610:	4652      	mov	r2, sl
10004612:	1818      	adds	r0, r3, r0
10004614:	7082      	strb	r2, [r0, #2]
10004616:	465a      	mov	r2, fp
10004618:	7812      	ldrb	r2, [r2, #0]
1000461a:	2a00      	cmp	r2, #0
1000461c:	d000      	beq.n	10004620 <ph_remove_head_reserve+0x14c>
1000461e:	7042      	strb	r2, [r0, #1]
10004620:	465a      	mov	r2, fp
10004622:	4688      	mov	r8, r1
10004624:	7016      	strb	r6, [r2, #0]
10004626:	191a      	adds	r2, r3, r4
10004628:	4656      	mov	r6, sl
1000462a:	e78d      	b.n	10004548 <ph_remove_head_reserve+0x74>

1000462c <ph_delete>:
1000462c:	b5f0      	push	{r4, r5, r6, r7, lr}
1000462e:	4645      	mov	r5, r8
10004630:	46de      	mov	lr, fp
10004632:	4657      	mov	r7, sl
10004634:	464e      	mov	r6, r9
10004636:	b5e0      	push	{r5, r6, r7, lr}
10004638:	000c      	movs	r4, r1
1000463a:	b083      	sub	sp, #12
1000463c:	0005      	movs	r5, r0
1000463e:	2200      	movs	r2, #0
10004640:	2900      	cmp	r1, #0
10004642:	d03d      	beq.n	100046c0 <ph_delete+0x94>
10004644:	7b47      	ldrb	r7, [r0, #13]
10004646:	6801      	ldr	r1, [r0, #0]
10004648:	42bc      	cmp	r4, r7
1000464a:	d06b      	beq.n	10004724 <ph_delete+0xf8>
1000464c:	0066      	lsls	r6, r4, #1
1000464e:	1936      	adds	r6, r6, r4
10004650:	3e03      	subs	r6, #3
10004652:	1988      	adds	r0, r1, r6
10004654:	7883      	ldrb	r3, [r0, #2]
10004656:	2b00      	cmp	r3, #0
10004658:	d032      	beq.n	100046c0 <ph_delete+0x94>
1000465a:	005a      	lsls	r2, r3, #1
1000465c:	18d3      	adds	r3, r2, r3
1000465e:	3b03      	subs	r3, #3
10004660:	18cb      	adds	r3, r1, r3
10004662:	781a      	ldrb	r2, [r3, #0]
10004664:	4294      	cmp	r4, r2
10004666:	d102      	bne.n	1000466e <ph_delete+0x42>
10004668:	e043      	b.n	100046f2 <ph_delete+0xc6>
1000466a:	2a00      	cmp	r2, #0
1000466c:	d008      	beq.n	10004680 <ph_delete+0x54>
1000466e:	0053      	lsls	r3, r2, #1
10004670:	189b      	adds	r3, r3, r2
10004672:	3b03      	subs	r3, #3
10004674:	18cb      	adds	r3, r1, r3
10004676:	785a      	ldrb	r2, [r3, #1]
10004678:	4294      	cmp	r4, r2
1000467a:	d1f6      	bne.n	1000466a <ph_delete+0x3e>
1000467c:	7842      	ldrb	r2, [r0, #1]
1000467e:	705a      	strb	r2, [r3, #1]
10004680:	2300      	movs	r3, #0
10004682:	7083      	strb	r3, [r0, #2]
10004684:	7043      	strb	r3, [r0, #1]
10004686:	7803      	ldrb	r3, [r0, #0]
10004688:	4698      	mov	r8, r3
1000468a:	2b00      	cmp	r3, #0
1000468c:	d125      	bne.n	100046da <ph_delete+0xae>
1000468e:	7bea      	ldrb	r2, [r5, #15]
10004690:	2a00      	cmp	r2, #0
10004692:	d01d      	beq.n	100046d0 <ph_delete+0xa4>
10004694:	0053      	lsls	r3, r2, #1
10004696:	189b      	adds	r3, r3, r2
10004698:	18cb      	adds	r3, r1, r3
1000469a:	3b03      	subs	r3, #3
1000469c:	705c      	strb	r4, [r3, #1]
1000469e:	4643      	mov	r3, r8
100046a0:	73ec      	strb	r4, [r5, #15]
100046a2:	2b00      	cmp	r3, #0
100046a4:	d100      	bne.n	100046a8 <ph_delete+0x7c>
100046a6:	e071      	b.n	1000478c <ph_delete+0x160>
100046a8:	005c      	lsls	r4, r3, #1
100046aa:	2300      	movs	r3, #0
100046ac:	4444      	add	r4, r8
100046ae:	3c03      	subs	r4, #3
100046b0:	1909      	adds	r1, r1, r4
100046b2:	708b      	strb	r3, [r1, #2]
100046b4:	7043      	strb	r3, [r0, #1]
100046b6:	2f00      	cmp	r7, #0
100046b8:	d11e      	bne.n	100046f8 <ph_delete+0xcc>
100046ba:	4643      	mov	r3, r8
100046bc:	2201      	movs	r2, #1
100046be:	736b      	strb	r3, [r5, #13]
100046c0:	0010      	movs	r0, r2
100046c2:	b003      	add	sp, #12
100046c4:	bc3c      	pop	{r2, r3, r4, r5}
100046c6:	4690      	mov	r8, r2
100046c8:	4699      	mov	r9, r3
100046ca:	46a2      	mov	sl, r4
100046cc:	46ab      	mov	fp, r5
100046ce:	bdf0      	pop	{r4, r5, r6, r7, pc}
100046d0:	46b8      	mov	r8, r7
100046d2:	73ec      	strb	r4, [r5, #15]
100046d4:	2300      	movs	r3, #0
100046d6:	7043      	strb	r3, [r0, #1]
100046d8:	e7ef      	b.n	100046ba <ph_delete+0x8e>
100046da:	0019      	movs	r1, r3
100046dc:	0028      	movs	r0, r5
100046de:	f7ff fe01 	bl	100042e4 <ph_merge_two_pass.part.3>
100046e2:	6829      	ldr	r1, [r5, #0]
100046e4:	7bea      	ldrb	r2, [r5, #15]
100046e6:	4680      	mov	r8, r0
100046e8:	7b6f      	ldrb	r7, [r5, #13]
100046ea:	1988      	adds	r0, r1, r6
100046ec:	2a00      	cmp	r2, #0
100046ee:	d0d6      	beq.n	1000469e <ph_delete+0x72>
100046f0:	e7d0      	b.n	10004694 <ph_delete+0x68>
100046f2:	7842      	ldrb	r2, [r0, #1]
100046f4:	701a      	strb	r2, [r3, #0]
100046f6:	e7c3      	b.n	10004680 <ph_delete+0x54>
100046f8:	4642      	mov	r2, r8
100046fa:	0039      	movs	r1, r7
100046fc:	68a8      	ldr	r0, [r5, #8]
100046fe:	686b      	ldr	r3, [r5, #4]
10004700:	4798      	blx	r3
10004702:	682a      	ldr	r2, [r5, #0]
10004704:	2800      	cmp	r0, #0
10004706:	d024      	beq.n	10004752 <ph_delete+0x126>
10004708:	007b      	lsls	r3, r7, #1
1000470a:	19db      	adds	r3, r3, r7
1000470c:	1914      	adds	r4, r2, r4
1000470e:	3b03      	subs	r3, #3
10004710:	18d3      	adds	r3, r2, r3
10004712:	70a7      	strb	r7, [r4, #2]
10004714:	781a      	ldrb	r2, [r3, #0]
10004716:	2a00      	cmp	r2, #0
10004718:	d000      	beq.n	1000471c <ph_delete+0xf0>
1000471a:	7062      	strb	r2, [r4, #1]
1000471c:	4642      	mov	r2, r8
1000471e:	46b8      	mov	r8, r7
10004720:	701a      	strb	r2, [r3, #0]
10004722:	e7ca      	b.n	100046ba <ph_delete+0x8e>
10004724:	007e      	lsls	r6, r7, #1
10004726:	19f6      	adds	r6, r6, r7
10004728:	3e03      	subs	r6, #3
1000472a:	198b      	adds	r3, r1, r6
1000472c:	7818      	ldrb	r0, [r3, #0]
1000472e:	4680      	mov	r8, r0
10004730:	2800      	cmp	r0, #0
10004732:	d11b      	bne.n	1000476c <ph_delete+0x140>
10004734:	7be8      	ldrb	r0, [r5, #15]
10004736:	2800      	cmp	r0, #0
10004738:	d004      	beq.n	10004744 <ph_delete+0x118>
1000473a:	0042      	lsls	r2, r0, #1
1000473c:	1812      	adds	r2, r2, r0
1000473e:	188a      	adds	r2, r1, r2
10004740:	3a03      	subs	r2, #3
10004742:	7054      	strb	r4, [r2, #1]
10004744:	73ec      	strb	r4, [r5, #15]
10004746:	2200      	movs	r2, #0
10004748:	705a      	strb	r2, [r3, #1]
1000474a:	4643      	mov	r3, r8
1000474c:	3201      	adds	r2, #1
1000474e:	736b      	strb	r3, [r5, #13]
10004750:	e7b6      	b.n	100046c0 <ph_delete+0x94>
10004752:	007b      	lsls	r3, r7, #1
10004754:	19db      	adds	r3, r3, r7
10004756:	3b03      	subs	r3, #3
10004758:	1914      	adds	r4, r2, r4
1000475a:	18d3      	adds	r3, r2, r3
1000475c:	4642      	mov	r2, r8
1000475e:	709a      	strb	r2, [r3, #2]
10004760:	7822      	ldrb	r2, [r4, #0]
10004762:	2a00      	cmp	r2, #0
10004764:	d000      	beq.n	10004768 <ph_delete+0x13c>
10004766:	705a      	strb	r2, [r3, #1]
10004768:	7027      	strb	r7, [r4, #0]
1000476a:	e7a6      	b.n	100046ba <ph_delete+0x8e>
1000476c:	0044      	lsls	r4, r0, #1
1000476e:	4444      	add	r4, r8
10004770:	1ee0      	subs	r0, r4, #3
10004772:	9001      	str	r0, [sp, #4]
10004774:	1808      	adds	r0, r1, r0
10004776:	7844      	ldrb	r4, [r0, #1]
10004778:	46a2      	mov	sl, r4
1000477a:	2c00      	cmp	r4, #0
1000477c:	d108      	bne.n	10004790 <ph_delete+0x164>
1000477e:	7bec      	ldrb	r4, [r5, #15]
10004780:	2c00      	cmp	r4, #0
10004782:	d176      	bne.n	10004872 <ph_delete+0x246>
10004784:	73ef      	strb	r7, [r5, #15]
10004786:	2200      	movs	r2, #0
10004788:	7082      	strb	r2, [r0, #2]
1000478a:	e7dc      	b.n	10004746 <ph_delete+0x11a>
1000478c:	46b8      	mov	r8, r7
1000478e:	e7a1      	b.n	100046d4 <ph_delete+0xa8>
10004790:	0063      	lsls	r3, r4, #1
10004792:	4453      	add	r3, sl
10004794:	3b03      	subs	r3, #3
10004796:	4699      	mov	r9, r3
10004798:	4449      	add	r1, r9
1000479a:	784b      	ldrb	r3, [r1, #1]
1000479c:	704a      	strb	r2, [r1, #1]
1000479e:	7042      	strb	r2, [r0, #1]
100047a0:	469b      	mov	fp, r3
100047a2:	0022      	movs	r2, r4
100047a4:	686b      	ldr	r3, [r5, #4]
100047a6:	4641      	mov	r1, r8
100047a8:	68a8      	ldr	r0, [r5, #8]
100047aa:	4798      	blx	r3
100047ac:	682b      	ldr	r3, [r5, #0]
100047ae:	2800      	cmp	r0, #0
100047b0:	d04b      	beq.n	1000484a <ph_delete+0x21e>
100047b2:	4649      	mov	r1, r9
100047b4:	4640      	mov	r0, r8
100047b6:	9c01      	ldr	r4, [sp, #4]
100047b8:	1859      	adds	r1, r3, r1
100047ba:	191a      	adds	r2, r3, r4
100047bc:	7088      	strb	r0, [r1, #2]
100047be:	7810      	ldrb	r0, [r2, #0]
100047c0:	2800      	cmp	r0, #0
100047c2:	d150      	bne.n	10004866 <ph_delete+0x23a>
100047c4:	4651      	mov	r1, sl
100047c6:	46a1      	mov	r9, r4
100047c8:	7011      	strb	r1, [r2, #0]
100047ca:	465a      	mov	r2, fp
100047cc:	2a00      	cmp	r2, #0
100047ce:	d020      	beq.n	10004812 <ph_delete+0x1e6>
100047d0:	4659      	mov	r1, fp
100047d2:	0028      	movs	r0, r5
100047d4:	f7ff fd86 	bl	100042e4 <ph_merge_two_pass.part.3>
100047d8:	1e04      	subs	r4, r0, #0
100047da:	d019      	beq.n	10004810 <ph_delete+0x1e4>
100047dc:	0002      	movs	r2, r0
100047de:	4641      	mov	r1, r8
100047e0:	68a8      	ldr	r0, [r5, #8]
100047e2:	686b      	ldr	r3, [r5, #4]
100047e4:	4798      	blx	r3
100047e6:	2800      	cmp	r0, #0
100047e8:	d01e      	beq.n	10004828 <ph_delete+0x1fc>
100047ea:	464a      	mov	r2, r9
100047ec:	4641      	mov	r1, r8
100047ee:	682b      	ldr	r3, [r5, #0]
100047f0:	1898      	adds	r0, r3, r2
100047f2:	0062      	lsls	r2, r4, #1
100047f4:	1912      	adds	r2, r2, r4
100047f6:	3a03      	subs	r2, #3
100047f8:	189a      	adds	r2, r3, r2
100047fa:	7091      	strb	r1, [r2, #2]
100047fc:	7801      	ldrb	r1, [r0, #0]
100047fe:	2900      	cmp	r1, #0
10004800:	d000      	beq.n	10004804 <ph_delete+0x1d8>
10004802:	7051      	strb	r1, [r2, #1]
10004804:	7004      	strb	r4, [r0, #0]
10004806:	7be9      	ldrb	r1, [r5, #15]
10004808:	2900      	cmp	r1, #0
1000480a:	d105      	bne.n	10004818 <ph_delete+0x1ec>
1000480c:	199b      	adds	r3, r3, r6
1000480e:	e7b9      	b.n	10004784 <ph_delete+0x158>
10004810:	682b      	ldr	r3, [r5, #0]
10004812:	464a      	mov	r2, r9
10004814:	1898      	adds	r0, r3, r2
10004816:	e7f6      	b.n	10004806 <ph_delete+0x1da>
10004818:	004a      	lsls	r2, r1, #1
1000481a:	1852      	adds	r2, r2, r1
1000481c:	189a      	adds	r2, r3, r2
1000481e:	3a03      	subs	r2, #3
10004820:	7057      	strb	r7, [r2, #1]
10004822:	199b      	adds	r3, r3, r6
10004824:	73ef      	strb	r7, [r5, #15]
10004826:	e7ae      	b.n	10004786 <ph_delete+0x15a>
10004828:	464b      	mov	r3, r9
1000482a:	6829      	ldr	r1, [r5, #0]
1000482c:	0060      	lsls	r0, r4, #1
1000482e:	1900      	adds	r0, r0, r4
10004830:	3803      	subs	r0, #3
10004832:	18cb      	adds	r3, r1, r3
10004834:	1808      	adds	r0, r1, r0
10004836:	709c      	strb	r4, [r3, #2]
10004838:	7802      	ldrb	r2, [r0, #0]
1000483a:	2a00      	cmp	r2, #0
1000483c:	d000      	beq.n	10004840 <ph_delete+0x214>
1000483e:	705a      	strb	r2, [r3, #1]
10004840:	4643      	mov	r3, r8
10004842:	46a0      	mov	r8, r4
10004844:	7003      	strb	r3, [r0, #0]
10004846:	198b      	adds	r3, r1, r6
10004848:	e799      	b.n	1000477e <ph_delete+0x152>
1000484a:	464a      	mov	r2, r9
1000484c:	1898      	adds	r0, r3, r2
1000484e:	9a01      	ldr	r2, [sp, #4]
10004850:	189c      	adds	r4, r3, r2
10004852:	4652      	mov	r2, sl
10004854:	70a2      	strb	r2, [r4, #2]
10004856:	7802      	ldrb	r2, [r0, #0]
10004858:	2a00      	cmp	r2, #0
1000485a:	d000      	beq.n	1000485e <ph_delete+0x232>
1000485c:	7062      	strb	r2, [r4, #1]
1000485e:	4642      	mov	r2, r8
10004860:	46d0      	mov	r8, sl
10004862:	7002      	strb	r2, [r0, #0]
10004864:	e7b1      	b.n	100047ca <ph_delete+0x19e>
10004866:	7048      	strb	r0, [r1, #1]
10004868:	4651      	mov	r1, sl
1000486a:	7011      	strb	r1, [r2, #0]
1000486c:	9a01      	ldr	r2, [sp, #4]
1000486e:	4691      	mov	r9, r2
10004870:	e7ab      	b.n	100047ca <ph_delete+0x19e>
10004872:	2203      	movs	r2, #3
10004874:	4362      	muls	r2, r4
10004876:	188a      	adds	r2, r1, r2
10004878:	3a03      	subs	r2, #3
1000487a:	7057      	strb	r7, [r2, #1]
1000487c:	e782      	b.n	10004784 <ph_delete+0x158>
1000487e:	46c0      	nop			; (mov r8, r8)

10004880 <runtime_init>:
10004880:	4a2c      	ldr	r2, [pc, #176]	; (10004934 <runtime_init+0xb4>)
10004882:	4b2d      	ldr	r3, [pc, #180]	; (10004938 <runtime_init+0xb8>)
10004884:	b570      	push	{r4, r5, r6, lr}
10004886:	601a      	str	r2, [r3, #0]
10004888:	4a2c      	ldr	r2, [pc, #176]	; (1000493c <runtime_init+0xbc>)
1000488a:	4b2d      	ldr	r3, [pc, #180]	; (10004940 <runtime_init+0xc0>)
1000488c:	492d      	ldr	r1, [pc, #180]	; (10004944 <runtime_init+0xc4>)
1000488e:	601a      	str	r2, [r3, #0]
10004890:	0010      	movs	r0, r2
10004892:	688b      	ldr	r3, [r1, #8]
10004894:	4398      	bics	r0, r3
10004896:	d1fb      	bne.n	10004890 <runtime_init+0x10>
10004898:	4e2b      	ldr	r6, [pc, #172]	; (10004948 <runtime_init+0xc8>)
1000489a:	4b2c      	ldr	r3, [pc, #176]	; (1000494c <runtime_init+0xcc>)
1000489c:	429e      	cmp	r6, r3
1000489e:	d20a      	bcs.n	100048b6 <runtime_init+0x36>
100048a0:	43f5      	mvns	r5, r6
100048a2:	2400      	movs	r4, #0
100048a4:	18ed      	adds	r5, r5, r3
100048a6:	08ad      	lsrs	r5, r5, #2
100048a8:	3501      	adds	r5, #1
100048aa:	00a3      	lsls	r3, r4, #2
100048ac:	58f3      	ldr	r3, [r6, r3]
100048ae:	3401      	adds	r4, #1
100048b0:	4798      	blx	r3
100048b2:	42ac      	cmp	r4, r5
100048b4:	d1f9      	bne.n	100048aa <runtime_init+0x2a>
100048b6:	f000 f895 	bl	100049e4 <clocks_init>
100048ba:	4a25      	ldr	r2, [pc, #148]	; (10004950 <runtime_init+0xd0>)
100048bc:	4b20      	ldr	r3, [pc, #128]	; (10004940 <runtime_init+0xc0>)
100048be:	601a      	str	r2, [r3, #0]
100048c0:	4a20      	ldr	r2, [pc, #128]	; (10004944 <runtime_init+0xc4>)
100048c2:	6893      	ldr	r3, [r2, #8]
100048c4:	01db      	lsls	r3, r3, #7
100048c6:	3380      	adds	r3, #128	; 0x80
100048c8:	d1fb      	bne.n	100048c2 <runtime_init+0x42>
100048ca:	2240      	movs	r2, #64	; 0x40
100048cc:	4b21      	ldr	r3, [pc, #132]	; (10004954 <runtime_init+0xd4>)
100048ce:	4c22      	ldr	r4, [pc, #136]	; (10004958 <runtime_init+0xd8>)
100048d0:	679a      	str	r2, [r3, #120]	; 0x78
100048d2:	675a      	str	r2, [r3, #116]	; 0x74
100048d4:	671a      	str	r2, [r3, #112]	; 0x70
100048d6:	66da      	str	r2, [r3, #108]	; 0x6c
100048d8:	4b20      	ldr	r3, [pc, #128]	; (1000495c <runtime_init+0xdc>)
100048da:	429c      	cmp	r4, r3
100048dc:	d20b      	bcs.n	100048f6 <runtime_init+0x76>
100048de:	43e6      	mvns	r6, r4
100048e0:	2500      	movs	r5, #0
100048e2:	18f6      	adds	r6, r6, r3
100048e4:	08f6      	lsrs	r6, r6, #3
100048e6:	3601      	adds	r6, #1
100048e8:	0020      	movs	r0, r4
100048ea:	3501      	adds	r5, #1
100048ec:	f7ff fce0 	bl	100042b0 <mutex_init>
100048f0:	3408      	adds	r4, #8
100048f2:	42b5      	cmp	r5, r6
100048f4:	d1f8      	bne.n	100048e8 <runtime_init+0x68>
100048f6:	4d1a      	ldr	r5, [pc, #104]	; (10004960 <runtime_init+0xe0>)
100048f8:	4c1a      	ldr	r4, [pc, #104]	; (10004964 <runtime_init+0xe4>)
100048fa:	22c0      	movs	r2, #192	; 0xc0
100048fc:	68a1      	ldr	r1, [r4, #8]
100048fe:	0028      	movs	r0, r5
10004900:	f002 ff44 	bl	1000778c <__wrap___aeabi_memcpy>
10004904:	60a5      	str	r5, [r4, #8]
10004906:	f7fe fec3 	bl	10003690 <spin_locks_reset>
1000490a:	f000 fbab 	bl	10005064 <irq_init_priorities>
1000490e:	f7ff f893 	bl	10003a38 <alarm_pool_init_default>
10004912:	4e15      	ldr	r6, [pc, #84]	; (10004968 <runtime_init+0xe8>)
10004914:	4b15      	ldr	r3, [pc, #84]	; (1000496c <runtime_init+0xec>)
10004916:	429e      	cmp	r6, r3
10004918:	d20a      	bcs.n	10004930 <runtime_init+0xb0>
1000491a:	43f5      	mvns	r5, r6
1000491c:	2400      	movs	r4, #0
1000491e:	18ed      	adds	r5, r5, r3
10004920:	08ad      	lsrs	r5, r5, #2
10004922:	3501      	adds	r5, #1
10004924:	00a3      	lsls	r3, r4, #2
10004926:	58f3      	ldr	r3, [r6, r3]
10004928:	3401      	adds	r4, #1
1000492a:	4798      	blx	r3
1000492c:	42a5      	cmp	r5, r4
1000492e:	d1f9      	bne.n	10004924 <runtime_init+0xa4>
10004930:	bd70      	pop	{r4, r5, r6, pc}
10004932:	46c0      	nop			; (mov r8, r8)
10004934:	ffffcdbf 	.word	0xffffcdbf
10004938:	4000e000 	.word	0x4000e000
1000493c:	003c7ffe 	.word	0x003c7ffe
10004940:	4000f000 	.word	0x4000f000
10004944:	4000c000 	.word	0x4000c000
10004948:	20000b40 	.word	0x20000b40
1000494c:	20000b50 	.word	0x20000b50
10004950:	01ffffff 	.word	0x01ffffff
10004954:	4001f000 	.word	0x4001f000
10004958:	20000b38 	.word	0x20000b38
1000495c:	20000b40 	.word	0x20000b40
10004960:	20000000 	.word	0x20000000
10004964:	e000ed00 	.word	0xe000ed00
10004968:	20000b50 	.word	0x20000b50
1000496c:	20000b54 	.word	0x20000b54

10004970 <_sbrk>:
10004970:	4a09      	ldr	r2, [pc, #36]	; (10004998 <_sbrk+0x28>)
10004972:	6813      	ldr	r3, [r2, #0]
10004974:	2b00      	cmp	r3, #0
10004976:	d006      	beq.n	10004986 <_sbrk+0x16>
10004978:	4908      	ldr	r1, [pc, #32]	; (1000499c <_sbrk+0x2c>)
1000497a:	1818      	adds	r0, r3, r0
1000497c:	4288      	cmp	r0, r1
1000497e:	d208      	bcs.n	10004992 <_sbrk+0x22>
10004980:	6010      	str	r0, [r2, #0]
10004982:	0018      	movs	r0, r3
10004984:	4770      	bx	lr
10004986:	4b06      	ldr	r3, [pc, #24]	; (100049a0 <_sbrk+0x30>)
10004988:	4904      	ldr	r1, [pc, #16]	; (1000499c <_sbrk+0x2c>)
1000498a:	1818      	adds	r0, r3, r0
1000498c:	6013      	str	r3, [r2, #0]
1000498e:	4288      	cmp	r0, r1
10004990:	d3f6      	bcc.n	10004980 <_sbrk+0x10>
10004992:	2001      	movs	r0, #1
10004994:	4240      	negs	r0, r0
10004996:	e7f5      	b.n	10004984 <_sbrk+0x14>
10004998:	20000fac 	.word	0x20000fac
1000499c:	20040000 	.word	0x20040000
100049a0:	20001f7c 	.word	0x20001f7c

100049a4 <exit>:
100049a4:	be00      	bkpt	0x0000
100049a6:	e7fd      	b.n	100049a4 <exit>

100049a8 <panic>:
100049a8:	b40f      	push	{r0, r1, r2, r3}
100049aa:	b500      	push	{lr}
100049ac:	4808      	ldr	r0, [pc, #32]	; (100049d0 <panic+0x28>)
100049ae:	b083      	sub	sp, #12
100049b0:	f002 ff82 	bl	100078b8 <__wrap_puts>
100049b4:	9b04      	ldr	r3, [sp, #16]
100049b6:	2b00      	cmp	r3, #0
100049b8:	d007      	beq.n	100049ca <panic+0x22>
100049ba:	a905      	add	r1, sp, #20
100049bc:	0018      	movs	r0, r3
100049be:	9101      	str	r1, [sp, #4]
100049c0:	f001 ff84 	bl	100068cc <weak_raw_vprintf>
100049c4:	4803      	ldr	r0, [pc, #12]	; (100049d4 <panic+0x2c>)
100049c6:	f002 ff77 	bl	100078b8 <__wrap_puts>
100049ca:	be00      	bkpt	0x0000
100049cc:	e7fd      	b.n	100049ca <panic+0x22>
100049ce:	46c0      	nop			; (mov r8, r8)
100049d0:	1000b638 	.word	0x1000b638
100049d4:	1000b648 	.word	0x1000b648

100049d8 <hard_assertion_failure>:
100049d8:	b510      	push	{r4, lr}
100049da:	4801      	ldr	r0, [pc, #4]	; (100049e0 <hard_assertion_failure+0x8>)
100049dc:	f7ff ffe4 	bl	100049a8 <panic>
100049e0:	1000b62c 	.word	0x1000b62c

100049e4 <clocks_init>:
100049e4:	b530      	push	{r4, r5, lr}
100049e6:	200c      	movs	r0, #12
100049e8:	b083      	sub	sp, #12
100049ea:	f000 f977 	bl	10004cdc <watchdog_start_tick>
100049ee:	f7fe fe79 	bl	100036e4 <running_on_fpga>
100049f2:	2800      	cmp	r0, #0
100049f4:	d00e      	beq.n	10004a14 <clocks_init+0x30>
100049f6:	4b9c      	ldr	r3, [pc, #624]	; (10004c68 <clocks_init+0x284>)
100049f8:	4a9c      	ldr	r2, [pc, #624]	; (10004c6c <clocks_init+0x288>)
100049fa:	601a      	str	r2, [r3, #0]
100049fc:	605a      	str	r2, [r3, #4]
100049fe:	609a      	str	r2, [r3, #8]
10004a00:	60da      	str	r2, [r3, #12]
10004a02:	611a      	str	r2, [r3, #16]
10004a04:	615a      	str	r2, [r3, #20]
10004a06:	619a      	str	r2, [r3, #24]
10004a08:	61da      	str	r2, [r3, #28]
10004a0a:	621a      	str	r2, [r3, #32]
10004a0c:	4a98      	ldr	r2, [pc, #608]	; (10004c70 <clocks_init+0x28c>)
10004a0e:	625a      	str	r2, [r3, #36]	; 0x24
10004a10:	b003      	add	sp, #12
10004a12:	bd30      	pop	{r4, r5, pc}
10004a14:	4c97      	ldr	r4, [pc, #604]	; (10004c74 <clocks_init+0x290>)
10004a16:	67a0      	str	r0, [r4, #120]	; 0x78
10004a18:	f000 f968 	bl	10004cec <xosc_init>
10004a1c:	2201      	movs	r2, #1
10004a1e:	4b96      	ldr	r3, [pc, #600]	; (10004c78 <clocks_init+0x294>)
10004a20:	601a      	str	r2, [r3, #0]
10004a22:	6c63      	ldr	r3, [r4, #68]	; 0x44
10004a24:	2b01      	cmp	r3, #1
10004a26:	d1fc      	bne.n	10004a22 <clocks_init+0x3e>
10004a28:	2203      	movs	r2, #3
10004a2a:	4b94      	ldr	r3, [pc, #592]	; (10004c7c <clocks_init+0x298>)
10004a2c:	601a      	str	r2, [r3, #0]
10004a2e:	4a91      	ldr	r2, [pc, #580]	; (10004c74 <clocks_init+0x290>)
10004a30:	6b93      	ldr	r3, [r2, #56]	; 0x38
10004a32:	2b01      	cmp	r3, #1
10004a34:	d1fc      	bne.n	10004a30 <clocks_init+0x4c>
10004a36:	22c0      	movs	r2, #192	; 0xc0
10004a38:	4b91      	ldr	r3, [pc, #580]	; (10004c80 <clocks_init+0x29c>)
10004a3a:	0192      	lsls	r2, r2, #6
10004a3c:	601a      	str	r2, [r3, #0]
10004a3e:	4b91      	ldr	r3, [pc, #580]	; (10004c84 <clocks_init+0x2a0>)
10004a40:	4991      	ldr	r1, [pc, #580]	; (10004c88 <clocks_init+0x2a4>)
10004a42:	601a      	str	r2, [r3, #0]
10004a44:	0010      	movs	r0, r2
10004a46:	688b      	ldr	r3, [r1, #8]
10004a48:	4398      	bics	r0, r3
10004a4a:	1e03      	subs	r3, r0, #0
10004a4c:	d1fa      	bne.n	10004a44 <clocks_init+0x60>
10004a4e:	2402      	movs	r4, #2
10004a50:	3306      	adds	r3, #6
10004a52:	4a8e      	ldr	r2, [pc, #568]	; (10004c8c <clocks_init+0x2a8>)
10004a54:	2101      	movs	r1, #1
10004a56:	488e      	ldr	r0, [pc, #568]	; (10004c90 <clocks_init+0x2ac>)
10004a58:	9400      	str	r4, [sp, #0]
10004a5a:	f000 f95b 	bl	10004d14 <pll_init>
10004a5e:	2305      	movs	r3, #5
10004a60:	4a8c      	ldr	r2, [pc, #560]	; (10004c94 <clocks_init+0x2b0>)
10004a62:	9400      	str	r4, [sp, #0]
10004a64:	2101      	movs	r1, #1
10004a66:	488c      	ldr	r0, [pc, #560]	; (10004c98 <clocks_init+0x2b4>)
10004a68:	f000 f954 	bl	10004d14 <pll_init>
10004a6c:	4b8b      	ldr	r3, [pc, #556]	; (10004c9c <clocks_init+0x2b8>)
10004a6e:	685a      	ldr	r2, [r3, #4]
10004a70:	2aff      	cmp	r2, #255	; 0xff
10004a72:	d802      	bhi.n	10004a7a <clocks_init+0x96>
10004a74:	2280      	movs	r2, #128	; 0x80
10004a76:	0052      	lsls	r2, r2, #1
10004a78:	605a      	str	r2, [r3, #4]
10004a7a:	2280      	movs	r2, #128	; 0x80
10004a7c:	4c7a      	ldr	r4, [pc, #488]	; (10004c68 <clocks_init+0x284>)
10004a7e:	4b7f      	ldr	r3, [pc, #508]	; (10004c7c <clocks_init+0x298>)
10004a80:	6921      	ldr	r1, [r4, #16]
10004a82:	0112      	lsls	r2, r2, #4
10004a84:	4d85      	ldr	r5, [pc, #532]	; (10004c9c <clocks_init+0x2b8>)
10004a86:	601a      	str	r2, [r3, #0]
10004a88:	2900      	cmp	r1, #0
10004a8a:	d000      	beq.n	10004a8e <clocks_init+0xaa>
10004a8c:	e0e5      	b.n	10004c5a <clocks_init+0x276>
10004a8e:	21e0      	movs	r1, #224	; 0xe0
10004a90:	4b82      	ldr	r3, [pc, #520]	; (10004c9c <clocks_init+0x2b8>)
10004a92:	2002      	movs	r0, #2
10004a94:	681a      	ldr	r2, [r3, #0]
10004a96:	4011      	ands	r1, r2
10004a98:	2280      	movs	r2, #128	; 0x80
10004a9a:	0152      	lsls	r2, r2, #5
10004a9c:	432a      	orrs	r2, r5
10004a9e:	6011      	str	r1, [r2, #0]
10004aa0:	6819      	ldr	r1, [r3, #0]
10004aa2:	4048      	eors	r0, r1
10004aa4:	2103      	movs	r1, #3
10004aa6:	4001      	ands	r1, r0
10004aa8:	6011      	str	r1, [r2, #0]
10004aaa:	2104      	movs	r1, #4
10004aac:	689a      	ldr	r2, [r3, #8]
10004aae:	4211      	tst	r1, r2
10004ab0:	d0fc      	beq.n	10004aac <clocks_init+0xc8>
10004ab2:	2280      	movs	r2, #128	; 0x80
10004ab4:	2180      	movs	r1, #128	; 0x80
10004ab6:	0192      	lsls	r2, r2, #6
10004ab8:	432a      	orrs	r2, r5
10004aba:	0109      	lsls	r1, r1, #4
10004abc:	6011      	str	r1, [r2, #0]
10004abe:	2280      	movs	r2, #128	; 0x80
10004ac0:	0052      	lsls	r2, r2, #1
10004ac2:	605a      	str	r2, [r3, #4]
10004ac4:	4b76      	ldr	r3, [pc, #472]	; (10004ca0 <clocks_init+0x2bc>)
10004ac6:	6123      	str	r3, [r4, #16]
10004ac8:	4b76      	ldr	r3, [pc, #472]	; (10004ca4 <clocks_init+0x2c0>)
10004aca:	6859      	ldr	r1, [r3, #4]
10004acc:	29ff      	cmp	r1, #255	; 0xff
10004ace:	d800      	bhi.n	10004ad2 <clocks_init+0xee>
10004ad0:	e0c1      	b.n	10004c56 <clocks_init+0x272>
10004ad2:	2203      	movs	r2, #3
10004ad4:	4b68      	ldr	r3, [pc, #416]	; (10004c78 <clocks_init+0x294>)
10004ad6:	4873      	ldr	r0, [pc, #460]	; (10004ca4 <clocks_init+0x2c0>)
10004ad8:	601a      	str	r2, [r3, #0]
10004ada:	2101      	movs	r1, #1
10004adc:	0003      	movs	r3, r0
10004ade:	689a      	ldr	r2, [r3, #8]
10004ae0:	4211      	tst	r1, r2
10004ae2:	d0fc      	beq.n	10004ade <clocks_init+0xfa>
10004ae4:	25e0      	movs	r5, #224	; 0xe0
10004ae6:	681a      	ldr	r2, [r3, #0]
10004ae8:	4015      	ands	r5, r2
10004aea:	2280      	movs	r2, #128	; 0x80
10004aec:	0152      	lsls	r2, r2, #5
10004aee:	4302      	orrs	r2, r0
10004af0:	6015      	str	r5, [r2, #0]
10004af2:	681b      	ldr	r3, [r3, #0]
10004af4:	404b      	eors	r3, r1
10004af6:	2103      	movs	r1, #3
10004af8:	4019      	ands	r1, r3
10004afa:	6011      	str	r1, [r2, #0]
10004afc:	2102      	movs	r1, #2
10004afe:	4a69      	ldr	r2, [pc, #420]	; (10004ca4 <clocks_init+0x2c0>)
10004b00:	6893      	ldr	r3, [r2, #8]
10004b02:	4219      	tst	r1, r3
10004b04:	d0fc      	beq.n	10004b00 <clocks_init+0x11c>
10004b06:	2380      	movs	r3, #128	; 0x80
10004b08:	2180      	movs	r1, #128	; 0x80
10004b0a:	019b      	lsls	r3, r3, #6
10004b0c:	4303      	orrs	r3, r0
10004b0e:	0109      	lsls	r1, r1, #4
10004b10:	6019      	str	r1, [r3, #0]
10004b12:	2180      	movs	r1, #128	; 0x80
10004b14:	4b64      	ldr	r3, [pc, #400]	; (10004ca8 <clocks_init+0x2c4>)
10004b16:	0049      	lsls	r1, r1, #1
10004b18:	6051      	str	r1, [r2, #4]
10004b1a:	6163      	str	r3, [r4, #20]
10004b1c:	4b63      	ldr	r3, [pc, #396]	; (10004cac <clocks_init+0x2c8>)
10004b1e:	685a      	ldr	r2, [r3, #4]
10004b20:	2aff      	cmp	r2, #255	; 0xff
10004b22:	d800      	bhi.n	10004b26 <clocks_init+0x142>
10004b24:	6059      	str	r1, [r3, #4]
10004b26:	2280      	movs	r2, #128	; 0x80
10004b28:	4b61      	ldr	r3, [pc, #388]	; (10004cb0 <clocks_init+0x2cc>)
10004b2a:	69e1      	ldr	r1, [r4, #28]
10004b2c:	0112      	lsls	r2, r2, #4
10004b2e:	4d5f      	ldr	r5, [pc, #380]	; (10004cac <clocks_init+0x2c8>)
10004b30:	601a      	str	r2, [r3, #0]
10004b32:	2900      	cmp	r1, #0
10004b34:	d005      	beq.n	10004b42 <clocks_init+0x15e>
10004b36:	6960      	ldr	r0, [r4, #20]
10004b38:	f001 ff4c 	bl	100069d4 <__wrap___aeabi_uidiv>
10004b3c:	3001      	adds	r0, #1
10004b3e:	3801      	subs	r0, #1
10004b40:	d1fd      	bne.n	10004b3e <clocks_init+0x15a>
10004b42:	22e0      	movs	r2, #224	; 0xe0
10004b44:	4959      	ldr	r1, [pc, #356]	; (10004cac <clocks_init+0x2c8>)
10004b46:	680b      	ldr	r3, [r1, #0]
10004b48:	401a      	ands	r2, r3
10004b4a:	2380      	movs	r3, #128	; 0x80
10004b4c:	015b      	lsls	r3, r3, #5
10004b4e:	432b      	orrs	r3, r5
10004b50:	601a      	str	r2, [r3, #0]
10004b52:	2380      	movs	r3, #128	; 0x80
10004b54:	2280      	movs	r2, #128	; 0x80
10004b56:	019b      	lsls	r3, r3, #6
10004b58:	432b      	orrs	r3, r5
10004b5a:	0112      	lsls	r2, r2, #4
10004b5c:	601a      	str	r2, [r3, #0]
10004b5e:	2280      	movs	r2, #128	; 0x80
10004b60:	4b42      	ldr	r3, [pc, #264]	; (10004c6c <clocks_init+0x288>)
10004b62:	0052      	lsls	r2, r2, #1
10004b64:	604a      	str	r2, [r1, #4]
10004b66:	61e3      	str	r3, [r4, #28]
10004b68:	4b52      	ldr	r3, [pc, #328]	; (10004cb4 <clocks_init+0x2d0>)
10004b6a:	6859      	ldr	r1, [r3, #4]
10004b6c:	29ff      	cmp	r1, #255	; 0xff
10004b6e:	d800      	bhi.n	10004b72 <clocks_init+0x18e>
10004b70:	605a      	str	r2, [r3, #4]
10004b72:	2280      	movs	r2, #128	; 0x80
10004b74:	4b50      	ldr	r3, [pc, #320]	; (10004cb8 <clocks_init+0x2d4>)
10004b76:	6a21      	ldr	r1, [r4, #32]
10004b78:	0112      	lsls	r2, r2, #4
10004b7a:	4d4e      	ldr	r5, [pc, #312]	; (10004cb4 <clocks_init+0x2d0>)
10004b7c:	601a      	str	r2, [r3, #0]
10004b7e:	2900      	cmp	r1, #0
10004b80:	d005      	beq.n	10004b8e <clocks_init+0x1aa>
10004b82:	6960      	ldr	r0, [r4, #20]
10004b84:	f001 ff26 	bl	100069d4 <__wrap___aeabi_uidiv>
10004b88:	3001      	adds	r0, #1
10004b8a:	3801      	subs	r0, #1
10004b8c:	d1fd      	bne.n	10004b8a <clocks_init+0x1a6>
10004b8e:	22e0      	movs	r2, #224	; 0xe0
10004b90:	4948      	ldr	r1, [pc, #288]	; (10004cb4 <clocks_init+0x2d0>)
10004b92:	680b      	ldr	r3, [r1, #0]
10004b94:	401a      	ands	r2, r3
10004b96:	2380      	movs	r3, #128	; 0x80
10004b98:	015b      	lsls	r3, r3, #5
10004b9a:	432b      	orrs	r3, r5
10004b9c:	601a      	str	r2, [r3, #0]
10004b9e:	2380      	movs	r3, #128	; 0x80
10004ba0:	2280      	movs	r2, #128	; 0x80
10004ba2:	019b      	lsls	r3, r3, #6
10004ba4:	432b      	orrs	r3, r5
10004ba6:	0112      	lsls	r2, r2, #4
10004ba8:	601a      	str	r2, [r3, #0]
10004baa:	2380      	movs	r3, #128	; 0x80
10004bac:	005b      	lsls	r3, r3, #1
10004bae:	604b      	str	r3, [r1, #4]
10004bb0:	4b2e      	ldr	r3, [pc, #184]	; (10004c6c <clocks_init+0x288>)
10004bb2:	4a42      	ldr	r2, [pc, #264]	; (10004cbc <clocks_init+0x2d8>)
10004bb4:	6223      	str	r3, [r4, #32]
10004bb6:	4b42      	ldr	r3, [pc, #264]	; (10004cc0 <clocks_init+0x2dc>)
10004bb8:	6859      	ldr	r1, [r3, #4]
10004bba:	4291      	cmp	r1, r2
10004bbc:	d801      	bhi.n	10004bc2 <clocks_init+0x1de>
10004bbe:	3201      	adds	r2, #1
10004bc0:	605a      	str	r2, [r3, #4]
10004bc2:	2280      	movs	r2, #128	; 0x80
10004bc4:	4b3f      	ldr	r3, [pc, #252]	; (10004cc4 <clocks_init+0x2e0>)
10004bc6:	6a61      	ldr	r1, [r4, #36]	; 0x24
10004bc8:	0112      	lsls	r2, r2, #4
10004bca:	4d3d      	ldr	r5, [pc, #244]	; (10004cc0 <clocks_init+0x2dc>)
10004bcc:	601a      	str	r2, [r3, #0]
10004bce:	2900      	cmp	r1, #0
10004bd0:	d005      	beq.n	10004bde <clocks_init+0x1fa>
10004bd2:	6960      	ldr	r0, [r4, #20]
10004bd4:	f001 fefe 	bl	100069d4 <__wrap___aeabi_uidiv>
10004bd8:	3001      	adds	r0, #1
10004bda:	3801      	subs	r0, #1
10004bdc:	d1fd      	bne.n	10004bda <clocks_init+0x1f6>
10004bde:	22e0      	movs	r2, #224	; 0xe0
10004be0:	4937      	ldr	r1, [pc, #220]	; (10004cc0 <clocks_init+0x2dc>)
10004be2:	680b      	ldr	r3, [r1, #0]
10004be4:	401a      	ands	r2, r3
10004be6:	2380      	movs	r3, #128	; 0x80
10004be8:	015b      	lsls	r3, r3, #5
10004bea:	432b      	orrs	r3, r5
10004bec:	601a      	str	r2, [r3, #0]
10004bee:	2380      	movs	r3, #128	; 0x80
10004bf0:	2280      	movs	r2, #128	; 0x80
10004bf2:	019b      	lsls	r3, r3, #6
10004bf4:	432b      	orrs	r3, r5
10004bf6:	0112      	lsls	r2, r2, #4
10004bf8:	601a      	str	r2, [r3, #0]
10004bfa:	2380      	movs	r3, #128	; 0x80
10004bfc:	02db      	lsls	r3, r3, #11
10004bfe:	604b      	str	r3, [r1, #4]
10004c00:	4b1b      	ldr	r3, [pc, #108]	; (10004c70 <clocks_init+0x28c>)
10004c02:	6263      	str	r3, [r4, #36]	; 0x24
10004c04:	4b30      	ldr	r3, [pc, #192]	; (10004cc8 <clocks_init+0x2e4>)
10004c06:	685a      	ldr	r2, [r3, #4]
10004c08:	2aff      	cmp	r2, #255	; 0xff
10004c0a:	d802      	bhi.n	10004c12 <clocks_init+0x22e>
10004c0c:	2280      	movs	r2, #128	; 0x80
10004c0e:	0052      	lsls	r2, r2, #1
10004c10:	605a      	str	r2, [r3, #4]
10004c12:	2280      	movs	r2, #128	; 0x80
10004c14:	4b2d      	ldr	r3, [pc, #180]	; (10004ccc <clocks_init+0x2e8>)
10004c16:	69a1      	ldr	r1, [r4, #24]
10004c18:	0112      	lsls	r2, r2, #4
10004c1a:	4d2b      	ldr	r5, [pc, #172]	; (10004cc8 <clocks_init+0x2e4>)
10004c1c:	601a      	str	r2, [r3, #0]
10004c1e:	2900      	cmp	r1, #0
10004c20:	d005      	beq.n	10004c2e <clocks_init+0x24a>
10004c22:	6960      	ldr	r0, [r4, #20]
10004c24:	f001 fed6 	bl	100069d4 <__wrap___aeabi_uidiv>
10004c28:	3001      	adds	r0, #1
10004c2a:	3801      	subs	r0, #1
10004c2c:	d1fd      	bne.n	10004c2a <clocks_init+0x246>
10004c2e:	22e0      	movs	r2, #224	; 0xe0
10004c30:	4925      	ldr	r1, [pc, #148]	; (10004cc8 <clocks_init+0x2e4>)
10004c32:	680b      	ldr	r3, [r1, #0]
10004c34:	401a      	ands	r2, r3
10004c36:	2380      	movs	r3, #128	; 0x80
10004c38:	015b      	lsls	r3, r3, #5
10004c3a:	432b      	orrs	r3, r5
10004c3c:	601a      	str	r2, [r3, #0]
10004c3e:	2380      	movs	r3, #128	; 0x80
10004c40:	2280      	movs	r2, #128	; 0x80
10004c42:	019b      	lsls	r3, r3, #6
10004c44:	432b      	orrs	r3, r5
10004c46:	0112      	lsls	r2, r2, #4
10004c48:	601a      	str	r2, [r3, #0]
10004c4a:	2380      	movs	r3, #128	; 0x80
10004c4c:	005b      	lsls	r3, r3, #1
10004c4e:	604b      	str	r3, [r1, #4]
10004c50:	4b15      	ldr	r3, [pc, #84]	; (10004ca8 <clocks_init+0x2c4>)
10004c52:	61a3      	str	r3, [r4, #24]
10004c54:	e6dc      	b.n	10004a10 <clocks_init+0x2c>
10004c56:	605a      	str	r2, [r3, #4]
10004c58:	e73b      	b.n	10004ad2 <clocks_init+0xee>
10004c5a:	6960      	ldr	r0, [r4, #20]
10004c5c:	f001 feba 	bl	100069d4 <__wrap___aeabi_uidiv>
10004c60:	3001      	adds	r0, #1
10004c62:	3801      	subs	r0, #1
10004c64:	d1fd      	bne.n	10004c62 <clocks_init+0x27e>
10004c66:	e712      	b.n	10004a8e <clocks_init+0xaa>
10004c68:	20000f50 	.word	0x20000f50
10004c6c:	02dc6c00 	.word	0x02dc6c00
10004c70:	0000b71b 	.word	0x0000b71b
10004c74:	40008000 	.word	0x40008000
10004c78:	4000b03c 	.word	0x4000b03c
10004c7c:	4000b030 	.word	0x4000b030
10004c80:	4000e000 	.word	0x4000e000
10004c84:	4000f000 	.word	0x4000f000
10004c88:	4000c000 	.word	0x4000c000
10004c8c:	59682f00 	.word	0x59682f00
10004c90:	40028000 	.word	0x40028000
10004c94:	1c9c3800 	.word	0x1c9c3800
10004c98:	4002c000 	.word	0x4002c000
10004c9c:	40008030 	.word	0x40008030
10004ca0:	00b71b00 	.word	0x00b71b00
10004ca4:	4000803c 	.word	0x4000803c
10004ca8:	07735940 	.word	0x07735940
10004cac:	40008054 	.word	0x40008054
10004cb0:	4000b054 	.word	0x4000b054
10004cb4:	40008060 	.word	0x40008060
10004cb8:	4000b060 	.word	0x4000b060
10004cbc:	0003ffff 	.word	0x0003ffff
10004cc0:	4000806c 	.word	0x4000806c
10004cc4:	4000b06c 	.word	0x4000b06c
10004cc8:	40008048 	.word	0x40008048
10004ccc:	4000b048 	.word	0x4000b048

10004cd0 <clock_get_hz>:
10004cd0:	4b01      	ldr	r3, [pc, #4]	; (10004cd8 <clock_get_hz+0x8>)
10004cd2:	0080      	lsls	r0, r0, #2
10004cd4:	58c0      	ldr	r0, [r0, r3]
10004cd6:	4770      	bx	lr
10004cd8:	20000f50 	.word	0x20000f50

10004cdc <watchdog_start_tick>:
10004cdc:	2380      	movs	r3, #128	; 0x80
10004cde:	009b      	lsls	r3, r3, #2
10004ce0:	4318      	orrs	r0, r3
10004ce2:	4b01      	ldr	r3, [pc, #4]	; (10004ce8 <watchdog_start_tick+0xc>)
10004ce4:	62d8      	str	r0, [r3, #44]	; 0x2c
10004ce6:	4770      	bx	lr
10004ce8:	40058000 	.word	0x40058000

10004cec <xosc_init>:
10004cec:	23aa      	movs	r3, #170	; 0xaa
10004cee:	4a06      	ldr	r2, [pc, #24]	; (10004d08 <xosc_init+0x1c>)
10004cf0:	011b      	lsls	r3, r3, #4
10004cf2:	6013      	str	r3, [r2, #0]
10004cf4:	232f      	movs	r3, #47	; 0x2f
10004cf6:	4905      	ldr	r1, [pc, #20]	; (10004d0c <xosc_init+0x20>)
10004cf8:	60d3      	str	r3, [r2, #12]
10004cfa:	4b05      	ldr	r3, [pc, #20]	; (10004d10 <xosc_init+0x24>)
10004cfc:	6019      	str	r1, [r3, #0]
10004cfe:	6853      	ldr	r3, [r2, #4]
10004d00:	2b00      	cmp	r3, #0
10004d02:	dafc      	bge.n	10004cfe <xosc_init+0x12>
10004d04:	4770      	bx	lr
10004d06:	46c0      	nop			; (mov r8, r8)
10004d08:	40024000 	.word	0x40024000
10004d0c:	00fab000 	.word	0x00fab000
10004d10:	40026000 	.word	0x40026000

10004d14 <pll_init>:
10004d14:	b5f8      	push	{r3, r4, r5, r6, r7, lr}
10004d16:	001d      	movs	r5, r3
10004d18:	ab06      	add	r3, sp, #24
10004d1a:	781e      	ldrb	r6, [r3, #0]
10004d1c:	2301      	movs	r3, #1
10004d1e:	425b      	negs	r3, r3
10004d20:	6043      	str	r3, [r0, #4]
10004d22:	2300      	movs	r3, #0
10004d24:	0004      	movs	r4, r0
10004d26:	6083      	str	r3, [r0, #8]
10004d28:	6001      	str	r1, [r0, #0]
10004d2a:	200c      	movs	r0, #12
10004d2c:	0017      	movs	r7, r2
10004d2e:	f001 fe51 	bl	100069d4 <__wrap___aeabi_uidiv>
10004d32:	490b      	ldr	r1, [pc, #44]	; (10004d60 <pll_init+0x4c>)
10004d34:	4341      	muls	r1, r0
10004d36:	0038      	movs	r0, r7
10004d38:	f001 fe4c 	bl	100069d4 <__wrap___aeabi_uidiv>
10004d3c:	22c0      	movs	r2, #192	; 0xc0
10004d3e:	1d23      	adds	r3, r4, #4
10004d40:	0192      	lsls	r2, r2, #6
10004d42:	431a      	orrs	r2, r3
10004d44:	2321      	movs	r3, #33	; 0x21
10004d46:	60a0      	str	r0, [r4, #8]
10004d48:	6013      	str	r3, [r2, #0]
10004d4a:	6823      	ldr	r3, [r4, #0]
10004d4c:	2b00      	cmp	r3, #0
10004d4e:	dafc      	bge.n	10004d4a <pll_init+0x36>
10004d50:	2308      	movs	r3, #8
10004d52:	0336      	lsls	r6, r6, #12
10004d54:	042d      	lsls	r5, r5, #16
10004d56:	4335      	orrs	r5, r6
10004d58:	60e5      	str	r5, [r4, #12]
10004d5a:	6013      	str	r3, [r2, #0]
10004d5c:	bdf8      	pop	{r3, r4, r5, r6, r7, pc}
10004d5e:	46c0      	nop			; (mov r8, r8)
10004d60:	000f4240 	.word	0x000f4240

10004d64 <irq_set_enabled>:
10004d64:	2301      	movs	r3, #1
10004d66:	4083      	lsls	r3, r0
10004d68:	2900      	cmp	r1, #0
10004d6a:	d102      	bne.n	10004d72 <irq_set_enabled+0xe>
10004d6c:	4a03      	ldr	r2, [pc, #12]	; (10004d7c <irq_set_enabled+0x18>)
10004d6e:	6013      	str	r3, [r2, #0]
10004d70:	4770      	bx	lr
10004d72:	4a03      	ldr	r2, [pc, #12]	; (10004d80 <irq_set_enabled+0x1c>)
10004d74:	6013      	str	r3, [r2, #0]
10004d76:	4a03      	ldr	r2, [pc, #12]	; (10004d84 <irq_set_enabled+0x20>)
10004d78:	6013      	str	r3, [r2, #0]
10004d7a:	e7f9      	b.n	10004d70 <irq_set_enabled+0xc>
10004d7c:	e000e180 	.word	0xe000e180
10004d80:	e000e280 	.word	0xe000e280
10004d84:	e000e100 	.word	0xe000e100

10004d88 <irq_set_pending>:
10004d88:	2301      	movs	r3, #1
10004d8a:	4083      	lsls	r3, r0
10004d8c:	4a01      	ldr	r2, [pc, #4]	; (10004d94 <irq_set_pending+0xc>)
10004d8e:	6013      	str	r3, [r2, #0]
10004d90:	4770      	bx	lr
10004d92:	46c0      	nop			; (mov r8, r8)
10004d94:	e000e200 	.word	0xe000e200

10004d98 <irq_get_vtable_handler>:
10004d98:	4b02      	ldr	r3, [pc, #8]	; (10004da4 <irq_get_vtable_handler+0xc>)
10004d9a:	3010      	adds	r0, #16
10004d9c:	689b      	ldr	r3, [r3, #8]
10004d9e:	0080      	lsls	r0, r0, #2
10004da0:	58c0      	ldr	r0, [r0, r3]
10004da2:	4770      	bx	lr
10004da4:	e000ed00 	.word	0xe000ed00

10004da8 <irq_set_exclusive_handler>:
10004da8:	b570      	push	{r4, r5, r6, lr}
10004daa:	000d      	movs	r5, r1
10004dac:	f3ef 8610 	mrs	r6, PRIMASK
10004db0:	b672      	cpsid	i
10004db2:	4a0f      	ldr	r2, [pc, #60]	; (10004df0 <irq_set_exclusive_handler+0x48>)
10004db4:	6813      	ldr	r3, [r2, #0]
10004db6:	2b00      	cmp	r3, #0
10004db8:	d0fc      	beq.n	10004db4 <irq_set_exclusive_handler+0xc>
10004dba:	f3bf 8f5f 	dmb	sy
10004dbe:	4b0d      	ldr	r3, [pc, #52]	; (10004df4 <irq_set_exclusive_handler+0x4c>)
10004dc0:	3010      	adds	r0, #16
10004dc2:	689b      	ldr	r3, [r3, #8]
10004dc4:	0084      	lsls	r4, r0, #2
10004dc6:	591b      	ldr	r3, [r3, r4]
10004dc8:	4a0b      	ldr	r2, [pc, #44]	; (10004df8 <irq_set_exclusive_handler+0x50>)
10004dca:	4293      	cmp	r3, r2
10004dcc:	d003      	beq.n	10004dd6 <irq_set_exclusive_handler+0x2e>
10004dce:	429d      	cmp	r5, r3
10004dd0:	d001      	beq.n	10004dd6 <irq_set_exclusive_handler+0x2e>
10004dd2:	f7ff fe01 	bl	100049d8 <hard_assertion_failure>
10004dd6:	4b07      	ldr	r3, [pc, #28]	; (10004df4 <irq_set_exclusive_handler+0x4c>)
10004dd8:	689b      	ldr	r3, [r3, #8]
10004dda:	511d      	str	r5, [r3, r4]
10004ddc:	f3bf 8f5f 	dmb	sy
10004de0:	f3bf 8f5f 	dmb	sy
10004de4:	2200      	movs	r2, #0
10004de6:	4b02      	ldr	r3, [pc, #8]	; (10004df0 <irq_set_exclusive_handler+0x48>)
10004de8:	601a      	str	r2, [r3, #0]
10004dea:	f386 8810 	msr	PRIMASK, r6
10004dee:	bd70      	pop	{r4, r5, r6, pc}
10004df0:	d0000124 	.word	0xd0000124
10004df4:	e000ed00 	.word	0xe000ed00
10004df8:	100001cd 	.word	0x100001cd

10004dfc <irq_remove_handler>:
10004dfc:	b5f0      	push	{r4, r5, r6, r7, lr}
10004dfe:	46de      	mov	lr, fp
10004e00:	4657      	mov	r7, sl
10004e02:	464e      	mov	r6, r9
10004e04:	4645      	mov	r5, r8
10004e06:	b5e0      	push	{r5, r6, r7, lr}
10004e08:	000c      	movs	r4, r1
10004e0a:	b083      	sub	sp, #12
10004e0c:	f3ef 8b10 	mrs	fp, PRIMASK
10004e10:	b672      	cpsid	i
10004e12:	4a5b      	ldr	r2, [pc, #364]	; (10004f80 <irq_remove_handler+0x184>)
10004e14:	6813      	ldr	r3, [r2, #0]
10004e16:	2b00      	cmp	r3, #0
10004e18:	d0fc      	beq.n	10004e14 <irq_remove_handler+0x18>
10004e1a:	f3bf 8f5f 	dmb	sy
10004e1e:	2210      	movs	r2, #16
10004e20:	4690      	mov	r8, r2
10004e22:	4480      	add	r8, r0
10004e24:	4642      	mov	r2, r8
10004e26:	4b57      	ldr	r3, [pc, #348]	; (10004f84 <irq_remove_handler+0x188>)
10004e28:	0097      	lsls	r7, r2, #2
10004e2a:	689b      	ldr	r3, [r3, #8]
10004e2c:	59dd      	ldr	r5, [r3, r7]
10004e2e:	4b56      	ldr	r3, [pc, #344]	; (10004f88 <irq_remove_handler+0x18c>)
10004e30:	4699      	mov	r9, r3
10004e32:	429d      	cmp	r5, r3
10004e34:	d006      	beq.n	10004e44 <irq_remove_handler+0x48>
10004e36:	42a5      	cmp	r5, r4
10004e38:	d100      	bne.n	10004e3c <irq_remove_handler+0x40>
10004e3a:	e078      	b.n	10004f2e <irq_remove_handler+0x132>
10004e3c:	4e53      	ldr	r6, [pc, #332]	; (10004f8c <irq_remove_handler+0x190>)
10004e3e:	1bab      	subs	r3, r5, r6
10004e40:	2b2f      	cmp	r3, #47	; 0x2f
10004e42:	d912      	bls.n	10004e6a <irq_remove_handler+0x6e>
10004e44:	4b4f      	ldr	r3, [pc, #316]	; (10004f84 <irq_remove_handler+0x188>)
10004e46:	689b      	ldr	r3, [r3, #8]
10004e48:	51dd      	str	r5, [r3, r7]
10004e4a:	f3bf 8f5f 	dmb	sy
10004e4e:	f3bf 8f5f 	dmb	sy
10004e52:	2200      	movs	r2, #0
10004e54:	4b4a      	ldr	r3, [pc, #296]	; (10004f80 <irq_remove_handler+0x184>)
10004e56:	601a      	str	r2, [r3, #0]
10004e58:	f38b 8810 	msr	PRIMASK, fp
10004e5c:	b003      	add	sp, #12
10004e5e:	bc3c      	pop	{r2, r3, r4, r5}
10004e60:	4690      	mov	r8, r2
10004e62:	4699      	mov	r9, r3
10004e64:	46a2      	mov	sl, r4
10004e66:	46ab      	mov	fp, r5
10004e68:	bdf0      	pop	{r4, r5, r6, r7, pc}
10004e6a:	2301      	movs	r3, #1
10004e6c:	4083      	lsls	r3, r0
10004e6e:	469a      	mov	sl, r3
10004e70:	4652      	mov	r2, sl
10004e72:	4b47      	ldr	r3, [pc, #284]	; (10004f90 <irq_remove_handler+0x194>)
10004e74:	681b      	ldr	r3, [r3, #0]
10004e76:	401a      	ands	r2, r3
10004e78:	9200      	str	r2, [sp, #0]
10004e7a:	4652      	mov	r2, sl
10004e7c:	4b45      	ldr	r3, [pc, #276]	; (10004f94 <irq_remove_handler+0x198>)
10004e7e:	601a      	str	r2, [r3, #0]
10004e80:	f3bf 8f5f 	dmb	sy
10004e84:	f7fb f9ef 	bl	10000266 <__get_current_exception>
10004e88:	9001      	str	r0, [sp, #4]
10004e8a:	2800      	cmp	r0, #0
10004e8c:	d144      	bne.n	10004f18 <irq_remove_handler+0x11c>
10004e8e:	2301      	movs	r3, #1
10004e90:	0029      	movs	r1, r5
10004e92:	4399      	bics	r1, r3
10004e94:	688b      	ldr	r3, [r1, #8]
10004e96:	429c      	cmp	r4, r3
10004e98:	d04e      	beq.n	10004f38 <irq_remove_handler+0x13c>
10004e9a:	2006      	movs	r0, #6
10004e9c:	5608      	ldrsb	r0, [r1, r0]
10004e9e:	2800      	cmp	r0, #0
10004ea0:	db33      	blt.n	10004f0a <irq_remove_handler+0x10e>
10004ea2:	000a      	movs	r2, r1
10004ea4:	e004      	b.n	10004eb0 <irq_remove_handler+0xb4>
10004ea6:	2006      	movs	r0, #6
10004ea8:	5618      	ldrsb	r0, [r3, r0]
10004eaa:	001a      	movs	r2, r3
10004eac:	2800      	cmp	r0, #0
10004eae:	db2c      	blt.n	10004f0a <irq_remove_handler+0x10e>
10004eb0:	0043      	lsls	r3, r0, #1
10004eb2:	181b      	adds	r3, r3, r0
10004eb4:	009b      	lsls	r3, r3, #2
10004eb6:	18f3      	adds	r3, r6, r3
10004eb8:	6898      	ldr	r0, [r3, #8]
10004eba:	4284      	cmp	r4, r0
10004ebc:	d1f3      	bne.n	10004ea6 <irq_remove_handler+0xaa>
10004ebe:	2006      	movs	r0, #6
10004ec0:	5618      	ldrsb	r0, [r3, r0]
10004ec2:	2800      	cmp	r0, #0
10004ec4:	db3b      	blt.n	10004f3e <irq_remove_handler+0x142>
10004ec6:	0042      	lsls	r2, r0, #1
10004ec8:	1811      	adds	r1, r2, r0
10004eca:	0089      	lsls	r1, r1, #2
10004ecc:	1874      	adds	r4, r6, r1
10004ece:	4688      	mov	r8, r1
10004ed0:	68a1      	ldr	r1, [r4, #8]
10004ed2:	6099      	str	r1, [r3, #8]
10004ed4:	79e1      	ldrb	r1, [r4, #7]
10004ed6:	71d9      	strb	r1, [r3, #7]
10004ed8:	2106      	movs	r1, #6
10004eda:	5661      	ldrsb	r1, [r4, r1]
10004edc:	7199      	strb	r1, [r3, #6]
10004ede:	79a1      	ldrb	r1, [r4, #6]
10004ee0:	297f      	cmp	r1, #127	; 0x7f
10004ee2:	d826      	bhi.n	10004f32 <irq_remove_handler+0x136>
10004ee4:	88a4      	ldrh	r4, [r4, #4]
10004ee6:	1af1      	subs	r1, r6, r3
10004ee8:	0564      	lsls	r4, r4, #21
10004eea:	1524      	asrs	r4, r4, #20
10004eec:	4444      	add	r4, r8
10004eee:	1909      	adds	r1, r1, r4
10004ef0:	24e0      	movs	r4, #224	; 0xe0
10004ef2:	0509      	lsls	r1, r1, #20
10004ef4:	0d49      	lsrs	r1, r1, #21
10004ef6:	0224      	lsls	r4, r4, #8
10004ef8:	4321      	orrs	r1, r4
10004efa:	8099      	strh	r1, [r3, #4]
10004efc:	1812      	adds	r2, r2, r0
10004efe:	4b26      	ldr	r3, [pc, #152]	; (10004f98 <irq_remove_handler+0x19c>)
10004f00:	0092      	lsls	r2, r2, #2
10004f02:	18b6      	adds	r6, r6, r2
10004f04:	781a      	ldrb	r2, [r3, #0]
10004f06:	7018      	strb	r0, [r3, #0]
10004f08:	71b2      	strb	r2, [r6, #6]
10004f0a:	9b00      	ldr	r3, [sp, #0]
10004f0c:	2b00      	cmp	r3, #0
10004f0e:	d108      	bne.n	10004f22 <irq_remove_handler+0x126>
10004f10:	4652      	mov	r2, sl
10004f12:	4b20      	ldr	r3, [pc, #128]	; (10004f94 <irq_remove_handler+0x198>)
10004f14:	601a      	str	r2, [r3, #0]
10004f16:	e795      	b.n	10004e44 <irq_remove_handler+0x48>
10004f18:	4580      	cmp	r8, r0
10004f1a:	d0b8      	beq.n	10004e8e <irq_remove_handler+0x92>
10004f1c:	f7ff fd5c 	bl	100049d8 <hard_assertion_failure>
10004f20:	e7b5      	b.n	10004e8e <irq_remove_handler+0x92>
10004f22:	4652      	mov	r2, sl
10004f24:	4b1d      	ldr	r3, [pc, #116]	; (10004f9c <irq_remove_handler+0x1a0>)
10004f26:	601a      	str	r2, [r3, #0]
10004f28:	4b19      	ldr	r3, [pc, #100]	; (10004f90 <irq_remove_handler+0x194>)
10004f2a:	601a      	str	r2, [r3, #0]
10004f2c:	e78a      	b.n	10004e44 <irq_remove_handler+0x48>
10004f2e:	001d      	movs	r5, r3
10004f30:	e788      	b.n	10004e44 <irq_remove_handler+0x48>
10004f32:	21bd      	movs	r1, #189	; 0xbd
10004f34:	0209      	lsls	r1, r1, #8
10004f36:	e7e0      	b.n	10004efa <irq_remove_handler+0xfe>
10004f38:	000b      	movs	r3, r1
10004f3a:	2200      	movs	r2, #0
10004f3c:	e7bf      	b.n	10004ebe <irq_remove_handler+0xc2>
10004f3e:	9801      	ldr	r0, [sp, #4]
10004f40:	2800      	cmp	r0, #0
10004f42:	d10e      	bne.n	10004f62 <irq_remove_handler+0x166>
10004f44:	2a00      	cmp	r2, #0
10004f46:	d019      	beq.n	10004f7c <irq_remove_handler+0x180>
10004f48:	30ff      	adds	r0, #255	; 0xff
10004f4a:	7190      	strb	r0, [r2, #6]
10004f4c:	4814      	ldr	r0, [pc, #80]	; (10004fa0 <irq_remove_handler+0x1a4>)
10004f4e:	8090      	strh	r0, [r2, #4]
10004f50:	4a11      	ldr	r2, [pc, #68]	; (10004f98 <irq_remove_handler+0x19c>)
10004f52:	1b89      	subs	r1, r1, r6
10004f54:	7810      	ldrb	r0, [r2, #0]
10004f56:	1089      	asrs	r1, r1, #2
10004f58:	7198      	strb	r0, [r3, #6]
10004f5a:	4b12      	ldr	r3, [pc, #72]	; (10004fa4 <irq_remove_handler+0x1a8>)
10004f5c:	434b      	muls	r3, r1
10004f5e:	7013      	strb	r3, [r2, #0]
10004f60:	e7d3      	b.n	10004f0a <irq_remove_handler+0x10e>
10004f62:	4a11      	ldr	r2, [pc, #68]	; (10004fa8 <irq_remove_handler+0x1ac>)
10004f64:	4911      	ldr	r1, [pc, #68]	; (10004fac <irq_remove_handler+0x1b0>)
10004f66:	1ad2      	subs	r2, r2, r3
10004f68:	3a08      	subs	r2, #8
10004f6a:	0250      	lsls	r0, r2, #9
10004f6c:	0d40      	lsrs	r0, r0, #21
10004f6e:	4301      	orrs	r1, r0
10004f70:	8099      	strh	r1, [r3, #4]
10004f72:	490f      	ldr	r1, [pc, #60]	; (10004fb0 <irq_remove_handler+0x1b4>)
10004f74:	0852      	lsrs	r2, r2, #1
10004f76:	430a      	orrs	r2, r1
10004f78:	80da      	strh	r2, [r3, #6]
10004f7a:	e7c6      	b.n	10004f0a <irq_remove_handler+0x10e>
10004f7c:	464d      	mov	r5, r9
10004f7e:	e7e7      	b.n	10004f50 <irq_remove_handler+0x154>
10004f80:	d0000124 	.word	0xd0000124
10004f84:	e000ed00 	.word	0xe000ed00
10004f88:	100001cd 	.word	0x100001cd
10004f8c:	20000250 	.word	0x20000250
10004f90:	e000e100 	.word	0xe000e100
10004f94:	e000e180 	.word	0xe000e180
10004f98:	20001665 	.word	0x20001665
10004f9c:	e000e280 	.word	0xe000e280
10004fa0:	ffffbd00 	.word	0xffffbd00
10004fa4:	aaaaaaab 	.word	0xaaaaaaab
10004fa8:	2000028a 	.word	0x2000028a
10004fac:	fffff000 	.word	0xfffff000
10004fb0:	fffff800 	.word	0xfffff800

10004fb4 <irq_add_tail_to_free_list>:
10004fb4:	b5f8      	push	{r3, r4, r5, r6, r7, lr}
10004fb6:	2501      	movs	r5, #1
10004fb8:	0004      	movs	r4, r0
10004fba:	4305      	orrs	r5, r0
10004fbc:	f7fb f953 	bl	10000266 <__get_current_exception>
10004fc0:	f3ef 8610 	mrs	r6, PRIMASK
10004fc4:	b672      	cpsid	i
10004fc6:	4a20      	ldr	r2, [pc, #128]	; (10005048 <irq_add_tail_to_free_list+0x94>)
10004fc8:	6813      	ldr	r3, [r2, #0]
10004fca:	2b00      	cmp	r3, #0
10004fcc:	d0fc      	beq.n	10004fc8 <irq_add_tail_to_free_list+0x14>
10004fce:	f3bf 8f5f 	dmb	sy
10004fd2:	4a1e      	ldr	r2, [pc, #120]	; (1000504c <irq_add_tail_to_free_list+0x98>)
10004fd4:	491e      	ldr	r1, [pc, #120]	; (10005050 <irq_add_tail_to_free_list+0x9c>)
10004fd6:	1aa3      	subs	r3, r4, r2
10004fd8:	109b      	asrs	r3, r3, #2
10004fda:	434b      	muls	r3, r1
10004fdc:	491d      	ldr	r1, [pc, #116]	; (10005054 <irq_add_tail_to_free_list+0xa0>)
10004fde:	0080      	lsls	r0, r0, #2
10004fe0:	688f      	ldr	r7, [r1, #8]
10004fe2:	583f      	ldr	r7, [r7, r0]
10004fe4:	42bd      	cmp	r5, r7
10004fe6:	d026      	beq.n	10005036 <irq_add_tail_to_free_list+0x82>
10004fe8:	2106      	movs	r1, #6
10004fea:	5651      	ldrsb	r1, [r2, r1]
10004fec:	428b      	cmp	r3, r1
10004fee:	d026      	beq.n	1000503e <irq_add_tail_to_free_list+0x8a>
10004ff0:	2112      	movs	r1, #18
10004ff2:	5651      	ldrsb	r1, [r2, r1]
10004ff4:	428b      	cmp	r3, r1
10004ff6:	d024      	beq.n	10005042 <irq_add_tail_to_free_list+0x8e>
10004ff8:	211e      	movs	r1, #30
10004ffa:	5651      	ldrsb	r1, [r2, r1]
10004ffc:	428b      	cmp	r3, r1
10004ffe:	d010      	beq.n	10005022 <irq_add_tail_to_free_list+0x6e>
10005000:	212a      	movs	r1, #42	; 0x2a
10005002:	5651      	ldrsb	r1, [r2, r1]
10005004:	2003      	movs	r0, #3
10005006:	428b      	cmp	r3, r1
10005008:	d00c      	beq.n	10005024 <irq_add_tail_to_free_list+0x70>
1000500a:	4a13      	ldr	r2, [pc, #76]	; (10005058 <irq_add_tail_to_free_list+0xa4>)
1000500c:	7811      	ldrb	r1, [r2, #0]
1000500e:	7013      	strb	r3, [r2, #0]
10005010:	71a1      	strb	r1, [r4, #6]
10005012:	f3bf 8f5f 	dmb	sy
10005016:	2200      	movs	r2, #0
10005018:	4b0b      	ldr	r3, [pc, #44]	; (10005048 <irq_add_tail_to_free_list+0x94>)
1000501a:	601a      	str	r2, [r3, #0]
1000501c:	f386 8810 	msr	PRIMASK, r6
10005020:	bdf8      	pop	{r3, r4, r5, r6, r7, pc}
10005022:	2002      	movs	r0, #2
10005024:	0041      	lsls	r1, r0, #1
10005026:	1809      	adds	r1, r1, r0
10005028:	0089      	lsls	r1, r1, #2
1000502a:	1852      	adds	r2, r2, r1
1000502c:	21ff      	movs	r1, #255	; 0xff
1000502e:	7191      	strb	r1, [r2, #6]
10005030:	490a      	ldr	r1, [pc, #40]	; (1000505c <irq_add_tail_to_free_list+0xa8>)
10005032:	8091      	strh	r1, [r2, #4]
10005034:	e7e9      	b.n	1000500a <irq_add_tail_to_free_list+0x56>
10005036:	688a      	ldr	r2, [r1, #8]
10005038:	4909      	ldr	r1, [pc, #36]	; (10005060 <irq_add_tail_to_free_list+0xac>)
1000503a:	5011      	str	r1, [r2, r0]
1000503c:	e7e5      	b.n	1000500a <irq_add_tail_to_free_list+0x56>
1000503e:	2000      	movs	r0, #0
10005040:	e7f0      	b.n	10005024 <irq_add_tail_to_free_list+0x70>
10005042:	2001      	movs	r0, #1
10005044:	e7ee      	b.n	10005024 <irq_add_tail_to_free_list+0x70>
10005046:	46c0      	nop			; (mov r8, r8)
10005048:	d0000124 	.word	0xd0000124
1000504c:	20000250 	.word	0x20000250
10005050:	aaaaaaab 	.word	0xaaaaaaab
10005054:	e000ed00 	.word	0xe000ed00
10005058:	20001665 	.word	0x20001665
1000505c:	ffffbd00 	.word	0xffffbd00
10005060:	100001cd 	.word	0x100001cd

10005064 <irq_init_priorities>:
10005064:	b5f0      	push	{r4, r5, r6, r7, lr}
10005066:	2200      	movs	r2, #0
10005068:	2403      	movs	r4, #3
1000506a:	27ff      	movs	r7, #255	; 0xff
1000506c:	2680      	movs	r6, #128	; 0x80
1000506e:	0020      	movs	r0, r4
10005070:	003d      	movs	r5, r7
10005072:	4b09      	ldr	r3, [pc, #36]	; (10005098 <irq_init_priorities+0x34>)
10005074:	0011      	movs	r1, r2
10005076:	469c      	mov	ip, r3
10005078:	4010      	ands	r0, r2
1000507a:	00c0      	lsls	r0, r0, #3
1000507c:	4085      	lsls	r5, r0
1000507e:	43a1      	bics	r1, r4
10005080:	4461      	add	r1, ip
10005082:	680b      	ldr	r3, [r1, #0]
10005084:	3201      	adds	r2, #1
10005086:	43ab      	bics	r3, r5
10005088:	0035      	movs	r5, r6
1000508a:	4085      	lsls	r5, r0
1000508c:	432b      	orrs	r3, r5
1000508e:	600b      	str	r3, [r1, #0]
10005090:	2a20      	cmp	r2, #32
10005092:	d1ec      	bne.n	1000506e <irq_init_priorities+0xa>
10005094:	bdf0      	pop	{r4, r5, r6, r7, pc}
10005096:	46c0      	nop			; (mov r8, r8)
10005098:	e000e400 	.word	0xe000e400

1000509c <_out_null>:
1000509c:	4770      	bx	lr
1000509e:	46c0      	nop			; (mov r8, r8)

100050a0 <_out_fct>:
100050a0:	b510      	push	{r4, lr}
100050a2:	2800      	cmp	r0, #0
100050a4:	d003      	beq.n	100050ae <_out_fct+0xe>
100050a6:	684a      	ldr	r2, [r1, #4]
100050a8:	680b      	ldr	r3, [r1, #0]
100050aa:	0011      	movs	r1, r2
100050ac:	4798      	blx	r3
100050ae:	bd10      	pop	{r4, pc}

100050b0 <_out_char>:
100050b0:	b510      	push	{r4, lr}
100050b2:	2800      	cmp	r0, #0
100050b4:	d100      	bne.n	100050b8 <_out_char+0x8>
100050b6:	bd10      	pop	{r4, pc}
100050b8:	4b0b      	ldr	r3, [pc, #44]	; (100050e8 <_out_char+0x38>)
100050ba:	681c      	ldr	r4, [r3, #0]
100050bc:	68a2      	ldr	r2, [r4, #8]
100050be:	6893      	ldr	r3, [r2, #8]
100050c0:	3b01      	subs	r3, #1
100050c2:	6093      	str	r3, [r2, #8]
100050c4:	2b00      	cmp	r3, #0
100050c6:	db04      	blt.n	100050d2 <_out_char+0x22>
100050c8:	6813      	ldr	r3, [r2, #0]
100050ca:	1c59      	adds	r1, r3, #1
100050cc:	6011      	str	r1, [r2, #0]
100050ce:	7018      	strb	r0, [r3, #0]
100050d0:	e7f1      	b.n	100050b6 <_out_char+0x6>
100050d2:	6991      	ldr	r1, [r2, #24]
100050d4:	428b      	cmp	r3, r1
100050d6:	db01      	blt.n	100050dc <_out_char+0x2c>
100050d8:	280a      	cmp	r0, #10
100050da:	d1f5      	bne.n	100050c8 <_out_char+0x18>
100050dc:	0001      	movs	r1, r0
100050de:	0020      	movs	r0, r4
100050e0:	f005 fc56 	bl	1000a990 <__swbuf_r>
100050e4:	e7e7      	b.n	100050b6 <_out_char+0x6>
100050e6:	46c0      	nop			; (mov r8, r8)
100050e8:	200002fc 	.word	0x200002fc

100050ec <_ntoa_format>:
100050ec:	b5f0      	push	{r4, r5, r6, r7, lr}
100050ee:	4645      	mov	r5, r8
100050f0:	46de      	mov	lr, fp
100050f2:	4657      	mov	r7, sl
100050f4:	464e      	mov	r6, r9
100050f6:	b5e0      	push	{r5, r6, r7, lr}
100050f8:	b083      	sub	sp, #12
100050fa:	4699      	mov	r9, r3
100050fc:	ab0e      	add	r3, sp, #56	; 0x38
100050fe:	781d      	ldrb	r5, [r3, #0]
10005100:	9b11      	ldr	r3, [sp, #68]	; 0x44
10005102:	4688      	mov	r8, r1
10005104:	469b      	mov	fp, r3
10005106:	2302      	movs	r3, #2
10005108:	9912      	ldr	r1, [sp, #72]	; 0x48
1000510a:	9200      	str	r2, [sp, #0]
1000510c:	400b      	ands	r3, r1
1000510e:	0007      	movs	r7, r0
10005110:	9c0d      	ldr	r4, [sp, #52]	; 0x34
10005112:	9a10      	ldr	r2, [sp, #64]	; 0x40
10005114:	9301      	str	r3, [sp, #4]
10005116:	2b00      	cmp	r3, #0
10005118:	d128      	bne.n	1000516c <_ntoa_format+0x80>
1000511a:	465b      	mov	r3, fp
1000511c:	2b00      	cmp	r3, #0
1000511e:	d000      	beq.n	10005122 <_ntoa_format+0x36>
10005120:	e092      	b.n	10005248 <_ntoa_format+0x15c>
10005122:	4294      	cmp	r4, r2
10005124:	d222      	bcs.n	1000516c <_ntoa_format+0x80>
10005126:	2601      	movs	r6, #1
10005128:	400e      	ands	r6, r1
1000512a:	2c1f      	cmp	r4, #31
1000512c:	d81e      	bhi.n	1000516c <_ntoa_format+0x80>
1000512e:	9b0c      	ldr	r3, [sp, #48]	; 0x30
10005130:	2030      	movs	r0, #48	; 0x30
10005132:	191b      	adds	r3, r3, r4
10005134:	e002      	b.n	1000513c <_ntoa_format+0x50>
10005136:	3301      	adds	r3, #1
10005138:	2c20      	cmp	r4, #32
1000513a:	d003      	beq.n	10005144 <_ntoa_format+0x58>
1000513c:	3401      	adds	r4, #1
1000513e:	7018      	strb	r0, [r3, #0]
10005140:	42a2      	cmp	r2, r4
10005142:	d8f8      	bhi.n	10005136 <_ntoa_format+0x4a>
10005144:	2e00      	cmp	r6, #0
10005146:	d011      	beq.n	1000516c <_ntoa_format+0x80>
10005148:	45a3      	cmp	fp, r4
1000514a:	d90f      	bls.n	1000516c <_ntoa_format+0x80>
1000514c:	9b0c      	ldr	r3, [sp, #48]	; 0x30
1000514e:	2030      	movs	r0, #48	; 0x30
10005150:	191b      	adds	r3, r3, r4
10005152:	465e      	mov	r6, fp
10005154:	2c1f      	cmp	r4, #31
10005156:	d904      	bls.n	10005162 <_ntoa_format+0x76>
10005158:	e087      	b.n	1000526a <_ntoa_format+0x17e>
1000515a:	3301      	adds	r3, #1
1000515c:	2c20      	cmp	r4, #32
1000515e:	d100      	bne.n	10005162 <_ntoa_format+0x76>
10005160:	e0a7      	b.n	100052b2 <_ntoa_format+0x1c6>
10005162:	3401      	adds	r4, #1
10005164:	7018      	strb	r0, [r3, #0]
10005166:	42b4      	cmp	r4, r6
10005168:	d1f7      	bne.n	1000515a <_ntoa_format+0x6e>
1000516a:	46a3      	mov	fp, r4
1000516c:	06cb      	lsls	r3, r1, #27
1000516e:	d511      	bpl.n	10005194 <_ntoa_format+0xa8>
10005170:	054b      	lsls	r3, r1, #21
10005172:	d402      	bmi.n	1000517a <_ntoa_format+0x8e>
10005174:	2c00      	cmp	r4, #0
10005176:	d000      	beq.n	1000517a <_ntoa_format+0x8e>
10005178:	e07c      	b.n	10005274 <_ntoa_format+0x188>
1000517a:	9b0f      	ldr	r3, [sp, #60]	; 0x3c
1000517c:	2b10      	cmp	r3, #16
1000517e:	d100      	bne.n	10005182 <_ntoa_format+0x96>
10005180:	e0a0      	b.n	100052c4 <_ntoa_format+0x1d8>
10005182:	2b02      	cmp	r3, #2
10005184:	d100      	bne.n	10005188 <_ntoa_format+0x9c>
10005186:	e0a7      	b.n	100052d8 <_ntoa_format+0x1ec>
10005188:	2c1f      	cmp	r4, #31
1000518a:	d811      	bhi.n	100051b0 <_ntoa_format+0xc4>
1000518c:	2330      	movs	r3, #48	; 0x30
1000518e:	9a0c      	ldr	r2, [sp, #48]	; 0x30
10005190:	5513      	strb	r3, [r2, r4]
10005192:	3401      	adds	r4, #1
10005194:	2c1f      	cmp	r4, #31
10005196:	d80b      	bhi.n	100051b0 <_ntoa_format+0xc4>
10005198:	2d00      	cmp	r5, #0
1000519a:	d000      	beq.n	1000519e <_ntoa_format+0xb2>
1000519c:	e079      	b.n	10005292 <_ntoa_format+0x1a6>
1000519e:	074b      	lsls	r3, r1, #29
100051a0:	d500      	bpl.n	100051a4 <_ntoa_format+0xb8>
100051a2:	e088      	b.n	100052b6 <_ntoa_format+0x1ca>
100051a4:	070b      	lsls	r3, r1, #28
100051a6:	d533      	bpl.n	10005210 <_ntoa_format+0x124>
100051a8:	2320      	movs	r3, #32
100051aa:	9a0c      	ldr	r2, [sp, #48]	; 0x30
100051ac:	5513      	strb	r3, [r2, r4]
100051ae:	3401      	adds	r4, #1
100051b0:	078b      	lsls	r3, r1, #30
100051b2:	d030      	beq.n	10005216 <_ntoa_format+0x12a>
100051b4:	9e00      	ldr	r6, [sp, #0]
100051b6:	0025      	movs	r5, r4
100051b8:	46a2      	mov	sl, r4
100051ba:	0032      	movs	r2, r6
100051bc:	4644      	mov	r4, r8
100051be:	46b0      	mov	r8, r6
100051c0:	9b0c      	ldr	r3, [sp, #48]	; 0x30
100051c2:	3d01      	subs	r5, #1
100051c4:	1c56      	adds	r6, r2, #1
100051c6:	5d58      	ldrb	r0, [r3, r5]
100051c8:	0021      	movs	r1, r4
100051ca:	464b      	mov	r3, r9
100051cc:	47b8      	blx	r7
100051ce:	0032      	movs	r2, r6
100051d0:	2d00      	cmp	r5, #0
100051d2:	d1f5      	bne.n	100051c0 <_ntoa_format+0xd4>
100051d4:	4646      	mov	r6, r8
100051d6:	46a0      	mov	r8, r4
100051d8:	4654      	mov	r4, sl
100051da:	1936      	adds	r6, r6, r4
100051dc:	9b01      	ldr	r3, [sp, #4]
100051de:	2b00      	cmp	r3, #0
100051e0:	d00e      	beq.n	10005200 <_ntoa_format+0x114>
100051e2:	9d00      	ldr	r5, [sp, #0]
100051e4:	1b73      	subs	r3, r6, r5
100051e6:	455b      	cmp	r3, fp
100051e8:	d20a      	bcs.n	10005200 <_ntoa_format+0x114>
100051ea:	0032      	movs	r2, r6
100051ec:	4644      	mov	r4, r8
100051ee:	3601      	adds	r6, #1
100051f0:	464b      	mov	r3, r9
100051f2:	0021      	movs	r1, r4
100051f4:	2020      	movs	r0, #32
100051f6:	47b8      	blx	r7
100051f8:	0032      	movs	r2, r6
100051fa:	1b73      	subs	r3, r6, r5
100051fc:	455b      	cmp	r3, fp
100051fe:	d3f6      	bcc.n	100051ee <_ntoa_format+0x102>
10005200:	0030      	movs	r0, r6
10005202:	b003      	add	sp, #12
10005204:	bc3c      	pop	{r2, r3, r4, r5}
10005206:	4690      	mov	r8, r2
10005208:	4699      	mov	r9, r3
1000520a:	46a2      	mov	sl, r4
1000520c:	46ab      	mov	fp, r5
1000520e:	bdf0      	pop	{r4, r5, r6, r7, pc}
10005210:	9e00      	ldr	r6, [sp, #0]
10005212:	078b      	lsls	r3, r1, #30
10005214:	d115      	bne.n	10005242 <_ntoa_format+0x156>
10005216:	455c      	cmp	r4, fp
10005218:	d26e      	bcs.n	100052f8 <_ntoa_format+0x20c>
1000521a:	9a00      	ldr	r2, [sp, #0]
1000521c:	940d      	str	r4, [sp, #52]	; 0x34
1000521e:	0013      	movs	r3, r2
10005220:	445b      	add	r3, fp
10005222:	1b1d      	subs	r5, r3, r4
10005224:	9b0d      	ldr	r3, [sp, #52]	; 0x34
10005226:	4644      	mov	r4, r8
10005228:	4698      	mov	r8, r3
1000522a:	1c56      	adds	r6, r2, #1
1000522c:	464b      	mov	r3, r9
1000522e:	0021      	movs	r1, r4
10005230:	2020      	movs	r0, #32
10005232:	47b8      	blx	r7
10005234:	0032      	movs	r2, r6
10005236:	42b5      	cmp	r5, r6
10005238:	d1f7      	bne.n	1000522a <_ntoa_format+0x13e>
1000523a:	4643      	mov	r3, r8
1000523c:	46a0      	mov	r8, r4
1000523e:	001c      	movs	r4, r3
10005240:	930d      	str	r3, [sp, #52]	; 0x34
10005242:	2c00      	cmp	r4, #0
10005244:	d1b7      	bne.n	100051b6 <_ntoa_format+0xca>
10005246:	e7c9      	b.n	100051dc <_ntoa_format+0xf0>
10005248:	2601      	movs	r6, #1
1000524a:	400e      	ands	r6, r1
1000524c:	d028      	beq.n	100052a0 <_ntoa_format+0x1b4>
1000524e:	2d00      	cmp	r5, #0
10005250:	d12a      	bne.n	100052a8 <_ntoa_format+0x1bc>
10005252:	230c      	movs	r3, #12
10005254:	420b      	tst	r3, r1
10005256:	d127      	bne.n	100052a8 <_ntoa_format+0x1bc>
10005258:	4294      	cmp	r4, r2
1000525a:	d300      	bcc.n	1000525e <_ntoa_format+0x172>
1000525c:	e774      	b.n	10005148 <_ntoa_format+0x5c>
1000525e:	2c1f      	cmp	r4, #31
10005260:	d800      	bhi.n	10005264 <_ntoa_format+0x178>
10005262:	e764      	b.n	1000512e <_ntoa_format+0x42>
10005264:	45a3      	cmp	fp, r4
10005266:	d800      	bhi.n	1000526a <_ntoa_format+0x17e>
10005268:	e780      	b.n	1000516c <_ntoa_format+0x80>
1000526a:	06cb      	lsls	r3, r1, #27
1000526c:	d5a0      	bpl.n	100051b0 <_ntoa_format+0xc4>
1000526e:	054b      	lsls	r3, r1, #21
10005270:	d500      	bpl.n	10005274 <_ntoa_format+0x188>
10005272:	e782      	b.n	1000517a <_ntoa_format+0x8e>
10005274:	42a2      	cmp	r2, r4
10005276:	d002      	beq.n	1000527e <_ntoa_format+0x192>
10005278:	455c      	cmp	r4, fp
1000527a:	d000      	beq.n	1000527e <_ntoa_format+0x192>
1000527c:	e77d      	b.n	1000517a <_ntoa_format+0x8e>
1000527e:	1e63      	subs	r3, r4, #1
10005280:	2b00      	cmp	r3, #0
10005282:	d03b      	beq.n	100052fc <_ntoa_format+0x210>
10005284:	9a0f      	ldr	r2, [sp, #60]	; 0x3c
10005286:	3c02      	subs	r4, #2
10005288:	2a10      	cmp	r2, #16
1000528a:	d01b      	beq.n	100052c4 <_ntoa_format+0x1d8>
1000528c:	001c      	movs	r4, r3
1000528e:	0013      	movs	r3, r2
10005290:	e777      	b.n	10005182 <_ntoa_format+0x96>
10005292:	232d      	movs	r3, #45	; 0x2d
10005294:	9a0c      	ldr	r2, [sp, #48]	; 0x30
10005296:	5513      	strb	r3, [r2, r4]
10005298:	3401      	adds	r4, #1
1000529a:	078b      	lsls	r3, r1, #30
1000529c:	d0bb      	beq.n	10005216 <_ntoa_format+0x12a>
1000529e:	e789      	b.n	100051b4 <_ntoa_format+0xc8>
100052a0:	4294      	cmp	r4, r2
100052a2:	d200      	bcs.n	100052a6 <_ntoa_format+0x1ba>
100052a4:	e741      	b.n	1000512a <_ntoa_format+0x3e>
100052a6:	e761      	b.n	1000516c <_ntoa_format+0x80>
100052a8:	2301      	movs	r3, #1
100052aa:	425b      	negs	r3, r3
100052ac:	469c      	mov	ip, r3
100052ae:	44e3      	add	fp, ip
100052b0:	e7d2      	b.n	10005258 <_ntoa_format+0x16c>
100052b2:	46b3      	mov	fp, r6
100052b4:	e7d9      	b.n	1000526a <_ntoa_format+0x17e>
100052b6:	232b      	movs	r3, #43	; 0x2b
100052b8:	9a0c      	ldr	r2, [sp, #48]	; 0x30
100052ba:	5513      	strb	r3, [r2, r4]
100052bc:	3401      	adds	r4, #1
100052be:	078b      	lsls	r3, r1, #30
100052c0:	d0a9      	beq.n	10005216 <_ntoa_format+0x12a>
100052c2:	e777      	b.n	100051b4 <_ntoa_format+0xc8>
100052c4:	068b      	lsls	r3, r1, #26
100052c6:	d40f      	bmi.n	100052e8 <_ntoa_format+0x1fc>
100052c8:	2c1f      	cmp	r4, #31
100052ca:	d900      	bls.n	100052ce <_ntoa_format+0x1e2>
100052cc:	e770      	b.n	100051b0 <_ntoa_format+0xc4>
100052ce:	2378      	movs	r3, #120	; 0x78
100052d0:	9a0c      	ldr	r2, [sp, #48]	; 0x30
100052d2:	5513      	strb	r3, [r2, r4]
100052d4:	3401      	adds	r4, #1
100052d6:	e757      	b.n	10005188 <_ntoa_format+0x9c>
100052d8:	2c1f      	cmp	r4, #31
100052da:	d900      	bls.n	100052de <_ntoa_format+0x1f2>
100052dc:	e768      	b.n	100051b0 <_ntoa_format+0xc4>
100052de:	9a0c      	ldr	r2, [sp, #48]	; 0x30
100052e0:	3360      	adds	r3, #96	; 0x60
100052e2:	5513      	strb	r3, [r2, r4]
100052e4:	3401      	adds	r4, #1
100052e6:	e74f      	b.n	10005188 <_ntoa_format+0x9c>
100052e8:	2c1f      	cmp	r4, #31
100052ea:	d900      	bls.n	100052ee <_ntoa_format+0x202>
100052ec:	e760      	b.n	100051b0 <_ntoa_format+0xc4>
100052ee:	2358      	movs	r3, #88	; 0x58
100052f0:	9a0c      	ldr	r2, [sp, #48]	; 0x30
100052f2:	5513      	strb	r3, [r2, r4]
100052f4:	3401      	adds	r4, #1
100052f6:	e747      	b.n	10005188 <_ntoa_format+0x9c>
100052f8:	9e00      	ldr	r6, [sp, #0]
100052fa:	e7a2      	b.n	10005242 <_ntoa_format+0x156>
100052fc:	2400      	movs	r4, #0
100052fe:	e73c      	b.n	1000517a <_ntoa_format+0x8e>

10005300 <_ftoa>:
10005300:	b5f0      	push	{r4, r5, r6, r7, lr}
10005302:	46de      	mov	lr, fp
10005304:	4657      	mov	r7, sl
10005306:	464e      	mov	r6, r9
10005308:	4645      	mov	r5, r8
1000530a:	b5e0      	push	{r5, r6, r7, lr}
1000530c:	b097      	sub	sp, #92	; 0x5c
1000530e:	0005      	movs	r5, r0
10005310:	000e      	movs	r6, r1
10005312:	4693      	mov	fp, r2
10005314:	001f      	movs	r7, r3
10005316:	9a20      	ldr	r2, [sp, #128]	; 0x80
10005318:	9b21      	ldr	r3, [sp, #132]	; 0x84
1000531a:	0010      	movs	r0, r2
1000531c:	0019      	movs	r1, r3
1000531e:	f001 fe0e 	bl	10006f3e <__wrap___aeabi_dcmpun>
10005322:	2800      	cmp	r0, #0
10005324:	d000      	beq.n	10005328 <_ftoa+0x28>
10005326:	e2d5      	b.n	100058d4 <_ftoa+0x5d4>
10005328:	9820      	ldr	r0, [sp, #128]	; 0x80
1000532a:	9921      	ldr	r1, [sp, #132]	; 0x84
1000532c:	2201      	movs	r2, #1
1000532e:	4bbd      	ldr	r3, [pc, #756]	; (10005624 <_ftoa+0x324>)
10005330:	4252      	negs	r2, r2
10005332:	f001 fdf1 	bl	10006f18 <__wrap___aeabi_dcmplt>
10005336:	2800      	cmp	r0, #0
10005338:	d000      	beq.n	1000533c <_ftoa+0x3c>
1000533a:	e181      	b.n	10005640 <_ftoa+0x340>
1000533c:	9820      	ldr	r0, [sp, #128]	; 0x80
1000533e:	9921      	ldr	r1, [sp, #132]	; 0x84
10005340:	2201      	movs	r2, #1
10005342:	4bb9      	ldr	r3, [pc, #740]	; (10005628 <_ftoa+0x328>)
10005344:	4252      	negs	r2, r2
10005346:	f001 fdf5 	bl	10006f34 <__wrap___aeabi_dcmpgt>
1000534a:	2800      	cmp	r0, #0
1000534c:	d000      	beq.n	10005350 <_ftoa+0x50>
1000534e:	e117      	b.n	10005580 <_ftoa+0x280>
10005350:	9820      	ldr	r0, [sp, #128]	; 0x80
10005352:	9921      	ldr	r1, [sp, #132]	; 0x84
10005354:	2200      	movs	r2, #0
10005356:	4bb5      	ldr	r3, [pc, #724]	; (1000562c <_ftoa+0x32c>)
10005358:	f001 fdec 	bl	10006f34 <__wrap___aeabi_dcmpgt>
1000535c:	2800      	cmp	r0, #0
1000535e:	d000      	beq.n	10005362 <_ftoa+0x62>
10005360:	e1bc      	b.n	100056dc <_ftoa+0x3dc>
10005362:	9820      	ldr	r0, [sp, #128]	; 0x80
10005364:	9921      	ldr	r1, [sp, #132]	; 0x84
10005366:	2200      	movs	r2, #0
10005368:	4bb1      	ldr	r3, [pc, #708]	; (10005630 <_ftoa+0x330>)
1000536a:	f001 fdd5 	bl	10006f18 <__wrap___aeabi_dcmplt>
1000536e:	2800      	cmp	r0, #0
10005370:	d000      	beq.n	10005374 <_ftoa+0x74>
10005372:	e1b3      	b.n	100056dc <_ftoa+0x3dc>
10005374:	9820      	ldr	r0, [sp, #128]	; 0x80
10005376:	9921      	ldr	r1, [sp, #132]	; 0x84
10005378:	2200      	movs	r2, #0
1000537a:	2300      	movs	r3, #0
1000537c:	f001 fdcc 	bl	10006f18 <__wrap___aeabi_dcmplt>
10005380:	2800      	cmp	r0, #0
10005382:	d000      	beq.n	10005386 <_ftoa+0x86>
10005384:	e254      	b.n	10005830 <_ftoa+0x530>
10005386:	2300      	movs	r3, #0
10005388:	930d      	str	r3, [sp, #52]	; 0x34
1000538a:	2380      	movs	r3, #128	; 0x80
1000538c:	9a24      	ldr	r2, [sp, #144]	; 0x90
1000538e:	00db      	lsls	r3, r3, #3
10005390:	401a      	ands	r2, r3
10005392:	4691      	mov	r9, r2
10005394:	d000      	beq.n	10005398 <_ftoa+0x98>
10005396:	e207      	b.n	100057a8 <_ftoa+0x4a8>
10005398:	2300      	movs	r3, #0
1000539a:	4ca6      	ldr	r4, [pc, #664]	; (10005634 <_ftoa+0x334>)
1000539c:	9308      	str	r3, [sp, #32]
1000539e:	9409      	str	r4, [sp, #36]	; 0x24
100053a0:	2406      	movs	r4, #6
100053a2:	ab0e      	add	r3, sp, #56	; 0x38
100053a4:	9307      	str	r3, [sp, #28]
100053a6:	9820      	ldr	r0, [sp, #128]	; 0x80
100053a8:	9921      	ldr	r1, [sp, #132]	; 0x84
100053aa:	f001 fdf3 	bl	10006f94 <__wrap___aeabi_d2iz>
100053ae:	4680      	mov	r8, r0
100053b0:	900c      	str	r0, [sp, #48]	; 0x30
100053b2:	f001 fdd7 	bl	10006f64 <__wrap___aeabi_i2d>
100053b6:	0002      	movs	r2, r0
100053b8:	000b      	movs	r3, r1
100053ba:	9820      	ldr	r0, [sp, #128]	; 0x80
100053bc:	9921      	ldr	r1, [sp, #132]	; 0x84
100053be:	f001 fd4e 	bl	10006e5e <__wrap___aeabi_dsub>
100053c2:	9a08      	ldr	r2, [sp, #32]
100053c4:	9b09      	ldr	r3, [sp, #36]	; 0x24
100053c6:	f001 fd65 	bl	10006e94 <__wrap___aeabi_dmul>
100053ca:	900a      	str	r0, [sp, #40]	; 0x28
100053cc:	910b      	str	r1, [sp, #44]	; 0x2c
100053ce:	f001 fe05 	bl	10006fdc <__wrap___aeabi_d2uiz>
100053d2:	4682      	mov	sl, r0
100053d4:	f001 fdc2 	bl	10006f5c <__wrap___aeabi_ui2d>
100053d8:	0002      	movs	r2, r0
100053da:	000b      	movs	r3, r1
100053dc:	980a      	ldr	r0, [sp, #40]	; 0x28
100053de:	990b      	ldr	r1, [sp, #44]	; 0x2c
100053e0:	f001 fd3d 	bl	10006e5e <__wrap___aeabi_dsub>
100053e4:	2200      	movs	r2, #0
100053e6:	4b94      	ldr	r3, [pc, #592]	; (10005638 <_ftoa+0x338>)
100053e8:	900a      	str	r0, [sp, #40]	; 0x28
100053ea:	910b      	str	r1, [sp, #44]	; 0x2c
100053ec:	f001 fda2 	bl	10006f34 <__wrap___aeabi_dcmpgt>
100053f0:	2800      	cmp	r0, #0
100053f2:	d100      	bne.n	100053f6 <_ftoa+0xf6>
100053f4:	e1c5      	b.n	10005782 <_ftoa+0x482>
100053f6:	2301      	movs	r3, #1
100053f8:	469c      	mov	ip, r3
100053fa:	44e2      	add	sl, ip
100053fc:	4650      	mov	r0, sl
100053fe:	f001 fdad 	bl	10006f5c <__wrap___aeabi_ui2d>
10005402:	9a08      	ldr	r2, [sp, #32]
10005404:	9b09      	ldr	r3, [sp, #36]	; 0x24
10005406:	f001 fd8d 	bl	10006f24 <__wrap___aeabi_dcmpge>
1000540a:	2800      	cmp	r0, #0
1000540c:	d000      	beq.n	10005410 <_ftoa+0x110>
1000540e:	e230      	b.n	10005872 <_ftoa+0x572>
10005410:	2c00      	cmp	r4, #0
10005412:	d000      	beq.n	10005416 <_ftoa+0x116>
10005414:	e174      	b.n	10005700 <_ftoa+0x400>
10005416:	9c0c      	ldr	r4, [sp, #48]	; 0x30
10005418:	0020      	movs	r0, r4
1000541a:	f001 fda3 	bl	10006f64 <__wrap___aeabi_i2d>
1000541e:	0002      	movs	r2, r0
10005420:	000b      	movs	r3, r1
10005422:	9820      	ldr	r0, [sp, #128]	; 0x80
10005424:	9921      	ldr	r1, [sp, #132]	; 0x84
10005426:	f001 fd1a 	bl	10006e5e <__wrap___aeabi_dsub>
1000542a:	2200      	movs	r2, #0
1000542c:	4b82      	ldr	r3, [pc, #520]	; (10005638 <_ftoa+0x338>)
1000542e:	9008      	str	r0, [sp, #32]
10005430:	9109      	str	r1, [sp, #36]	; 0x24
10005432:	f001 fd71 	bl	10006f18 <__wrap___aeabi_dcmplt>
10005436:	2800      	cmp	r0, #0
10005438:	d100      	bne.n	1000543c <_ftoa+0x13c>
1000543a:	e20a      	b.n	10005852 <_ftoa+0x552>
1000543c:	464b      	mov	r3, r9
1000543e:	2b20      	cmp	r3, #32
10005440:	d100      	bne.n	10005444 <_ftoa+0x144>
10005442:	e196      	b.n	10005772 <_ftoa+0x472>
10005444:	1c5c      	adds	r4, r3, #1
10005446:	9b0c      	ldr	r3, [sp, #48]	; 0x30
10005448:	210a      	movs	r1, #10
1000544a:	0018      	movs	r0, r3
1000544c:	4698      	mov	r8, r3
1000544e:	f001 fa95 	bl	1000697c <__wrap___aeabi_idiv>
10005452:	464a      	mov	r2, r9
10005454:	9b07      	ldr	r3, [sp, #28]
10005456:	3130      	adds	r1, #48	; 0x30
10005458:	5499      	strb	r1, [r3, r2]
1000545a:	4640      	mov	r0, r8
1000545c:	210a      	movs	r1, #10
1000545e:	f001 fa8d 	bl	1000697c <__wrap___aeabi_idiv>
10005462:	9b07      	ldr	r3, [sp, #28]
10005464:	4680      	mov	r8, r0
10005466:	4699      	mov	r9, r3
10005468:	44a1      	add	r9, r4
1000546a:	2800      	cmp	r0, #0
1000546c:	d01b      	beq.n	100054a6 <_ftoa+0x1a6>
1000546e:	002a      	movs	r2, r5
10005470:	0033      	movs	r3, r6
10005472:	0025      	movs	r5, r4
10005474:	464e      	mov	r6, r9
10005476:	4644      	mov	r4, r8
10005478:	4699      	mov	r9, r3
1000547a:	4690      	mov	r8, r2
1000547c:	2d20      	cmp	r5, #32
1000547e:	d100      	bne.n	10005482 <_ftoa+0x182>
10005480:	e225      	b.n	100058ce <_ftoa+0x5ce>
10005482:	0020      	movs	r0, r4
10005484:	210a      	movs	r1, #10
10005486:	f001 fa79 	bl	1000697c <__wrap___aeabi_idiv>
1000548a:	3130      	adds	r1, #48	; 0x30
1000548c:	7031      	strb	r1, [r6, #0]
1000548e:	0020      	movs	r0, r4
10005490:	210a      	movs	r1, #10
10005492:	f001 fa73 	bl	1000697c <__wrap___aeabi_idiv>
10005496:	3501      	adds	r5, #1
10005498:	0004      	movs	r4, r0
1000549a:	3601      	adds	r6, #1
1000549c:	2800      	cmp	r0, #0
1000549e:	d1ed      	bne.n	1000547c <_ftoa+0x17c>
100054a0:	002c      	movs	r4, r5
100054a2:	464e      	mov	r6, r9
100054a4:	4645      	mov	r5, r8
100054a6:	2303      	movs	r3, #3
100054a8:	9a24      	ldr	r2, [sp, #144]	; 0x90
100054aa:	4013      	ands	r3, r2
100054ac:	2b01      	cmp	r3, #1
100054ae:	d100      	bne.n	100054b2 <_ftoa+0x1b2>
100054b0:	e19b      	b.n	100057ea <_ftoa+0x4ea>
100054b2:	2220      	movs	r2, #32
100054b4:	4692      	mov	sl, r2
100054b6:	2c20      	cmp	r4, #32
100054b8:	d00c      	beq.n	100054d4 <_ftoa+0x1d4>
100054ba:	9a0d      	ldr	r2, [sp, #52]	; 0x34
100054bc:	2a00      	cmp	r2, #0
100054be:	d000      	beq.n	100054c2 <_ftoa+0x1c2>
100054c0:	e1c1      	b.n	10005846 <_ftoa+0x546>
100054c2:	9a24      	ldr	r2, [sp, #144]	; 0x90
100054c4:	0752      	lsls	r2, r2, #29
100054c6:	d400      	bmi.n	100054ca <_ftoa+0x1ca>
100054c8:	e24c      	b.n	10005964 <_ftoa+0x664>
100054ca:	1c62      	adds	r2, r4, #1
100054cc:	4692      	mov	sl, r2
100054ce:	222b      	movs	r2, #43	; 0x2b
100054d0:	9907      	ldr	r1, [sp, #28]
100054d2:	550a      	strb	r2, [r1, r4]
100054d4:	465a      	mov	r2, fp
100054d6:	9208      	str	r2, [sp, #32]
100054d8:	2b00      	cmp	r3, #0
100054da:	d117      	bne.n	1000550c <_ftoa+0x20c>
100054dc:	9b23      	ldr	r3, [sp, #140]	; 0x8c
100054de:	459a      	cmp	sl, r3
100054e0:	d300      	bcc.n	100054e4 <_ftoa+0x1e4>
100054e2:	e24f      	b.n	10005984 <_ftoa+0x684>
100054e4:	445b      	add	r3, fp
100054e6:	001c      	movs	r4, r3
100054e8:	4653      	mov	r3, sl
100054ea:	1ae4      	subs	r4, r4, r3
100054ec:	46b8      	mov	r8, r7
100054ee:	0037      	movs	r7, r6
100054f0:	002e      	movs	r6, r5
100054f2:	0025      	movs	r5, r4
100054f4:	1c54      	adds	r4, r2, #1
100054f6:	4643      	mov	r3, r8
100054f8:	0039      	movs	r1, r7
100054fa:	2020      	movs	r0, #32
100054fc:	47b0      	blx	r6
100054fe:	0022      	movs	r2, r4
10005500:	42ac      	cmp	r4, r5
10005502:	d1f7      	bne.n	100054f4 <_ftoa+0x1f4>
10005504:	0035      	movs	r5, r6
10005506:	003e      	movs	r6, r7
10005508:	4647      	mov	r7, r8
1000550a:	9408      	str	r4, [sp, #32]
1000550c:	4653      	mov	r3, sl
1000550e:	1e5c      	subs	r4, r3, #1
10005510:	9b07      	ldr	r3, [sp, #28]
10005512:	aa08      	add	r2, sp, #32
10005514:	469c      	mov	ip, r3
10005516:	2317      	movs	r3, #23
10005518:	4464      	add	r4, ip
1000551a:	4694      	mov	ip, r2
1000551c:	4463      	add	r3, ip
1000551e:	46b9      	mov	r9, r7
10005520:	4698      	mov	r8, r3
10005522:	0037      	movs	r7, r6
10005524:	002e      	movs	r6, r5
10005526:	9a08      	ldr	r2, [sp, #32]
10005528:	1c55      	adds	r5, r2, #1
1000552a:	7820      	ldrb	r0, [r4, #0]
1000552c:	464b      	mov	r3, r9
1000552e:	0039      	movs	r1, r7
10005530:	3c01      	subs	r4, #1
10005532:	47b0      	blx	r6
10005534:	002a      	movs	r2, r5
10005536:	45a0      	cmp	r8, r4
10005538:	d1f6      	bne.n	10005528 <_ftoa+0x228>
1000553a:	9b08      	ldr	r3, [sp, #32]
1000553c:	0035      	movs	r5, r6
1000553e:	4453      	add	r3, sl
10005540:	001c      	movs	r4, r3
10005542:	9b24      	ldr	r3, [sp, #144]	; 0x90
10005544:	003e      	movs	r6, r7
10005546:	079b      	lsls	r3, r3, #30
10005548:	d512      	bpl.n	10005570 <_ftoa+0x270>
1000554a:	465b      	mov	r3, fp
1000554c:	9a23      	ldr	r2, [sp, #140]	; 0x8c
1000554e:	1ae3      	subs	r3, r4, r3
10005550:	429a      	cmp	r2, r3
10005552:	d90d      	bls.n	10005570 <_ftoa+0x270>
10005554:	0013      	movs	r3, r2
10005556:	46c8      	mov	r8, r9
10005558:	0022      	movs	r2, r4
1000555a:	465f      	mov	r7, fp
1000555c:	4699      	mov	r9, r3
1000555e:	3401      	adds	r4, #1
10005560:	4643      	mov	r3, r8
10005562:	0031      	movs	r1, r6
10005564:	2020      	movs	r0, #32
10005566:	47a8      	blx	r5
10005568:	0022      	movs	r2, r4
1000556a:	1be3      	subs	r3, r4, r7
1000556c:	4599      	cmp	r9, r3
1000556e:	d8f6      	bhi.n	1000555e <_ftoa+0x25e>
10005570:	0020      	movs	r0, r4
10005572:	b017      	add	sp, #92	; 0x5c
10005574:	bc3c      	pop	{r2, r3, r4, r5}
10005576:	4690      	mov	r8, r2
10005578:	4699      	mov	r9, r3
1000557a:	46a2      	mov	sl, r4
1000557c:	46ab      	mov	fp, r5
1000557e:	bdf0      	pop	{r4, r5, r6, r7, pc}
10005580:	9b24      	ldr	r3, [sp, #144]	; 0x90
10005582:	075b      	lsls	r3, r3, #29
10005584:	d500      	bpl.n	10005588 <_ftoa+0x288>
10005586:	e0a4      	b.n	100056d2 <_ftoa+0x3d2>
10005588:	4b2c      	ldr	r3, [pc, #176]	; (1000563c <_ftoa+0x33c>)
1000558a:	469a      	mov	sl, r3
1000558c:	2303      	movs	r3, #3
1000558e:	9307      	str	r3, [sp, #28]
10005590:	9b24      	ldr	r3, [sp, #144]	; 0x90
10005592:	46d8      	mov	r8, fp
10005594:	079b      	lsls	r3, r3, #30
10005596:	d119      	bne.n	100055cc <_ftoa+0x2cc>
10005598:	9b07      	ldr	r3, [sp, #28]
1000559a:	9923      	ldr	r1, [sp, #140]	; 0x8c
1000559c:	428b      	cmp	r3, r1
1000559e:	d300      	bcc.n	100055a2 <_ftoa+0x2a2>
100055a0:	e1ec      	b.n	1000597c <_ftoa+0x67c>
100055a2:	465a      	mov	r2, fp
100055a4:	1a9b      	subs	r3, r3, r2
100055a6:	4698      	mov	r8, r3
100055a8:	9b23      	ldr	r3, [sp, #140]	; 0x8c
100055aa:	4699      	mov	r9, r3
100055ac:	003b      	movs	r3, r7
100055ae:	0031      	movs	r1, r6
100055b0:	2020      	movs	r0, #32
100055b2:	1c54      	adds	r4, r2, #1
100055b4:	47a8      	blx	r5
100055b6:	4643      	mov	r3, r8
100055b8:	191b      	adds	r3, r3, r4
100055ba:	0022      	movs	r2, r4
100055bc:	4599      	cmp	r9, r3
100055be:	d8f5      	bhi.n	100055ac <_ftoa+0x2ac>
100055c0:	9b23      	ldr	r3, [sp, #140]	; 0x8c
100055c2:	445b      	add	r3, fp
100055c4:	001c      	movs	r4, r3
100055c6:	9b07      	ldr	r3, [sp, #28]
100055c8:	1ae3      	subs	r3, r4, r3
100055ca:	4698      	mov	r8, r3
100055cc:	46b1      	mov	r9, r6
100055ce:	4642      	mov	r2, r8
100055d0:	4656      	mov	r6, sl
100055d2:	46ba      	mov	sl, r7
100055d4:	002f      	movs	r7, r5
100055d6:	9c07      	ldr	r4, [sp, #28]
100055d8:	3c01      	subs	r4, #1
100055da:	1c55      	adds	r5, r2, #1
100055dc:	5d30      	ldrb	r0, [r6, r4]
100055de:	4653      	mov	r3, sl
100055e0:	4649      	mov	r1, r9
100055e2:	47b8      	blx	r7
100055e4:	002a      	movs	r2, r5
100055e6:	2c00      	cmp	r4, #0
100055e8:	d1f6      	bne.n	100055d8 <_ftoa+0x2d8>
100055ea:	9b07      	ldr	r3, [sp, #28]
100055ec:	003d      	movs	r5, r7
100055ee:	4443      	add	r3, r8
100055f0:	001c      	movs	r4, r3
100055f2:	9b24      	ldr	r3, [sp, #144]	; 0x90
100055f4:	464e      	mov	r6, r9
100055f6:	079b      	lsls	r3, r3, #30
100055f8:	d5ba      	bpl.n	10005570 <_ftoa+0x270>
100055fa:	465b      	mov	r3, fp
100055fc:	9a23      	ldr	r2, [sp, #140]	; 0x8c
100055fe:	1ae3      	subs	r3, r4, r3
10005600:	429a      	cmp	r2, r3
10005602:	d9b5      	bls.n	10005570 <_ftoa+0x270>
10005604:	0013      	movs	r3, r2
10005606:	46d0      	mov	r8, sl
10005608:	0022      	movs	r2, r4
1000560a:	465f      	mov	r7, fp
1000560c:	4699      	mov	r9, r3
1000560e:	3401      	adds	r4, #1
10005610:	4643      	mov	r3, r8
10005612:	0031      	movs	r1, r6
10005614:	2020      	movs	r0, #32
10005616:	47a8      	blx	r5
10005618:	0022      	movs	r2, r4
1000561a:	1be3      	subs	r3, r4, r7
1000561c:	4599      	cmp	r9, r3
1000561e:	d8f6      	bhi.n	1000560e <_ftoa+0x30e>
10005620:	e7a6      	b.n	10005570 <_ftoa+0x270>
10005622:	46c0      	nop			; (mov r8, r8)
10005624:	ffefffff 	.word	0xffefffff
10005628:	7fefffff 	.word	0x7fefffff
1000562c:	41cdcd65 	.word	0x41cdcd65
10005630:	c1cdcd65 	.word	0xc1cdcd65
10005634:	412e8480 	.word	0x412e8480
10005638:	3fe00000 	.word	0x3fe00000
1000563c:	1000b834 	.word	0x1000b834
10005640:	9b24      	ldr	r3, [sp, #144]	; 0x90
10005642:	46d8      	mov	r8, fp
10005644:	079b      	lsls	r3, r3, #30
10005646:	d116      	bne.n	10005676 <_ftoa+0x376>
10005648:	9b23      	ldr	r3, [sp, #140]	; 0x8c
1000564a:	2b04      	cmp	r3, #4
1000564c:	d800      	bhi.n	10005650 <_ftoa+0x350>
1000564e:	e197      	b.n	10005980 <_ftoa+0x680>
10005650:	1f1c      	subs	r4, r3, #4
10005652:	445c      	add	r4, fp
10005654:	46b8      	mov	r8, r7
10005656:	465a      	mov	r2, fp
10005658:	0037      	movs	r7, r6
1000565a:	002e      	movs	r6, r5
1000565c:	0025      	movs	r5, r4
1000565e:	1c54      	adds	r4, r2, #1
10005660:	4643      	mov	r3, r8
10005662:	0039      	movs	r1, r7
10005664:	2020      	movs	r0, #32
10005666:	47b0      	blx	r6
10005668:	0022      	movs	r2, r4
1000566a:	42ac      	cmp	r4, r5
1000566c:	d1f7      	bne.n	1000565e <_ftoa+0x35e>
1000566e:	0035      	movs	r5, r6
10005670:	003e      	movs	r6, r7
10005672:	4647      	mov	r7, r8
10005674:	46a0      	mov	r8, r4
10005676:	4bce      	ldr	r3, [pc, #824]	; (100059b0 <_ftoa+0x6b0>)
10005678:	46b9      	mov	r9, r7
1000567a:	4642      	mov	r2, r8
1000567c:	0037      	movs	r7, r6
1000567e:	2404      	movs	r4, #4
10005680:	469a      	mov	sl, r3
10005682:	002e      	movs	r6, r5
10005684:	4653      	mov	r3, sl
10005686:	3c01      	subs	r4, #1
10005688:	1c55      	adds	r5, r2, #1
1000568a:	5d18      	ldrb	r0, [r3, r4]
1000568c:	0039      	movs	r1, r7
1000568e:	464b      	mov	r3, r9
10005690:	47b0      	blx	r6
10005692:	002a      	movs	r2, r5
10005694:	2c00      	cmp	r4, #0
10005696:	d1f5      	bne.n	10005684 <_ftoa+0x384>
10005698:	4644      	mov	r4, r8
1000569a:	9b24      	ldr	r3, [sp, #144]	; 0x90
1000569c:	0035      	movs	r5, r6
1000569e:	3404      	adds	r4, #4
100056a0:	003e      	movs	r6, r7
100056a2:	079b      	lsls	r3, r3, #30
100056a4:	d400      	bmi.n	100056a8 <_ftoa+0x3a8>
100056a6:	e763      	b.n	10005570 <_ftoa+0x270>
100056a8:	465b      	mov	r3, fp
100056aa:	9a23      	ldr	r2, [sp, #140]	; 0x8c
100056ac:	1ae3      	subs	r3, r4, r3
100056ae:	429a      	cmp	r2, r3
100056b0:	d800      	bhi.n	100056b4 <_ftoa+0x3b4>
100056b2:	e75d      	b.n	10005570 <_ftoa+0x270>
100056b4:	0013      	movs	r3, r2
100056b6:	46c8      	mov	r8, r9
100056b8:	0022      	movs	r2, r4
100056ba:	465f      	mov	r7, fp
100056bc:	4699      	mov	r9, r3
100056be:	3401      	adds	r4, #1
100056c0:	4643      	mov	r3, r8
100056c2:	0031      	movs	r1, r6
100056c4:	2020      	movs	r0, #32
100056c6:	47a8      	blx	r5
100056c8:	0022      	movs	r2, r4
100056ca:	1be3      	subs	r3, r4, r7
100056cc:	4599      	cmp	r9, r3
100056ce:	d8f6      	bhi.n	100056be <_ftoa+0x3be>
100056d0:	e74e      	b.n	10005570 <_ftoa+0x270>
100056d2:	4bb8      	ldr	r3, [pc, #736]	; (100059b4 <_ftoa+0x6b4>)
100056d4:	469a      	mov	sl, r3
100056d6:	2304      	movs	r3, #4
100056d8:	9307      	str	r3, [sp, #28]
100056da:	e759      	b.n	10005590 <_ftoa+0x290>
100056dc:	9b24      	ldr	r3, [sp, #144]	; 0x90
100056de:	465a      	mov	r2, fp
100056e0:	9304      	str	r3, [sp, #16]
100056e2:	9b23      	ldr	r3, [sp, #140]	; 0x8c
100056e4:	0031      	movs	r1, r6
100056e6:	9303      	str	r3, [sp, #12]
100056e8:	9b22      	ldr	r3, [sp, #136]	; 0x88
100056ea:	0028      	movs	r0, r5
100056ec:	9302      	str	r3, [sp, #8]
100056ee:	9b20      	ldr	r3, [sp, #128]	; 0x80
100056f0:	9c21      	ldr	r4, [sp, #132]	; 0x84
100056f2:	9300      	str	r3, [sp, #0]
100056f4:	9401      	str	r4, [sp, #4]
100056f6:	003b      	movs	r3, r7
100056f8:	f000 f964 	bl	100059c4 <_etoa.part.1>
100056fc:	0004      	movs	r4, r0
100056fe:	e737      	b.n	10005570 <_ftoa+0x270>
10005700:	464b      	mov	r3, r9
10005702:	2b20      	cmp	r3, #32
10005704:	d035      	beq.n	10005772 <_ftoa+0x472>
10005706:	1e63      	subs	r3, r4, #1
10005708:	4698      	mov	r8, r3
1000570a:	464b      	mov	r3, r9
1000570c:	210a      	movs	r1, #10
1000570e:	4650      	mov	r0, sl
10005710:	1c5c      	adds	r4, r3, #1
10005712:	f001 f95f 	bl	100069d4 <__wrap___aeabi_uidiv>
10005716:	464a      	mov	r2, r9
10005718:	9b07      	ldr	r3, [sp, #28]
1000571a:	3130      	adds	r1, #48	; 0x30
1000571c:	5499      	strb	r1, [r3, r2]
1000571e:	4650      	mov	r0, sl
10005720:	210a      	movs	r1, #10
10005722:	f001 f957 	bl	100069d4 <__wrap___aeabi_uidiv>
10005726:	4681      	mov	r9, r0
10005728:	2800      	cmp	r0, #0
1000572a:	d100      	bne.n	1000572e <_ftoa+0x42e>
1000572c:	e0b6      	b.n	1000589c <_ftoa+0x59c>
1000572e:	9b07      	ldr	r3, [sp, #28]
10005730:	469a      	mov	sl, r3
10005732:	003b      	movs	r3, r7
10005734:	44a2      	add	sl, r4
10005736:	4647      	mov	r7, r8
10005738:	46a8      	mov	r8, r5
1000573a:	0025      	movs	r5, r4
1000573c:	464c      	mov	r4, r9
1000573e:	46b1      	mov	r9, r6
10005740:	4656      	mov	r6, sl
10005742:	469a      	mov	sl, r3
10005744:	e010      	b.n	10005768 <_ftoa+0x468>
10005746:	0020      	movs	r0, r4
10005748:	210a      	movs	r1, #10
1000574a:	f001 f943 	bl	100069d4 <__wrap___aeabi_uidiv>
1000574e:	3130      	adds	r1, #48	; 0x30
10005750:	7031      	strb	r1, [r6, #0]
10005752:	0020      	movs	r0, r4
10005754:	210a      	movs	r1, #10
10005756:	f001 f93d 	bl	100069d4 <__wrap___aeabi_uidiv>
1000575a:	3f01      	subs	r7, #1
1000575c:	3501      	adds	r5, #1
1000575e:	0004      	movs	r4, r0
10005760:	3601      	adds	r6, #1
10005762:	2800      	cmp	r0, #0
10005764:	d100      	bne.n	10005768 <_ftoa+0x468>
10005766:	e094      	b.n	10005892 <_ftoa+0x592>
10005768:	2d20      	cmp	r5, #32
1000576a:	d1ec      	bne.n	10005746 <_ftoa+0x446>
1000576c:	4645      	mov	r5, r8
1000576e:	464e      	mov	r6, r9
10005770:	4657      	mov	r7, sl
10005772:	2303      	movs	r3, #3
10005774:	9a24      	ldr	r2, [sp, #144]	; 0x90
10005776:	4013      	ands	r3, r2
10005778:	2b01      	cmp	r3, #1
1000577a:	d035      	beq.n	100057e8 <_ftoa+0x4e8>
1000577c:	2220      	movs	r2, #32
1000577e:	4692      	mov	sl, r2
10005780:	e6a8      	b.n	100054d4 <_ftoa+0x1d4>
10005782:	2200      	movs	r2, #0
10005784:	980a      	ldr	r0, [sp, #40]	; 0x28
10005786:	990b      	ldr	r1, [sp, #44]	; 0x2c
10005788:	4b8b      	ldr	r3, [pc, #556]	; (100059b8 <_ftoa+0x6b8>)
1000578a:	f001 fbc5 	bl	10006f18 <__wrap___aeabi_dcmplt>
1000578e:	2800      	cmp	r0, #0
10005790:	d000      	beq.n	10005794 <_ftoa+0x494>
10005792:	e63d      	b.n	10005410 <_ftoa+0x110>
10005794:	4653      	mov	r3, sl
10005796:	2b00      	cmp	r3, #0
10005798:	d002      	beq.n	100057a0 <_ftoa+0x4a0>
1000579a:	07db      	lsls	r3, r3, #31
1000579c:	d400      	bmi.n	100057a0 <_ftoa+0x4a0>
1000579e:	e637      	b.n	10005410 <_ftoa+0x110>
100057a0:	2301      	movs	r3, #1
100057a2:	469c      	mov	ip, r3
100057a4:	44e2      	add	sl, ip
100057a6:	e633      	b.n	10005410 <_ftoa+0x110>
100057a8:	9b22      	ldr	r3, [sp, #136]	; 0x88
100057aa:	2b09      	cmp	r3, #9
100057ac:	d800      	bhi.n	100057b0 <_ftoa+0x4b0>
100057ae:	e0f2      	b.n	10005996 <_ftoa+0x696>
100057b0:	2201      	movs	r2, #1
100057b2:	2330      	movs	r3, #48	; 0x30
100057b4:	4691      	mov	r9, r2
100057b6:	a80e      	add	r0, sp, #56	; 0x38
100057b8:	7003      	strb	r3, [r0, #0]
100057ba:	9b22      	ldr	r3, [sp, #136]	; 0x88
100057bc:	9007      	str	r0, [sp, #28]
100057be:	1e5c      	subs	r4, r3, #1
100057c0:	322f      	adds	r2, #47	; 0x2f
100057c2:	3b09      	subs	r3, #9
100057c4:	4649      	mov	r1, r9
100057c6:	e004      	b.n	100057d2 <_ftoa+0x4d2>
100057c8:	5442      	strb	r2, [r0, r1]
100057ca:	3101      	adds	r1, #1
100057cc:	3c01      	subs	r4, #1
100057ce:	2920      	cmp	r1, #32
100057d0:	d001      	beq.n	100057d6 <_ftoa+0x4d6>
100057d2:	428b      	cmp	r3, r1
100057d4:	d1f8      	bne.n	100057c8 <_ftoa+0x4c8>
100057d6:	4b79      	ldr	r3, [pc, #484]	; (100059bc <_ftoa+0x6bc>)
100057d8:	00e2      	lsls	r2, r4, #3
100057da:	189b      	adds	r3, r3, r2
100057dc:	681a      	ldr	r2, [r3, #0]
100057de:	685b      	ldr	r3, [r3, #4]
100057e0:	4689      	mov	r9, r1
100057e2:	9208      	str	r2, [sp, #32]
100057e4:	9309      	str	r3, [sp, #36]	; 0x24
100057e6:	e5de      	b.n	100053a6 <_ftoa+0xa6>
100057e8:	2420      	movs	r4, #32
100057ea:	9b23      	ldr	r3, [sp, #140]	; 0x8c
100057ec:	2b00      	cmp	r3, #0
100057ee:	d047      	beq.n	10005880 <_ftoa+0x580>
100057f0:	9b0d      	ldr	r3, [sp, #52]	; 0x34
100057f2:	2b00      	cmp	r3, #0
100057f4:	d103      	bne.n	100057fe <_ftoa+0x4fe>
100057f6:	9a24      	ldr	r2, [sp, #144]	; 0x90
100057f8:	330c      	adds	r3, #12
100057fa:	4213      	tst	r3, r2
100057fc:	d002      	beq.n	10005804 <_ftoa+0x504>
100057fe:	9b23      	ldr	r3, [sp, #140]	; 0x8c
10005800:	3b01      	subs	r3, #1
10005802:	9323      	str	r3, [sp, #140]	; 0x8c
10005804:	9b23      	ldr	r3, [sp, #140]	; 0x8c
10005806:	42a3      	cmp	r3, r4
10005808:	d93a      	bls.n	10005880 <_ftoa+0x580>
1000580a:	2c20      	cmp	r4, #32
1000580c:	d100      	bne.n	10005810 <_ftoa+0x510>
1000580e:	e0bd      	b.n	1000598c <_ftoa+0x68c>
10005810:	2230      	movs	r2, #48	; 0x30
10005812:	0021      	movs	r1, r4
10005814:	0018      	movs	r0, r3
10005816:	9b07      	ldr	r3, [sp, #28]
10005818:	191b      	adds	r3, r3, r4
1000581a:	3101      	adds	r1, #1
1000581c:	701a      	strb	r2, [r3, #0]
1000581e:	4288      	cmp	r0, r1
10005820:	d02d      	beq.n	1000587e <_ftoa+0x57e>
10005822:	3301      	adds	r3, #1
10005824:	2920      	cmp	r1, #32
10005826:	d1f8      	bne.n	1000581a <_ftoa+0x51a>
10005828:	465b      	mov	r3, fp
1000582a:	468a      	mov	sl, r1
1000582c:	9308      	str	r3, [sp, #32]
1000582e:	e66d      	b.n	1000550c <_ftoa+0x20c>
10005830:	9a20      	ldr	r2, [sp, #128]	; 0x80
10005832:	9b21      	ldr	r3, [sp, #132]	; 0x84
10005834:	2000      	movs	r0, #0
10005836:	2100      	movs	r1, #0
10005838:	f001 fb11 	bl	10006e5e <__wrap___aeabi_dsub>
1000583c:	2301      	movs	r3, #1
1000583e:	9020      	str	r0, [sp, #128]	; 0x80
10005840:	9121      	str	r1, [sp, #132]	; 0x84
10005842:	930d      	str	r3, [sp, #52]	; 0x34
10005844:	e5a1      	b.n	1000538a <_ftoa+0x8a>
10005846:	1c62      	adds	r2, r4, #1
10005848:	4692      	mov	sl, r2
1000584a:	222d      	movs	r2, #45	; 0x2d
1000584c:	9907      	ldr	r1, [sp, #28]
1000584e:	550a      	strb	r2, [r1, r4]
10005850:	e640      	b.n	100054d4 <_ftoa+0x1d4>
10005852:	2200      	movs	r2, #0
10005854:	9808      	ldr	r0, [sp, #32]
10005856:	9909      	ldr	r1, [sp, #36]	; 0x24
10005858:	4b57      	ldr	r3, [pc, #348]	; (100059b8 <_ftoa+0x6b8>)
1000585a:	f001 fb6b 	bl	10006f34 <__wrap___aeabi_dcmpgt>
1000585e:	2800      	cmp	r0, #0
10005860:	d000      	beq.n	10005864 <_ftoa+0x564>
10005862:	e5eb      	b.n	1000543c <_ftoa+0x13c>
10005864:	2301      	movs	r3, #1
10005866:	46a4      	mov	ip, r4
10005868:	4023      	ands	r3, r4
1000586a:	449c      	add	ip, r3
1000586c:	4663      	mov	r3, ip
1000586e:	930c      	str	r3, [sp, #48]	; 0x30
10005870:	e5e4      	b.n	1000543c <_ftoa+0x13c>
10005872:	4643      	mov	r3, r8
10005874:	3301      	adds	r3, #1
10005876:	930c      	str	r3, [sp, #48]	; 0x30
10005878:	2300      	movs	r3, #0
1000587a:	469a      	mov	sl, r3
1000587c:	e5c8      	b.n	10005410 <_ftoa+0x110>
1000587e:	9c23      	ldr	r4, [sp, #140]	; 0x8c
10005880:	2301      	movs	r3, #1
10005882:	2c20      	cmp	r4, #32
10005884:	d000      	beq.n	10005888 <_ftoa+0x588>
10005886:	e618      	b.n	100054ba <_ftoa+0x1ba>
10005888:	331f      	adds	r3, #31
1000588a:	469a      	mov	sl, r3
1000588c:	465b      	mov	r3, fp
1000588e:	9308      	str	r3, [sp, #32]
10005890:	e63c      	b.n	1000550c <_ftoa+0x20c>
10005892:	002c      	movs	r4, r5
10005894:	464e      	mov	r6, r9
10005896:	4645      	mov	r5, r8
10005898:	46b8      	mov	r8, r7
1000589a:	4657      	mov	r7, sl
1000589c:	2c20      	cmp	r4, #32
1000589e:	d100      	bne.n	100058a2 <_ftoa+0x5a2>
100058a0:	e767      	b.n	10005772 <_ftoa+0x472>
100058a2:	4642      	mov	r2, r8
100058a4:	4640      	mov	r0, r8
100058a6:	9b07      	ldr	r3, [sp, #28]
100058a8:	1911      	adds	r1, r2, r4
100058aa:	191b      	adds	r3, r3, r4
100058ac:	2230      	movs	r2, #48	; 0x30
100058ae:	2800      	cmp	r0, #0
100058b0:	d007      	beq.n	100058c2 <_ftoa+0x5c2>
100058b2:	3401      	adds	r4, #1
100058b4:	701a      	strb	r2, [r3, #0]
100058b6:	2c20      	cmp	r4, #32
100058b8:	d100      	bne.n	100058bc <_ftoa+0x5bc>
100058ba:	e75a      	b.n	10005772 <_ftoa+0x472>
100058bc:	3301      	adds	r3, #1
100058be:	428c      	cmp	r4, r1
100058c0:	d1f7      	bne.n	100058b2 <_ftoa+0x5b2>
100058c2:	1c63      	adds	r3, r4, #1
100058c4:	4699      	mov	r9, r3
100058c6:	232e      	movs	r3, #46	; 0x2e
100058c8:	9a07      	ldr	r2, [sp, #28]
100058ca:	5513      	strb	r3, [r2, r4]
100058cc:	e5b6      	b.n	1000543c <_ftoa+0x13c>
100058ce:	4645      	mov	r5, r8
100058d0:	464e      	mov	r6, r9
100058d2:	e74e      	b.n	10005772 <_ftoa+0x472>
100058d4:	9b24      	ldr	r3, [sp, #144]	; 0x90
100058d6:	46d8      	mov	r8, fp
100058d8:	079b      	lsls	r3, r3, #30
100058da:	d115      	bne.n	10005908 <_ftoa+0x608>
100058dc:	9b23      	ldr	r3, [sp, #140]	; 0x8c
100058de:	2b03      	cmp	r3, #3
100058e0:	d952      	bls.n	10005988 <_ftoa+0x688>
100058e2:	1edc      	subs	r4, r3, #3
100058e4:	445c      	add	r4, fp
100058e6:	46b8      	mov	r8, r7
100058e8:	465a      	mov	r2, fp
100058ea:	0037      	movs	r7, r6
100058ec:	002e      	movs	r6, r5
100058ee:	0025      	movs	r5, r4
100058f0:	1c54      	adds	r4, r2, #1
100058f2:	4643      	mov	r3, r8
100058f4:	0039      	movs	r1, r7
100058f6:	2020      	movs	r0, #32
100058f8:	47b0      	blx	r6
100058fa:	0022      	movs	r2, r4
100058fc:	42ac      	cmp	r4, r5
100058fe:	d1f7      	bne.n	100058f0 <_ftoa+0x5f0>
10005900:	0035      	movs	r5, r6
10005902:	003e      	movs	r6, r7
10005904:	4647      	mov	r7, r8
10005906:	46a0      	mov	r8, r4
10005908:	4b2d      	ldr	r3, [pc, #180]	; (100059c0 <_ftoa+0x6c0>)
1000590a:	46b9      	mov	r9, r7
1000590c:	4642      	mov	r2, r8
1000590e:	0037      	movs	r7, r6
10005910:	2403      	movs	r4, #3
10005912:	469a      	mov	sl, r3
10005914:	002e      	movs	r6, r5
10005916:	4653      	mov	r3, sl
10005918:	3c01      	subs	r4, #1
1000591a:	1c55      	adds	r5, r2, #1
1000591c:	5d18      	ldrb	r0, [r3, r4]
1000591e:	0039      	movs	r1, r7
10005920:	464b      	mov	r3, r9
10005922:	47b0      	blx	r6
10005924:	002a      	movs	r2, r5
10005926:	2c00      	cmp	r4, #0
10005928:	d1f5      	bne.n	10005916 <_ftoa+0x616>
1000592a:	4644      	mov	r4, r8
1000592c:	9b24      	ldr	r3, [sp, #144]	; 0x90
1000592e:	0035      	movs	r5, r6
10005930:	3403      	adds	r4, #3
10005932:	003e      	movs	r6, r7
10005934:	079b      	lsls	r3, r3, #30
10005936:	d400      	bmi.n	1000593a <_ftoa+0x63a>
10005938:	e61a      	b.n	10005570 <_ftoa+0x270>
1000593a:	465b      	mov	r3, fp
1000593c:	9a23      	ldr	r2, [sp, #140]	; 0x8c
1000593e:	1ae3      	subs	r3, r4, r3
10005940:	4293      	cmp	r3, r2
10005942:	d300      	bcc.n	10005946 <_ftoa+0x646>
10005944:	e614      	b.n	10005570 <_ftoa+0x270>
10005946:	0013      	movs	r3, r2
10005948:	46c8      	mov	r8, r9
1000594a:	0022      	movs	r2, r4
1000594c:	465f      	mov	r7, fp
1000594e:	4699      	mov	r9, r3
10005950:	3401      	adds	r4, #1
10005952:	4643      	mov	r3, r8
10005954:	0031      	movs	r1, r6
10005956:	2020      	movs	r0, #32
10005958:	47a8      	blx	r5
1000595a:	0022      	movs	r2, r4
1000595c:	1be3      	subs	r3, r4, r7
1000595e:	4599      	cmp	r9, r3
10005960:	d8f6      	bhi.n	10005950 <_ftoa+0x650>
10005962:	e605      	b.n	10005570 <_ftoa+0x270>
10005964:	9a24      	ldr	r2, [sp, #144]	; 0x90
10005966:	46a2      	mov	sl, r4
10005968:	0712      	lsls	r2, r2, #28
1000596a:	d400      	bmi.n	1000596e <_ftoa+0x66e>
1000596c:	e5b2      	b.n	100054d4 <_ftoa+0x1d4>
1000596e:	2201      	movs	r2, #1
10005970:	4694      	mov	ip, r2
10005972:	9907      	ldr	r1, [sp, #28]
10005974:	321f      	adds	r2, #31
10005976:	44e2      	add	sl, ip
10005978:	550a      	strb	r2, [r1, r4]
1000597a:	e5ab      	b.n	100054d4 <_ftoa+0x1d4>
1000597c:	46d8      	mov	r8, fp
1000597e:	e625      	b.n	100055cc <_ftoa+0x2cc>
10005980:	46d8      	mov	r8, fp
10005982:	e678      	b.n	10005676 <_ftoa+0x376>
10005984:	9208      	str	r2, [sp, #32]
10005986:	e5c1      	b.n	1000550c <_ftoa+0x20c>
10005988:	46d8      	mov	r8, fp
1000598a:	e7bd      	b.n	10005908 <_ftoa+0x608>
1000598c:	2320      	movs	r3, #32
1000598e:	469a      	mov	sl, r3
10005990:	465b      	mov	r3, fp
10005992:	9308      	str	r3, [sp, #32]
10005994:	e5ba      	b.n	1000550c <_ftoa+0x20c>
10005996:	00da      	lsls	r2, r3, #3
10005998:	4b08      	ldr	r3, [pc, #32]	; (100059bc <_ftoa+0x6bc>)
1000599a:	189b      	adds	r3, r3, r2
1000599c:	685c      	ldr	r4, [r3, #4]
1000599e:	681b      	ldr	r3, [r3, #0]
100059a0:	9308      	str	r3, [sp, #32]
100059a2:	9409      	str	r4, [sp, #36]	; 0x24
100059a4:	2300      	movs	r3, #0
100059a6:	4699      	mov	r9, r3
100059a8:	ab0e      	add	r3, sp, #56	; 0x38
100059aa:	9c22      	ldr	r4, [sp, #136]	; 0x88
100059ac:	9307      	str	r3, [sp, #28]
100059ae:	e4fa      	b.n	100053a6 <_ftoa+0xa6>
100059b0:	1000b83c 	.word	0x1000b83c
100059b4:	1000b82c 	.word	0x1000b82c
100059b8:	3fe00000 	.word	0x3fe00000
100059bc:	1000b848 	.word	0x1000b848
100059c0:	1000b838 	.word	0x1000b838

100059c4 <_etoa.part.1>:
100059c4:	b5f0      	push	{r4, r5, r6, r7, lr}
100059c6:	4657      	mov	r7, sl
100059c8:	4645      	mov	r5, r8
100059ca:	46de      	mov	lr, fp
100059cc:	464e      	mov	r6, r9
100059ce:	b5e0      	push	{r5, r6, r7, lr}
100059d0:	b09b      	sub	sp, #108	; 0x6c
100059d2:	930a      	str	r3, [sp, #40]	; 0x28
100059d4:	9b24      	ldr	r3, [sp, #144]	; 0x90
100059d6:	4682      	mov	sl, r0
100059d8:	001c      	movs	r4, r3
100059da:	930b      	str	r3, [sp, #44]	; 0x2c
100059dc:	9b25      	ldr	r3, [sp, #148]	; 0x94
100059de:	9109      	str	r1, [sp, #36]	; 0x24
100059e0:	001d      	movs	r5, r3
100059e2:	920d      	str	r2, [sp, #52]	; 0x34
100059e4:	930c      	str	r3, [sp, #48]	; 0x30
100059e6:	2200      	movs	r2, #0
100059e8:	2300      	movs	r3, #0
100059ea:	0020      	movs	r0, r4
100059ec:	0029      	movs	r1, r5
100059ee:	f001 fa93 	bl	10006f18 <__wrap___aeabi_dcmplt>
100059f2:	2800      	cmp	r0, #0
100059f4:	d000      	beq.n	100059f8 <_etoa.part.1+0x34>
100059f6:	e188      	b.n	10005d0a <_etoa.part.1+0x346>
100059f8:	9a0b      	ldr	r2, [sp, #44]	; 0x2c
100059fa:	9b0c      	ldr	r3, [sp, #48]	; 0x30
100059fc:	4690      	mov	r8, r2
100059fe:	469b      	mov	fp, r3
10005a00:	2380      	movs	r3, #128	; 0x80
10005a02:	9a28      	ldr	r2, [sp, #160]	; 0xa0
10005a04:	00db      	lsls	r3, r3, #3
10005a06:	401a      	ands	r2, r3
10005a08:	9211      	str	r2, [sp, #68]	; 0x44
10005a0a:	d101      	bne.n	10005a10 <_etoa.part.1+0x4c>
10005a0c:	2306      	movs	r3, #6
10005a0e:	9326      	str	r3, [sp, #152]	; 0x98
10005a10:	465b      	mov	r3, fp
10005a12:	0058      	lsls	r0, r3, #1
10005a14:	4bc1      	ldr	r3, [pc, #772]	; (10005d1c <_etoa.part.1+0x358>)
10005a16:	0d40      	lsrs	r0, r0, #21
10005a18:	469c      	mov	ip, r3
10005a1a:	4460      	add	r0, ip
10005a1c:	f001 faa2 	bl	10006f64 <__wrap___aeabi_i2d>
10005a20:	4abf      	ldr	r2, [pc, #764]	; (10005d20 <_etoa.part.1+0x35c>)
10005a22:	4bc0      	ldr	r3, [pc, #768]	; (10005d24 <_etoa.part.1+0x360>)
10005a24:	f001 fa36 	bl	10006e94 <__wrap___aeabi_dmul>
10005a28:	4abf      	ldr	r2, [pc, #764]	; (10005d28 <_etoa.part.1+0x364>)
10005a2a:	4bc0      	ldr	r3, [pc, #768]	; (10005d2c <_etoa.part.1+0x368>)
10005a2c:	f001 fa20 	bl	10006e70 <__wrap___aeabi_dadd>
10005a30:	465b      	mov	r3, fp
10005a32:	4abf      	ldr	r2, [pc, #764]	; (10005d30 <_etoa.part.1+0x36c>)
10005a34:	031b      	lsls	r3, r3, #12
10005a36:	0b1b      	lsrs	r3, r3, #12
10005a38:	431a      	orrs	r2, r3
10005a3a:	0004      	movs	r4, r0
10005a3c:	000d      	movs	r5, r1
10005a3e:	4bbd      	ldr	r3, [pc, #756]	; (10005d34 <_etoa.part.1+0x370>)
10005a40:	0011      	movs	r1, r2
10005a42:	4640      	mov	r0, r8
10005a44:	2200      	movs	r2, #0
10005a46:	f001 fa0a 	bl	10006e5e <__wrap___aeabi_dsub>
10005a4a:	4abb      	ldr	r2, [pc, #748]	; (10005d38 <_etoa.part.1+0x374>)
10005a4c:	4bbb      	ldr	r3, [pc, #748]	; (10005d3c <_etoa.part.1+0x378>)
10005a4e:	f001 fa21 	bl	10006e94 <__wrap___aeabi_dmul>
10005a52:	0002      	movs	r2, r0
10005a54:	000b      	movs	r3, r1
10005a56:	0020      	movs	r0, r4
10005a58:	0029      	movs	r1, r5
10005a5a:	f001 fa09 	bl	10006e70 <__wrap___aeabi_dadd>
10005a5e:	f001 fa99 	bl	10006f94 <__wrap___aeabi_d2iz>
10005a62:	4681      	mov	r9, r0
10005a64:	f001 fa7e 	bl	10006f64 <__wrap___aeabi_i2d>
10005a68:	4ab5      	ldr	r2, [pc, #724]	; (10005d40 <_etoa.part.1+0x37c>)
10005a6a:	4bb6      	ldr	r3, [pc, #728]	; (10005d44 <_etoa.part.1+0x380>)
10005a6c:	0004      	movs	r4, r0
10005a6e:	000d      	movs	r5, r1
10005a70:	f001 fa10 	bl	10006e94 <__wrap___aeabi_dmul>
10005a74:	2200      	movs	r2, #0
10005a76:	4bb4      	ldr	r3, [pc, #720]	; (10005d48 <_etoa.part.1+0x384>)
10005a78:	f001 f9fa 	bl	10006e70 <__wrap___aeabi_dadd>
10005a7c:	f001 fa8a 	bl	10006f94 <__wrap___aeabi_d2iz>
10005a80:	4ab2      	ldr	r2, [pc, #712]	; (10005d4c <_etoa.part.1+0x388>)
10005a82:	0006      	movs	r6, r0
10005a84:	4bb2      	ldr	r3, [pc, #712]	; (10005d50 <_etoa.part.1+0x38c>)
10005a86:	0020      	movs	r0, r4
10005a88:	0029      	movs	r1, r5
10005a8a:	f001 fa03 	bl	10006e94 <__wrap___aeabi_dmul>
10005a8e:	0004      	movs	r4, r0
10005a90:	0030      	movs	r0, r6
10005a92:	000d      	movs	r5, r1
10005a94:	9610      	str	r6, [sp, #64]	; 0x40
10005a96:	f001 fa65 	bl	10006f64 <__wrap___aeabi_i2d>
10005a9a:	4aae      	ldr	r2, [pc, #696]	; (10005d54 <_etoa.part.1+0x390>)
10005a9c:	4bae      	ldr	r3, [pc, #696]	; (10005d58 <_etoa.part.1+0x394>)
10005a9e:	f001 f9f9 	bl	10006e94 <__wrap___aeabi_dmul>
10005aa2:	0002      	movs	r2, r0
10005aa4:	000b      	movs	r3, r1
10005aa6:	0020      	movs	r0, r4
10005aa8:	0029      	movs	r1, r5
10005aaa:	f001 f9d8 	bl	10006e5e <__wrap___aeabi_dsub>
10005aae:	0002      	movs	r2, r0
10005ab0:	000b      	movs	r3, r1
10005ab2:	0006      	movs	r6, r0
10005ab4:	000f      	movs	r7, r1
10005ab6:	f001 f9ed 	bl	10006e94 <__wrap___aeabi_dmul>
10005aba:	0032      	movs	r2, r6
10005abc:	0004      	movs	r4, r0
10005abe:	000d      	movs	r5, r1
10005ac0:	003b      	movs	r3, r7
10005ac2:	0030      	movs	r0, r6
10005ac4:	0039      	movs	r1, r7
10005ac6:	f001 f9d3 	bl	10006e70 <__wrap___aeabi_dadd>
10005aca:	2200      	movs	r2, #0
10005acc:	900e      	str	r0, [sp, #56]	; 0x38
10005ace:	910f      	str	r1, [sp, #60]	; 0x3c
10005ad0:	4ba2      	ldr	r3, [pc, #648]	; (10005d5c <_etoa.part.1+0x398>)
10005ad2:	0020      	movs	r0, r4
10005ad4:	0029      	movs	r1, r5
10005ad6:	f001 f9d4 	bl	10006e82 <__wrap___aeabi_ddiv>
10005ada:	2200      	movs	r2, #0
10005adc:	4ba0      	ldr	r3, [pc, #640]	; (10005d60 <_etoa.part.1+0x39c>)
10005ade:	f001 f9c7 	bl	10006e70 <__wrap___aeabi_dadd>
10005ae2:	0002      	movs	r2, r0
10005ae4:	000b      	movs	r3, r1
10005ae6:	0020      	movs	r0, r4
10005ae8:	0029      	movs	r1, r5
10005aea:	f001 f9ca 	bl	10006e82 <__wrap___aeabi_ddiv>
10005aee:	2200      	movs	r2, #0
10005af0:	4b9c      	ldr	r3, [pc, #624]	; (10005d64 <_etoa.part.1+0x3a0>)
10005af2:	f001 f9bd 	bl	10006e70 <__wrap___aeabi_dadd>
10005af6:	0002      	movs	r2, r0
10005af8:	000b      	movs	r3, r1
10005afa:	0020      	movs	r0, r4
10005afc:	0029      	movs	r1, r5
10005afe:	f001 f9c0 	bl	10006e82 <__wrap___aeabi_ddiv>
10005b02:	000d      	movs	r5, r1
10005b04:	2180      	movs	r1, #128	; 0x80
10005b06:	0032      	movs	r2, r6
10005b08:	0004      	movs	r4, r0
10005b0a:	003b      	movs	r3, r7
10005b0c:	2000      	movs	r0, #0
10005b0e:	05c9      	lsls	r1, r1, #23
10005b10:	f001 f9a5 	bl	10006e5e <__wrap___aeabi_dsub>
10005b14:	0002      	movs	r2, r0
10005b16:	000b      	movs	r3, r1
10005b18:	0020      	movs	r0, r4
10005b1a:	0029      	movs	r1, r5
10005b1c:	f001 f9a8 	bl	10006e70 <__wrap___aeabi_dadd>
10005b20:	0002      	movs	r2, r0
10005b22:	000b      	movs	r3, r1
10005b24:	980e      	ldr	r0, [sp, #56]	; 0x38
10005b26:	990f      	ldr	r1, [sp, #60]	; 0x3c
10005b28:	f001 f9ab 	bl	10006e82 <__wrap___aeabi_ddiv>
10005b2c:	2200      	movs	r2, #0
10005b2e:	4b80      	ldr	r3, [pc, #512]	; (10005d30 <_etoa.part.1+0x36c>)
10005b30:	f001 f99e 	bl	10006e70 <__wrap___aeabi_dadd>
10005b34:	4a8c      	ldr	r2, [pc, #560]	; (10005d68 <_etoa.part.1+0x3a4>)
10005b36:	9b10      	ldr	r3, [sp, #64]	; 0x40
10005b38:	4694      	mov	ip, r2
10005b3a:	4463      	add	r3, ip
10005b3c:	2200      	movs	r2, #0
10005b3e:	051b      	lsls	r3, r3, #20
10005b40:	f001 f9a8 	bl	10006e94 <__wrap___aeabi_dmul>
10005b44:	0005      	movs	r5, r0
10005b46:	000e      	movs	r6, r1
10005b48:	0002      	movs	r2, r0
10005b4a:	000b      	movs	r3, r1
10005b4c:	4640      	mov	r0, r8
10005b4e:	4659      	mov	r1, fp
10005b50:	f001 f9e2 	bl	10006f18 <__wrap___aeabi_dcmplt>
10005b54:	2800      	cmp	r0, #0
10005b56:	d00b      	beq.n	10005b70 <_etoa.part.1+0x1ac>
10005b58:	2301      	movs	r3, #1
10005b5a:	425b      	negs	r3, r3
10005b5c:	469c      	mov	ip, r3
10005b5e:	0028      	movs	r0, r5
10005b60:	0031      	movs	r1, r6
10005b62:	2200      	movs	r2, #0
10005b64:	4b7e      	ldr	r3, [pc, #504]	; (10005d60 <_etoa.part.1+0x39c>)
10005b66:	44e1      	add	r9, ip
10005b68:	f001 f98b 	bl	10006e82 <__wrap___aeabi_ddiv>
10005b6c:	0005      	movs	r5, r0
10005b6e:	000e      	movs	r6, r1
10005b70:	464b      	mov	r3, r9
10005b72:	27c6      	movs	r7, #198	; 0xc6
10005b74:	3363      	adds	r3, #99	; 0x63
10005b76:	429f      	cmp	r7, r3
10005b78:	41bf      	sbcs	r7, r7
10005b7a:	9b28      	ldr	r3, [sp, #160]	; 0xa0
10005b7c:	427f      	negs	r7, r7
10005b7e:	3704      	adds	r7, #4
10005b80:	051b      	lsls	r3, r3, #20
10005b82:	d522      	bpl.n	10005bca <_etoa.part.1+0x206>
10005b84:	4a79      	ldr	r2, [pc, #484]	; (10005d6c <_etoa.part.1+0x3a8>)
10005b86:	4b7a      	ldr	r3, [pc, #488]	; (10005d70 <_etoa.part.1+0x3ac>)
10005b88:	4640      	mov	r0, r8
10005b8a:	4659      	mov	r1, fp
10005b8c:	f001 f9ca 	bl	10006f24 <__wrap___aeabi_dcmpge>
10005b90:	2800      	cmp	r0, #0
10005b92:	d100      	bne.n	10005b96 <_etoa.part.1+0x1d2>
10005b94:	e0a9      	b.n	10005cea <_etoa.part.1+0x326>
10005b96:	2200      	movs	r2, #0
10005b98:	4b76      	ldr	r3, [pc, #472]	; (10005d74 <_etoa.part.1+0x3b0>)
10005b9a:	4640      	mov	r0, r8
10005b9c:	4659      	mov	r1, fp
10005b9e:	f001 f9bb 	bl	10006f18 <__wrap___aeabi_dcmplt>
10005ba2:	2800      	cmp	r0, #0
10005ba4:	d100      	bne.n	10005ba8 <_etoa.part.1+0x1e4>
10005ba6:	e0a0      	b.n	10005cea <_etoa.part.1+0x326>
10005ba8:	9a26      	ldr	r2, [sp, #152]	; 0x98
10005baa:	2300      	movs	r3, #0
10005bac:	4591      	cmp	r9, r2
10005bae:	da03      	bge.n	10005bb8 <_etoa.part.1+0x1f4>
10005bb0:	0013      	movs	r3, r2
10005bb2:	464a      	mov	r2, r9
10005bb4:	1a9b      	subs	r3, r3, r2
10005bb6:	3b01      	subs	r3, #1
10005bb8:	9326      	str	r3, [sp, #152]	; 0x98
10005bba:	2380      	movs	r3, #128	; 0x80
10005bbc:	9a28      	ldr	r2, [sp, #160]	; 0xa0
10005bbe:	00db      	lsls	r3, r3, #3
10005bc0:	431a      	orrs	r2, r3
10005bc2:	2300      	movs	r3, #0
10005bc4:	2700      	movs	r7, #0
10005bc6:	4699      	mov	r9, r3
10005bc8:	9228      	str	r2, [sp, #160]	; 0xa0
10005bca:	9b27      	ldr	r3, [sp, #156]	; 0x9c
10005bcc:	2400      	movs	r4, #0
10005bce:	429f      	cmp	r7, r3
10005bd0:	d200      	bcs.n	10005bd4 <_etoa.part.1+0x210>
10005bd2:	1bdc      	subs	r4, r3, r7
10005bd4:	2302      	movs	r3, #2
10005bd6:	9a28      	ldr	r2, [sp, #160]	; 0xa0
10005bd8:	401a      	ands	r2, r3
10005bda:	9210      	str	r2, [sp, #64]	; 0x40
10005bdc:	d003      	beq.n	10005be6 <_etoa.part.1+0x222>
10005bde:	427b      	negs	r3, r7
10005be0:	417b      	adcs	r3, r7
10005be2:	425b      	negs	r3, r3
10005be4:	401c      	ands	r4, r3
10005be6:	464b      	mov	r3, r9
10005be8:	2b00      	cmp	r3, #0
10005bea:	d007      	beq.n	10005bfc <_etoa.part.1+0x238>
10005bec:	4640      	mov	r0, r8
10005bee:	4659      	mov	r1, fp
10005bf0:	002a      	movs	r2, r5
10005bf2:	0033      	movs	r3, r6
10005bf4:	f001 f945 	bl	10006e82 <__wrap___aeabi_ddiv>
10005bf8:	4680      	mov	r8, r0
10005bfa:	468b      	mov	fp, r1
10005bfc:	2200      	movs	r2, #0
10005bfe:	2300      	movs	r3, #0
10005c00:	980b      	ldr	r0, [sp, #44]	; 0x2c
10005c02:	990c      	ldr	r1, [sp, #48]	; 0x30
10005c04:	f001 f988 	bl	10006f18 <__wrap___aeabi_dcmplt>
10005c08:	2800      	cmp	r0, #0
10005c0a:	d000      	beq.n	10005c0e <_etoa.part.1+0x24a>
10005c0c:	e078      	b.n	10005d00 <_etoa.part.1+0x33c>
10005c0e:	9a28      	ldr	r2, [sp, #160]	; 0xa0
10005c10:	4b59      	ldr	r3, [pc, #356]	; (10005d78 <_etoa.part.1+0x3b4>)
10005c12:	9403      	str	r4, [sp, #12]
10005c14:	4013      	ands	r3, r2
10005c16:	9304      	str	r3, [sp, #16]
10005c18:	9b26      	ldr	r3, [sp, #152]	; 0x98
10005c1a:	4642      	mov	r2, r8
10005c1c:	9302      	str	r3, [sp, #8]
10005c1e:	465b      	mov	r3, fp
10005c20:	9909      	ldr	r1, [sp, #36]	; 0x24
10005c22:	9200      	str	r2, [sp, #0]
10005c24:	9301      	str	r3, [sp, #4]
10005c26:	4650      	mov	r0, sl
10005c28:	9b0a      	ldr	r3, [sp, #40]	; 0x28
10005c2a:	9a0d      	ldr	r2, [sp, #52]	; 0x34
10005c2c:	f7ff fb68 	bl	10005300 <_ftoa>
10005c30:	0004      	movs	r4, r0
10005c32:	2f00      	cmp	r7, #0
10005c34:	d04f      	beq.n	10005cd6 <_etoa.part.1+0x312>
10005c36:	9b28      	ldr	r3, [sp, #160]	; 0xa0
10005c38:	2065      	movs	r0, #101	; 0x65
10005c3a:	069b      	lsls	r3, r3, #26
10005c3c:	d453      	bmi.n	10005ce6 <_etoa.part.1+0x322>
10005c3e:	1c63      	adds	r3, r4, #1
10005c40:	0022      	movs	r2, r4
10005c42:	469b      	mov	fp, r3
10005c44:	9909      	ldr	r1, [sp, #36]	; 0x24
10005c46:	9b0a      	ldr	r3, [sp, #40]	; 0x28
10005c48:	47d0      	blx	sl
10005c4a:	464b      	mov	r3, r9
10005c4c:	17da      	asrs	r2, r3, #31
10005c4e:	189d      	adds	r5, r3, r2
10005c50:	0fdb      	lsrs	r3, r3, #31
10005c52:	4699      	mov	r9, r3
10005c54:	1e7b      	subs	r3, r7, #1
10005c56:	4055      	eors	r5, r2
10005c58:	4698      	mov	r8, r3
10005c5a:	2400      	movs	r4, #0
10005c5c:	af12      	add	r7, sp, #72	; 0x48
10005c5e:	e002      	b.n	10005c66 <_etoa.part.1+0x2a2>
10005c60:	0034      	movs	r4, r6
10005c62:	2e20      	cmp	r6, #32
10005c64:	d00d      	beq.n	10005c82 <_etoa.part.1+0x2be>
10005c66:	0028      	movs	r0, r5
10005c68:	210a      	movs	r1, #10
10005c6a:	f000 feb3 	bl	100069d4 <__wrap___aeabi_uidiv>
10005c6e:	1c66      	adds	r6, r4, #1
10005c70:	3130      	adds	r1, #48	; 0x30
10005c72:	193c      	adds	r4, r7, r4
10005c74:	7021      	strb	r1, [r4, #0]
10005c76:	0028      	movs	r0, r5
10005c78:	210a      	movs	r1, #10
10005c7a:	f000 feab 	bl	100069d4 <__wrap___aeabi_uidiv>
10005c7e:	1e05      	subs	r5, r0, #0
10005c80:	d1ee      	bne.n	10005c60 <_etoa.part.1+0x29c>
10005c82:	2305      	movs	r3, #5
10005c84:	9306      	str	r3, [sp, #24]
10005c86:	4643      	mov	r3, r8
10005c88:	9305      	str	r3, [sp, #20]
10005c8a:	2300      	movs	r3, #0
10005c8c:	9304      	str	r3, [sp, #16]
10005c8e:	330a      	adds	r3, #10
10005c90:	9303      	str	r3, [sp, #12]
10005c92:	464b      	mov	r3, r9
10005c94:	9601      	str	r6, [sp, #4]
10005c96:	9e09      	ldr	r6, [sp, #36]	; 0x24
10005c98:	9302      	str	r3, [sp, #8]
10005c9a:	9b0a      	ldr	r3, [sp, #40]	; 0x28
10005c9c:	9700      	str	r7, [sp, #0]
10005c9e:	465a      	mov	r2, fp
10005ca0:	0031      	movs	r1, r6
10005ca2:	4650      	mov	r0, sl
10005ca4:	4698      	mov	r8, r3
10005ca6:	f7ff fa21 	bl	100050ec <_ntoa_format>
10005caa:	9b10      	ldr	r3, [sp, #64]	; 0x40
10005cac:	0004      	movs	r4, r0
10005cae:	2b00      	cmp	r3, #0
10005cb0:	d011      	beq.n	10005cd6 <_etoa.part.1+0x312>
10005cb2:	9f0d      	ldr	r7, [sp, #52]	; 0x34
10005cb4:	9a27      	ldr	r2, [sp, #156]	; 0x9c
10005cb6:	1bc3      	subs	r3, r0, r7
10005cb8:	429a      	cmp	r2, r3
10005cba:	d90c      	bls.n	10005cd6 <_etoa.part.1+0x312>
10005cbc:	9b27      	ldr	r3, [sp, #156]	; 0x9c
10005cbe:	0002      	movs	r2, r0
10005cc0:	4655      	mov	r5, sl
10005cc2:	4699      	mov	r9, r3
10005cc4:	3401      	adds	r4, #1
10005cc6:	4643      	mov	r3, r8
10005cc8:	0031      	movs	r1, r6
10005cca:	2020      	movs	r0, #32
10005ccc:	47a8      	blx	r5
10005cce:	0022      	movs	r2, r4
10005cd0:	1be3      	subs	r3, r4, r7
10005cd2:	4599      	cmp	r9, r3
10005cd4:	d8f6      	bhi.n	10005cc4 <_etoa.part.1+0x300>
10005cd6:	0020      	movs	r0, r4
10005cd8:	b01b      	add	sp, #108	; 0x6c
10005cda:	bc3c      	pop	{r2, r3, r4, r5}
10005cdc:	4690      	mov	r8, r2
10005cde:	4699      	mov	r9, r3
10005ce0:	46a2      	mov	sl, r4
10005ce2:	46ab      	mov	fp, r5
10005ce4:	bdf0      	pop	{r4, r5, r6, r7, pc}
10005ce6:	3820      	subs	r0, #32
10005ce8:	e7a9      	b.n	10005c3e <_etoa.part.1+0x27a>
10005cea:	9b26      	ldr	r3, [sp, #152]	; 0x98
10005cec:	2b00      	cmp	r3, #0
10005cee:	d100      	bne.n	10005cf2 <_etoa.part.1+0x32e>
10005cf0:	e76b      	b.n	10005bca <_etoa.part.1+0x206>
10005cf2:	9b11      	ldr	r3, [sp, #68]	; 0x44
10005cf4:	1e5a      	subs	r2, r3, #1
10005cf6:	4193      	sbcs	r3, r2
10005cf8:	9a26      	ldr	r2, [sp, #152]	; 0x98
10005cfa:	1ad3      	subs	r3, r2, r3
10005cfc:	9326      	str	r3, [sp, #152]	; 0x98
10005cfe:	e764      	b.n	10005bca <_etoa.part.1+0x206>
10005d00:	2180      	movs	r1, #128	; 0x80
10005d02:	0609      	lsls	r1, r1, #24
10005d04:	4459      	add	r1, fp
10005d06:	468b      	mov	fp, r1
10005d08:	e781      	b.n	10005c0e <_etoa.part.1+0x24a>
10005d0a:	2280      	movs	r2, #128	; 0x80
10005d0c:	0612      	lsls	r2, r2, #24
10005d0e:	4694      	mov	ip, r2
10005d10:	9b0c      	ldr	r3, [sp, #48]	; 0x30
10005d12:	46a0      	mov	r8, r4
10005d14:	4463      	add	r3, ip
10005d16:	469b      	mov	fp, r3
10005d18:	e672      	b.n	10005a00 <_etoa.part.1+0x3c>
10005d1a:	46c0      	nop			; (mov r8, r8)
10005d1c:	fffffc01 	.word	0xfffffc01
10005d20:	509f79fb 	.word	0x509f79fb
10005d24:	3fd34413 	.word	0x3fd34413
10005d28:	8b60c8b3 	.word	0x8b60c8b3
10005d2c:	3fc68a28 	.word	0x3fc68a28
10005d30:	3ff00000 	.word	0x3ff00000
10005d34:	3ff80000 	.word	0x3ff80000
10005d38:	636f4361 	.word	0x636f4361
10005d3c:	3fd287a7 	.word	0x3fd287a7
10005d40:	0979a371 	.word	0x0979a371
10005d44:	400a934f 	.word	0x400a934f
10005d48:	3fe00000 	.word	0x3fe00000
10005d4c:	bbb55516 	.word	0xbbb55516
10005d50:	40026bb1 	.word	0x40026bb1
10005d54:	fefa39ef 	.word	0xfefa39ef
10005d58:	3fe62e42 	.word	0x3fe62e42
10005d5c:	402c0000 	.word	0x402c0000
10005d60:	40240000 	.word	0x40240000
10005d64:	40180000 	.word	0x40180000
10005d68:	000003ff 	.word	0x000003ff
10005d6c:	eb1c432d 	.word	0xeb1c432d
10005d70:	3f1a36e2 	.word	0x3f1a36e2
10005d74:	412e8480 	.word	0x412e8480
10005d78:	fffff7ff 	.word	0xfffff7ff

10005d7c <_vsnprintf>:
10005d7c:	b5f0      	push	{r4, r5, r6, r7, lr}
10005d7e:	4645      	mov	r5, r8
10005d80:	46de      	mov	lr, fp
10005d82:	4657      	mov	r7, sl
10005d84:	464e      	mov	r6, r9
10005d86:	b5e0      	push	{r5, r6, r7, lr}
10005d88:	b0a1      	sub	sp, #132	; 0x84
10005d8a:	001d      	movs	r5, r3
10005d8c:	9b2a      	ldr	r3, [sp, #168]	; 0xa8
10005d8e:	9209      	str	r2, [sp, #36]	; 0x24
10005d90:	930b      	str	r3, [sp, #44]	; 0x2c
10005d92:	4aa2      	ldr	r2, [pc, #648]	; (1000601c <_vsnprintf+0x2a0>)
10005d94:	4ba2      	ldr	r3, [pc, #648]	; (10006020 <_vsnprintf+0x2a4>)
10005d96:	900a      	str	r0, [sp, #40]	; 0x28
10005d98:	9108      	str	r1, [sp, #32]
10005d9a:	601a      	str	r2, [r3, #0]
10005d9c:	2900      	cmp	r1, #0
10005d9e:	d100      	bne.n	10005da2 <_vsnprintf+0x26>
10005da0:	e387      	b.n	100064b2 <_vsnprintf+0x736>
10005da2:	2300      	movs	r3, #0
10005da4:	469b      	mov	fp, r3
10005da6:	4b9f      	ldr	r3, [pc, #636]	; (10006024 <_vsnprintf+0x2a8>)
10005da8:	002c      	movs	r4, r5
10005daa:	469a      	mov	sl, r3
10005dac:	465d      	mov	r5, fp
10005dae:	7820      	ldrb	r0, [r4, #0]
10005db0:	2800      	cmp	r0, #0
10005db2:	d00c      	beq.n	10005dce <_vsnprintf+0x52>
10005db4:	2825      	cmp	r0, #37	; 0x25
10005db6:	d01d      	beq.n	10005df4 <_vsnprintf+0x78>
10005db8:	1c6e      	adds	r6, r5, #1
10005dba:	002a      	movs	r2, r5
10005dbc:	9b09      	ldr	r3, [sp, #36]	; 0x24
10005dbe:	9d0a      	ldr	r5, [sp, #40]	; 0x28
10005dc0:	9908      	ldr	r1, [sp, #32]
10005dc2:	3401      	adds	r4, #1
10005dc4:	47a8      	blx	r5
10005dc6:	7820      	ldrb	r0, [r4, #0]
10005dc8:	0035      	movs	r5, r6
10005dca:	2800      	cmp	r0, #0
10005dcc:	d1f2      	bne.n	10005db4 <_vsnprintf+0x38>
10005dce:	9909      	ldr	r1, [sp, #36]	; 0x24
10005dd0:	46ab      	mov	fp, r5
10005dd2:	002a      	movs	r2, r5
10005dd4:	428d      	cmp	r5, r1
10005dd6:	d300      	bcc.n	10005dda <_vsnprintf+0x5e>
10005dd8:	1e4a      	subs	r2, r1, #1
10005dda:	9b09      	ldr	r3, [sp, #36]	; 0x24
10005ddc:	9908      	ldr	r1, [sp, #32]
10005dde:	2000      	movs	r0, #0
10005de0:	9c0a      	ldr	r4, [sp, #40]	; 0x28
10005de2:	47a0      	blx	r4
10005de4:	4658      	mov	r0, fp
10005de6:	b021      	add	sp, #132	; 0x84
10005de8:	bc3c      	pop	{r2, r3, r4, r5}
10005dea:	4690      	mov	r8, r2
10005dec:	4699      	mov	r9, r3
10005dee:	46a2      	mov	sl, r4
10005df0:	46ab      	mov	fp, r5
10005df2:	bdf0      	pop	{r4, r5, r6, r7, pc}
10005df4:	2310      	movs	r3, #16
10005df6:	1c62      	adds	r2, r4, #1
10005df8:	4698      	mov	r8, r3
10005dfa:	3b08      	subs	r3, #8
10005dfc:	469c      	mov	ip, r3
10005dfe:	7816      	ldrb	r6, [r2, #0]
10005e00:	3b04      	subs	r3, #4
10005e02:	4699      	mov	r9, r3
10005e04:	3b02      	subs	r3, #2
10005e06:	469b      	mov	fp, r3
10005e08:	0033      	movs	r3, r6
10005e0a:	3b20      	subs	r3, #32
10005e0c:	b2db      	uxtb	r3, r3
10005e0e:	2700      	movs	r7, #0
10005e10:	2101      	movs	r1, #1
10005e12:	0014      	movs	r4, r2
10005e14:	2b10      	cmp	r3, #16
10005e16:	d80c      	bhi.n	10005e32 <_vsnprintf+0xb6>
10005e18:	4650      	mov	r0, sl
10005e1a:	009b      	lsls	r3, r3, #2
10005e1c:	58c3      	ldr	r3, [r0, r3]
10005e1e:	469f      	mov	pc, r3
10005e20:	430f      	orrs	r7, r1
10005e22:	3201      	adds	r2, #1
10005e24:	7816      	ldrb	r6, [r2, #0]
10005e26:	0014      	movs	r4, r2
10005e28:	0033      	movs	r3, r6
10005e2a:	3b20      	subs	r3, #32
10005e2c:	b2db      	uxtb	r3, r3
10005e2e:	2b10      	cmp	r3, #16
10005e30:	d9f2      	bls.n	10005e18 <_vsnprintf+0x9c>
10005e32:	0033      	movs	r3, r6
10005e34:	3b30      	subs	r3, #48	; 0x30
10005e36:	2b09      	cmp	r3, #9
10005e38:	d800      	bhi.n	10005e3c <_vsnprintf+0xc0>
10005e3a:	e1b5      	b.n	100061a8 <_vsnprintf+0x42c>
10005e3c:	2300      	movs	r3, #0
10005e3e:	4698      	mov	r8, r3
10005e40:	2e2a      	cmp	r6, #42	; 0x2a
10005e42:	d100      	bne.n	10005e46 <_vsnprintf+0xca>
10005e44:	e2a6      	b.n	10006394 <_vsnprintf+0x618>
10005e46:	2300      	movs	r3, #0
10005e48:	469b      	mov	fp, r3
10005e4a:	2e2e      	cmp	r6, #46	; 0x2e
10005e4c:	d100      	bne.n	10005e50 <_vsnprintf+0xd4>
10005e4e:	e1c0      	b.n	100061d2 <_vsnprintf+0x456>
10005e50:	0033      	movs	r3, r6
10005e52:	3b68      	subs	r3, #104	; 0x68
10005e54:	b2db      	uxtb	r3, r3
10005e56:	2b12      	cmp	r3, #18
10005e58:	d818      	bhi.n	10005e8c <_vsnprintf+0x110>
10005e5a:	4a73      	ldr	r2, [pc, #460]	; (10006028 <_vsnprintf+0x2ac>)
10005e5c:	009b      	lsls	r3, r3, #2
10005e5e:	58d3      	ldr	r3, [r2, r3]
10005e60:	469f      	mov	pc, r3
10005e62:	4663      	mov	r3, ip
10005e64:	3201      	adds	r2, #1
10005e66:	431f      	orrs	r7, r3
10005e68:	e7dc      	b.n	10005e24 <_vsnprintf+0xa8>
10005e6a:	4643      	mov	r3, r8
10005e6c:	3201      	adds	r2, #1
10005e6e:	431f      	orrs	r7, r3
10005e70:	e7d8      	b.n	10005e24 <_vsnprintf+0xa8>
10005e72:	464b      	mov	r3, r9
10005e74:	3201      	adds	r2, #1
10005e76:	431f      	orrs	r7, r3
10005e78:	e7d4      	b.n	10005e24 <_vsnprintf+0xa8>
10005e7a:	465b      	mov	r3, fp
10005e7c:	3201      	adds	r2, #1
10005e7e:	431f      	orrs	r7, r3
10005e80:	e7d0      	b.n	10005e24 <_vsnprintf+0xa8>
10005e82:	2380      	movs	r3, #128	; 0x80
10005e84:	005b      	lsls	r3, r3, #1
10005e86:	7866      	ldrb	r6, [r4, #1]
10005e88:	431f      	orrs	r7, r3
10005e8a:	3401      	adds	r4, #1
10005e8c:	0033      	movs	r3, r6
10005e8e:	3b25      	subs	r3, #37	; 0x25
10005e90:	b2db      	uxtb	r3, r3
10005e92:	2b53      	cmp	r3, #83	; 0x53
10005e94:	d80f      	bhi.n	10005eb6 <_vsnprintf+0x13a>
10005e96:	4a65      	ldr	r2, [pc, #404]	; (1000602c <_vsnprintf+0x2b0>)
10005e98:	009b      	lsls	r3, r3, #2
10005e9a:	58d3      	ldr	r3, [r2, r3]
10005e9c:	469f      	mov	pc, r3
10005e9e:	7866      	ldrb	r6, [r4, #1]
10005ea0:	2e68      	cmp	r6, #104	; 0x68
10005ea2:	d100      	bne.n	10005ea6 <_vsnprintf+0x12a>
10005ea4:	e288      	b.n	100063b8 <_vsnprintf+0x63c>
10005ea6:	2380      	movs	r3, #128	; 0x80
10005ea8:	431f      	orrs	r7, r3
10005eaa:	0033      	movs	r3, r6
10005eac:	3b25      	subs	r3, #37	; 0x25
10005eae:	b2db      	uxtb	r3, r3
10005eb0:	3401      	adds	r4, #1
10005eb2:	2b53      	cmp	r3, #83	; 0x53
10005eb4:	d9ef      	bls.n	10005e96 <_vsnprintf+0x11a>
10005eb6:	1c6f      	adds	r7, r5, #1
10005eb8:	002a      	movs	r2, r5
10005eba:	9b09      	ldr	r3, [sp, #36]	; 0x24
10005ebc:	9d0a      	ldr	r5, [sp, #40]	; 0x28
10005ebe:	9908      	ldr	r1, [sp, #32]
10005ec0:	0030      	movs	r0, r6
10005ec2:	47a8      	blx	r5
10005ec4:	3401      	adds	r4, #1
10005ec6:	003d      	movs	r5, r7
10005ec8:	e771      	b.n	10005dae <_vsnprintf+0x32>
10005eca:	7866      	ldrb	r6, [r4, #1]
10005ecc:	2e6c      	cmp	r6, #108	; 0x6c
10005ece:	d100      	bne.n	10005ed2 <_vsnprintf+0x156>
10005ed0:	e26c      	b.n	100063ac <_vsnprintf+0x630>
10005ed2:	2380      	movs	r3, #128	; 0x80
10005ed4:	005b      	lsls	r3, r3, #1
10005ed6:	431f      	orrs	r7, r3
10005ed8:	3401      	adds	r4, #1
10005eda:	e7d7      	b.n	10005e8c <_vsnprintf+0x110>
10005edc:	2380      	movs	r3, #128	; 0x80
10005ede:	009b      	lsls	r3, r3, #2
10005ee0:	7866      	ldrb	r6, [r4, #1]
10005ee2:	431f      	orrs	r7, r3
10005ee4:	3401      	adds	r4, #1
10005ee6:	e7d1      	b.n	10005e8c <_vsnprintf+0x110>
10005ee8:	9b0b      	ldr	r3, [sp, #44]	; 0x2c
10005eea:	1d1a      	adds	r2, r3, #4
10005eec:	681b      	ldr	r3, [r3, #0]
10005eee:	920e      	str	r2, [sp, #56]	; 0x38
10005ef0:	930b      	str	r3, [sp, #44]	; 0x2c
10005ef2:	465b      	mov	r3, fp
10005ef4:	2b00      	cmp	r3, #0
10005ef6:	d100      	bne.n	10005efa <_vsnprintf+0x17e>
10005ef8:	e22b      	b.n	10006352 <_vsnprintf+0x5d6>
10005efa:	9a0b      	ldr	r2, [sp, #44]	; 0x2c
10005efc:	7810      	ldrb	r0, [r2, #0]
10005efe:	0016      	movs	r6, r2
10005f00:	2800      	cmp	r0, #0
10005f02:	d104      	bne.n	10005f0e <_vsnprintf+0x192>
10005f04:	f000 fca4 	bl	10006850 <_vsnprintf+0xad4>
10005f08:	3b01      	subs	r3, #1
10005f0a:	2b00      	cmp	r3, #0
10005f0c:	d003      	beq.n	10005f16 <_vsnprintf+0x19a>
10005f0e:	3601      	adds	r6, #1
10005f10:	7832      	ldrb	r2, [r6, #0]
10005f12:	2a00      	cmp	r2, #0
10005f14:	d1f8      	bne.n	10005f08 <_vsnprintf+0x18c>
10005f16:	9b0b      	ldr	r3, [sp, #44]	; 0x2c
10005f18:	1af3      	subs	r3, r6, r3
10005f1a:	930c      	str	r3, [sp, #48]	; 0x30
10005f1c:	2380      	movs	r3, #128	; 0x80
10005f1e:	00db      	lsls	r3, r3, #3
10005f20:	403b      	ands	r3, r7
10005f22:	4699      	mov	r9, r3
10005f24:	d003      	beq.n	10005f2e <_vsnprintf+0x1b2>
10005f26:	9b0c      	ldr	r3, [sp, #48]	; 0x30
10005f28:	455b      	cmp	r3, fp
10005f2a:	d900      	bls.n	10005f2e <_vsnprintf+0x1b2>
10005f2c:	e2ab      	b.n	10006486 <_vsnprintf+0x70a>
10005f2e:	2302      	movs	r3, #2
10005f30:	403b      	ands	r3, r7
10005f32:	930f      	str	r3, [sp, #60]	; 0x3c
10005f34:	d100      	bne.n	10005f38 <_vsnprintf+0x1bc>
10005f36:	e1b3      	b.n	100062a0 <_vsnprintf+0x524>
10005f38:	2800      	cmp	r0, #0
10005f3a:	d01e      	beq.n	10005f7a <_vsnprintf+0x1fe>
10005f3c:	464b      	mov	r3, r9
10005f3e:	2b00      	cmp	r3, #0
10005f40:	d100      	bne.n	10005f44 <_vsnprintf+0x1c8>
10005f42:	e1d0      	b.n	100062e6 <_vsnprintf+0x56a>
10005f44:	465b      	mov	r3, fp
10005f46:	195f      	adds	r7, r3, r5
10005f48:	9b0b      	ldr	r3, [sp, #44]	; 0x2c
10005f4a:	46a3      	mov	fp, r4
10005f4c:	1b5e      	subs	r6, r3, r5
10005f4e:	46b1      	mov	r9, r6
10005f50:	002a      	movs	r2, r5
10005f52:	9c09      	ldr	r4, [sp, #36]	; 0x24
10005f54:	9e0a      	ldr	r6, [sp, #40]	; 0x28
10005f56:	e009      	b.n	10005f6c <_vsnprintf+0x1f0>
10005f58:	0023      	movs	r3, r4
10005f5a:	9908      	ldr	r1, [sp, #32]
10005f5c:	1c55      	adds	r5, r2, #1
10005f5e:	47b0      	blx	r6
10005f60:	464b      	mov	r3, r9
10005f62:	5d58      	ldrb	r0, [r3, r5]
10005f64:	2800      	cmp	r0, #0
10005f66:	d100      	bne.n	10005f6a <_vsnprintf+0x1ee>
10005f68:	e1ce      	b.n	10006308 <_vsnprintf+0x58c>
10005f6a:	002a      	movs	r2, r5
10005f6c:	4297      	cmp	r7, r2
10005f6e:	d1f3      	bne.n	10005f58 <_vsnprintf+0x1dc>
10005f70:	465c      	mov	r4, fp
10005f72:	003d      	movs	r5, r7
10005f74:	9b0f      	ldr	r3, [sp, #60]	; 0x3c
10005f76:	2b00      	cmp	r3, #0
10005f78:	d014      	beq.n	10005fa4 <_vsnprintf+0x228>
10005f7a:	9a0c      	ldr	r2, [sp, #48]	; 0x30
10005f7c:	4590      	cmp	r8, r2
10005f7e:	d911      	bls.n	10005fa4 <_vsnprintf+0x228>
10005f80:	4643      	mov	r3, r8
10005f82:	1958      	adds	r0, r3, r5
10005f84:	9b09      	ldr	r3, [sp, #36]	; 0x24
10005f86:	1a86      	subs	r6, r0, r2
10005f88:	4698      	mov	r8, r3
10005f8a:	002a      	movs	r2, r5
10005f8c:	46a1      	mov	r9, r4
10005f8e:	9f0a      	ldr	r7, [sp, #40]	; 0x28
10005f90:	9c08      	ldr	r4, [sp, #32]
10005f92:	3501      	adds	r5, #1
10005f94:	4643      	mov	r3, r8
10005f96:	0021      	movs	r1, r4
10005f98:	2020      	movs	r0, #32
10005f9a:	47b8      	blx	r7
10005f9c:	002a      	movs	r2, r5
10005f9e:	42b5      	cmp	r5, r6
10005fa0:	d1f7      	bne.n	10005f92 <_vsnprintf+0x216>
10005fa2:	464c      	mov	r4, r9
10005fa4:	9b0e      	ldr	r3, [sp, #56]	; 0x38
10005fa6:	3401      	adds	r4, #1
10005fa8:	930b      	str	r3, [sp, #44]	; 0x2c
10005faa:	e700      	b.n	10005dae <_vsnprintf+0x32>
10005fac:	9b0b      	ldr	r3, [sp, #44]	; 0x2c
10005fae:	1d1a      	adds	r2, r3, #4
10005fb0:	681b      	ldr	r3, [r3, #0]
10005fb2:	4690      	mov	r8, r2
10005fb4:	2b00      	cmp	r3, #0
10005fb6:	d100      	bne.n	10005fba <_vsnprintf+0x23e>
10005fb8:	e1ce      	b.n	10006358 <_vsnprintf+0x5dc>
10005fba:	2221      	movs	r2, #33	; 0x21
10005fbc:	4317      	orrs	r7, r2
10005fbe:	970b      	str	r7, [sp, #44]	; 0x2c
10005fc0:	210f      	movs	r1, #15
10005fc2:	2200      	movs	r2, #0
10005fc4:	ae18      	add	r6, sp, #96	; 0x60
10005fc6:	4689      	mov	r9, r1
10005fc8:	46a4      	mov	ip, r4
10005fca:	e002      	b.n	10005fd2 <_vsnprintf+0x256>
10005fcc:	000a      	movs	r2, r1
10005fce:	2920      	cmp	r1, #32
10005fd0:	d00c      	beq.n	10005fec <_vsnprintf+0x270>
10005fd2:	4648      	mov	r0, r9
10005fd4:	4018      	ands	r0, r3
10005fd6:	b2c4      	uxtb	r4, r0
10005fd8:	0027      	movs	r7, r4
10005fda:	1c51      	adds	r1, r2, #1
10005fdc:	3737      	adds	r7, #55	; 0x37
10005fde:	2809      	cmp	r0, #9
10005fe0:	d801      	bhi.n	10005fe6 <_vsnprintf+0x26a>
10005fe2:	3430      	adds	r4, #48	; 0x30
10005fe4:	0027      	movs	r7, r4
10005fe6:	54b7      	strb	r7, [r6, r2]
10005fe8:	091b      	lsrs	r3, r3, #4
10005fea:	d1ef      	bne.n	10005fcc <_vsnprintf+0x250>
10005fec:	4664      	mov	r4, ip
10005fee:	9b0b      	ldr	r3, [sp, #44]	; 0x2c
10005ff0:	9101      	str	r1, [sp, #4]
10005ff2:	9306      	str	r3, [sp, #24]
10005ff4:	2308      	movs	r3, #8
10005ff6:	9305      	str	r3, [sp, #20]
10005ff8:	465b      	mov	r3, fp
10005ffa:	9304      	str	r3, [sp, #16]
10005ffc:	2310      	movs	r3, #16
10005ffe:	9303      	str	r3, [sp, #12]
10006000:	2300      	movs	r3, #0
10006002:	002a      	movs	r2, r5
10006004:	9302      	str	r3, [sp, #8]
10006006:	9600      	str	r6, [sp, #0]
10006008:	9b09      	ldr	r3, [sp, #36]	; 0x24
1000600a:	9908      	ldr	r1, [sp, #32]
1000600c:	980a      	ldr	r0, [sp, #40]	; 0x28
1000600e:	f7ff f86d 	bl	100050ec <_ntoa_format>
10006012:	4643      	mov	r3, r8
10006014:	0005      	movs	r5, r0
10006016:	3401      	adds	r4, #1
10006018:	930b      	str	r3, [sp, #44]	; 0x2c
1000601a:	e6c8      	b.n	10005dae <_vsnprintf+0x32>
1000601c:	10005d7d 	.word	0x10005d7d
10006020:	20001630 	.word	0x20001630
10006024:	1000b64c 	.word	0x1000b64c
10006028:	1000b690 	.word	0x1000b690
1000602c:	1000b6dc 	.word	0x1000b6dc
10006030:	2e78      	cmp	r6, #120	; 0x78
10006032:	d100      	bne.n	10006036 <_vsnprintf+0x2ba>
10006034:	e1c5      	b.n	100063c2 <_vsnprintf+0x646>
10006036:	2e58      	cmp	r6, #88	; 0x58
10006038:	d100      	bne.n	1000603c <_vsnprintf+0x2c0>
1000603a:	e22f      	b.n	1000649c <_vsnprintf+0x720>
1000603c:	2e6f      	cmp	r6, #111	; 0x6f
1000603e:	d100      	bne.n	10006042 <_vsnprintf+0x2c6>
10006040:	e331      	b.n	100066a6 <_vsnprintf+0x92a>
10006042:	2e62      	cmp	r6, #98	; 0x62
10006044:	d100      	bne.n	10006048 <_vsnprintf+0x2cc>
10006046:	e226      	b.n	10006496 <_vsnprintf+0x71a>
10006048:	2310      	movs	r3, #16
1000604a:	003a      	movs	r2, r7
1000604c:	439a      	bics	r2, r3
1000604e:	920c      	str	r2, [sp, #48]	; 0x30
10006050:	2e69      	cmp	r6, #105	; 0x69
10006052:	d001      	beq.n	10006058 <_vsnprintf+0x2dc>
10006054:	f000 fc1e 	bl	10006894 <_vsnprintf+0xb18>
10006058:	230a      	movs	r3, #10
1000605a:	930e      	str	r3, [sp, #56]	; 0x38
1000605c:	057b      	lsls	r3, r7, #21
1000605e:	d500      	bpl.n	10006062 <_vsnprintf+0x2e6>
10006060:	e1b7      	b.n	100063d2 <_vsnprintf+0x656>
10006062:	2780      	movs	r7, #128	; 0x80
10006064:	9b0c      	ldr	r3, [sp, #48]	; 0x30
10006066:	00bf      	lsls	r7, r7, #2
10006068:	401f      	ands	r7, r3
1000606a:	d000      	beq.n	1000606e <_vsnprintf+0x2f2>
1000606c:	e2b8      	b.n	100065e0 <_vsnprintf+0x864>
1000606e:	001a      	movs	r2, r3
10006070:	2380      	movs	r3, #128	; 0x80
10006072:	005b      	lsls	r3, r3, #1
10006074:	401a      	ands	r2, r3
10006076:	4691      	mov	r9, r2
10006078:	d000      	beq.n	1000607c <_vsnprintf+0x300>
1000607a:	e36e      	b.n	1000675a <_vsnprintf+0x9de>
1000607c:	9b0c      	ldr	r3, [sp, #48]	; 0x30
1000607e:	065b      	lsls	r3, r3, #25
10006080:	d501      	bpl.n	10006086 <_vsnprintf+0x30a>
10006082:	f000 fbf1 	bl	10006868 <_vsnprintf+0xaec>
10006086:	9b0c      	ldr	r3, [sp, #48]	; 0x30
10006088:	9a0b      	ldr	r2, [sp, #44]	; 0x2c
1000608a:	061b      	lsls	r3, r3, #24
1000608c:	d400      	bmi.n	10006090 <_vsnprintf+0x314>
1000608e:	e3c1      	b.n	10006814 <_vsnprintf+0xa98>
10006090:	2100      	movs	r1, #0
10006092:	5e53      	ldrsh	r3, [r2, r1]
10006094:	3204      	adds	r2, #4
10006096:	0fd9      	lsrs	r1, r3, #31
10006098:	9114      	str	r1, [sp, #80]	; 0x50
1000609a:	920b      	str	r2, [sp, #44]	; 0x2c
1000609c:	17da      	asrs	r2, r3, #31
1000609e:	189f      	adds	r7, r3, r2
100060a0:	4057      	eors	r7, r2
100060a2:	2b00      	cmp	r3, #0
100060a4:	d109      	bne.n	100060ba <_vsnprintf+0x33e>
100060a6:	990c      	ldr	r1, [sp, #48]	; 0x30
100060a8:	3310      	adds	r3, #16
100060aa:	000a      	movs	r2, r1
100060ac:	439a      	bics	r2, r3
100060ae:	0013      	movs	r3, r2
100060b0:	000a      	movs	r2, r1
100060b2:	930c      	str	r3, [sp, #48]	; 0x30
100060b4:	0552      	lsls	r2, r2, #21
100060b6:	d500      	bpl.n	100060ba <_vsnprintf+0x33e>
100060b8:	e3de      	b.n	10006878 <_vsnprintf+0xafc>
100060ba:	9a0c      	ldr	r2, [sp, #48]	; 0x30
100060bc:	2361      	movs	r3, #97	; 0x61
100060be:	0692      	lsls	r2, r2, #26
100060c0:	d500      	bpl.n	100060c4 <_vsnprintf+0x348>
100060c2:	2341      	movs	r3, #65	; 0x41
100060c4:	b2db      	uxtb	r3, r3
100060c6:	ae18      	add	r6, sp, #96	; 0x60
100060c8:	3b0a      	subs	r3, #10
100060ca:	9416      	str	r4, [sp, #88]	; 0x58
100060cc:	930f      	str	r3, [sp, #60]	; 0x3c
100060ce:	464c      	mov	r4, r9
100060d0:	9515      	str	r5, [sp, #84]	; 0x54
100060d2:	46b1      	mov	r9, r6
100060d4:	9e0e      	ldr	r6, [sp, #56]	; 0x38
100060d6:	e00e      	b.n	100060f6 <_vsnprintf+0x37a>
100060d8:	3330      	adds	r3, #48	; 0x30
100060da:	b2db      	uxtb	r3, r3
100060dc:	464a      	mov	r2, r9
100060de:	0038      	movs	r0, r7
100060e0:	5513      	strb	r3, [r2, r4]
100060e2:	0031      	movs	r1, r6
100060e4:	f000 fc76 	bl	100069d4 <__wrap___aeabi_uidiv>
100060e8:	1e07      	subs	r7, r0, #0
100060ea:	d100      	bne.n	100060ee <_vsnprintf+0x372>
100060ec:	e1fd      	b.n	100064ea <_vsnprintf+0x76e>
100060ee:	002c      	movs	r4, r5
100060f0:	2d20      	cmp	r5, #32
100060f2:	d100      	bne.n	100060f6 <_vsnprintf+0x37a>
100060f4:	e1f9      	b.n	100064ea <_vsnprintf+0x76e>
100060f6:	0031      	movs	r1, r6
100060f8:	0038      	movs	r0, r7
100060fa:	f000 fc6b 	bl	100069d4 <__wrap___aeabi_uidiv>
100060fe:	1c65      	adds	r5, r4, #1
10006100:	b2cb      	uxtb	r3, r1
10006102:	2909      	cmp	r1, #9
10006104:	d9e8      	bls.n	100060d8 <_vsnprintf+0x35c>
10006106:	9a0f      	ldr	r2, [sp, #60]	; 0x3c
10006108:	4694      	mov	ip, r2
1000610a:	4463      	add	r3, ip
1000610c:	b2db      	uxtb	r3, r3
1000610e:	e7e5      	b.n	100060dc <_vsnprintf+0x360>
10006110:	2e46      	cmp	r6, #70	; 0x46
10006112:	d100      	bne.n	10006116 <_vsnprintf+0x39a>
10006114:	e1b4      	b.n	10006480 <_vsnprintf+0x704>
10006116:	2207      	movs	r2, #7
10006118:	9b0b      	ldr	r3, [sp, #44]	; 0x2c
1000611a:	9704      	str	r7, [sp, #16]
1000611c:	3307      	adds	r3, #7
1000611e:	4393      	bics	r3, r2
10006120:	3201      	adds	r2, #1
10006122:	4694      	mov	ip, r2
10006124:	449c      	add	ip, r3
10006126:	4662      	mov	r2, ip
10006128:	920b      	str	r2, [sp, #44]	; 0x2c
1000612a:	4642      	mov	r2, r8
1000612c:	9203      	str	r2, [sp, #12]
1000612e:	465a      	mov	r2, fp
10006130:	9202      	str	r2, [sp, #8]
10006132:	681a      	ldr	r2, [r3, #0]
10006134:	685b      	ldr	r3, [r3, #4]
10006136:	9908      	ldr	r1, [sp, #32]
10006138:	9200      	str	r2, [sp, #0]
1000613a:	9301      	str	r3, [sp, #4]
1000613c:	980a      	ldr	r0, [sp, #40]	; 0x28
1000613e:	002a      	movs	r2, r5
10006140:	9b09      	ldr	r3, [sp, #36]	; 0x24
10006142:	f7ff f8dd 	bl	10005300 <_ftoa>
10006146:	3401      	adds	r4, #1
10006148:	0005      	movs	r5, r0
1000614a:	e630      	b.n	10005dae <_vsnprintf+0x32>
1000614c:	1c6e      	adds	r6, r5, #1
1000614e:	002a      	movs	r2, r5
10006150:	9b09      	ldr	r3, [sp, #36]	; 0x24
10006152:	9d0a      	ldr	r5, [sp, #40]	; 0x28
10006154:	9908      	ldr	r1, [sp, #32]
10006156:	2025      	movs	r0, #37	; 0x25
10006158:	47a8      	blx	r5
1000615a:	3401      	adds	r4, #1
1000615c:	0035      	movs	r5, r6
1000615e:	e626      	b.n	10005dae <_vsnprintf+0x32>
10006160:	07bb      	lsls	r3, r7, #30
10006162:	d500      	bpl.n	10006166 <_vsnprintf+0x3ea>
10006164:	e0d2      	b.n	1000630c <_vsnprintf+0x590>
10006166:	4643      	mov	r3, r8
10006168:	2b01      	cmp	r3, #1
1000616a:	d800      	bhi.n	1000616e <_vsnprintf+0x3f2>
1000616c:	e388      	b.n	10006880 <_vsnprintf+0xb04>
1000616e:	9b09      	ldr	r3, [sp, #36]	; 0x24
10006170:	1e6f      	subs	r7, r5, #1
10006172:	4447      	add	r7, r8
10006174:	4698      	mov	r8, r3
10006176:	002a      	movs	r2, r5
10006178:	46a1      	mov	r9, r4
1000617a:	9d0a      	ldr	r5, [sp, #40]	; 0x28
1000617c:	9c08      	ldr	r4, [sp, #32]
1000617e:	1c56      	adds	r6, r2, #1
10006180:	4643      	mov	r3, r8
10006182:	0021      	movs	r1, r4
10006184:	2020      	movs	r0, #32
10006186:	47a8      	blx	r5
10006188:	0032      	movs	r2, r6
1000618a:	42be      	cmp	r6, r7
1000618c:	d1f7      	bne.n	1000617e <_vsnprintf+0x402>
1000618e:	464c      	mov	r4, r9
10006190:	9b0b      	ldr	r3, [sp, #44]	; 0x2c
10006192:	0032      	movs	r2, r6
10006194:	1d1f      	adds	r7, r3, #4
10006196:	7818      	ldrb	r0, [r3, #0]
10006198:	1c75      	adds	r5, r6, #1
1000619a:	9b09      	ldr	r3, [sp, #36]	; 0x24
1000619c:	9908      	ldr	r1, [sp, #32]
1000619e:	9e0a      	ldr	r6, [sp, #40]	; 0x28
100061a0:	47b0      	blx	r6
100061a2:	3401      	adds	r4, #1
100061a4:	970b      	str	r7, [sp, #44]	; 0x2c
100061a6:	e602      	b.n	10005dae <_vsnprintf+0x32>
100061a8:	2300      	movs	r3, #0
100061aa:	0032      	movs	r2, r6
100061ac:	009e      	lsls	r6, r3, #2
100061ae:	18f6      	adds	r6, r6, r3
100061b0:	3401      	adds	r4, #1
100061b2:	0076      	lsls	r6, r6, #1
100061b4:	18b6      	adds	r6, r6, r2
100061b6:	7822      	ldrb	r2, [r4, #0]
100061b8:	0033      	movs	r3, r6
100061ba:	0011      	movs	r1, r2
100061bc:	3930      	subs	r1, #48	; 0x30
100061be:	3b30      	subs	r3, #48	; 0x30
100061c0:	2909      	cmp	r1, #9
100061c2:	d9f3      	bls.n	100061ac <_vsnprintf+0x430>
100061c4:	4698      	mov	r8, r3
100061c6:	2300      	movs	r3, #0
100061c8:	0016      	movs	r6, r2
100061ca:	469b      	mov	fp, r3
100061cc:	2e2e      	cmp	r6, #46	; 0x2e
100061ce:	d000      	beq.n	100061d2 <_vsnprintf+0x456>
100061d0:	e63e      	b.n	10005e50 <_vsnprintf+0xd4>
100061d2:	2380      	movs	r3, #128	; 0x80
100061d4:	7866      	ldrb	r6, [r4, #1]
100061d6:	00db      	lsls	r3, r3, #3
100061d8:	431f      	orrs	r7, r3
100061da:	0033      	movs	r3, r6
100061dc:	3b30      	subs	r3, #48	; 0x30
100061de:	1c62      	adds	r2, r4, #1
100061e0:	2b09      	cmp	r3, #9
100061e2:	d811      	bhi.n	10006208 <_vsnprintf+0x48c>
100061e4:	0014      	movs	r4, r2
100061e6:	0033      	movs	r3, r6
100061e8:	465a      	mov	r2, fp
100061ea:	0096      	lsls	r6, r2, #2
100061ec:	18b6      	adds	r6, r6, r2
100061ee:	3401      	adds	r4, #1
100061f0:	0076      	lsls	r6, r6, #1
100061f2:	18f6      	adds	r6, r6, r3
100061f4:	7823      	ldrb	r3, [r4, #0]
100061f6:	0032      	movs	r2, r6
100061f8:	0019      	movs	r1, r3
100061fa:	3930      	subs	r1, #48	; 0x30
100061fc:	3a30      	subs	r2, #48	; 0x30
100061fe:	2909      	cmp	r1, #9
10006200:	d9f3      	bls.n	100061ea <_vsnprintf+0x46e>
10006202:	001e      	movs	r6, r3
10006204:	4693      	mov	fp, r2
10006206:	e623      	b.n	10005e50 <_vsnprintf+0xd4>
10006208:	2e2a      	cmp	r6, #42	; 0x2a
1000620a:	d100      	bne.n	1000620e <_vsnprintf+0x492>
1000620c:	e181      	b.n	10006512 <_vsnprintf+0x796>
1000620e:	0014      	movs	r4, r2
10006210:	e61e      	b.n	10005e50 <_vsnprintf+0xd4>
10006212:	2320      	movs	r3, #32
10006214:	0032      	movs	r2, r6
10006216:	439a      	bics	r2, r3
10006218:	2a47      	cmp	r2, #71	; 0x47
1000621a:	d104      	bne.n	10006226 <_vsnprintf+0x4aa>
1000621c:	2380      	movs	r3, #128	; 0x80
1000621e:	011b      	lsls	r3, r3, #4
10006220:	431f      	orrs	r7, r3
10006222:	2302      	movs	r3, #2
10006224:	439e      	bics	r6, r3
10006226:	2e45      	cmp	r6, #69	; 0x45
10006228:	d101      	bne.n	1000622e <_vsnprintf+0x4b2>
1000622a:	2320      	movs	r3, #32
1000622c:	431f      	orrs	r7, r3
1000622e:	2207      	movs	r2, #7
10006230:	9b0b      	ldr	r3, [sp, #44]	; 0x2c
10006232:	3307      	adds	r3, #7
10006234:	4393      	bics	r3, r2
10006236:	3201      	adds	r2, #1
10006238:	4694      	mov	ip, r2
1000623a:	449c      	add	ip, r3
1000623c:	4662      	mov	r2, ip
1000623e:	920b      	str	r2, [sp, #44]	; 0x2c
10006240:	681a      	ldr	r2, [r3, #0]
10006242:	685b      	ldr	r3, [r3, #4]
10006244:	0010      	movs	r0, r2
10006246:	0019      	movs	r1, r3
10006248:	900c      	str	r0, [sp, #48]	; 0x30
1000624a:	910d      	str	r1, [sp, #52]	; 0x34
1000624c:	f000 fe77 	bl	10006f3e <__wrap___aeabi_dcmpun>
10006250:	2800      	cmp	r0, #0
10006252:	d000      	beq.n	10006256 <_vsnprintf+0x4da>
10006254:	e08c      	b.n	10006370 <_vsnprintf+0x5f4>
10006256:	980c      	ldr	r0, [sp, #48]	; 0x30
10006258:	990d      	ldr	r1, [sp, #52]	; 0x34
1000625a:	2201      	movs	r2, #1
1000625c:	4bca      	ldr	r3, [pc, #808]	; (10006588 <_vsnprintf+0x80c>)
1000625e:	4252      	negs	r2, r2
10006260:	f000 fe68 	bl	10006f34 <__wrap___aeabi_dcmpgt>
10006264:	2800      	cmp	r0, #0
10006266:	d000      	beq.n	1000626a <_vsnprintf+0x4ee>
10006268:	e082      	b.n	10006370 <_vsnprintf+0x5f4>
1000626a:	980c      	ldr	r0, [sp, #48]	; 0x30
1000626c:	990d      	ldr	r1, [sp, #52]	; 0x34
1000626e:	2201      	movs	r2, #1
10006270:	4bc6      	ldr	r3, [pc, #792]	; (1000658c <_vsnprintf+0x810>)
10006272:	4252      	negs	r2, r2
10006274:	f000 fe50 	bl	10006f18 <__wrap___aeabi_dcmplt>
10006278:	2800      	cmp	r0, #0
1000627a:	d179      	bne.n	10006370 <_vsnprintf+0x5f4>
1000627c:	4643      	mov	r3, r8
1000627e:	9303      	str	r3, [sp, #12]
10006280:	465b      	mov	r3, fp
10006282:	9704      	str	r7, [sp, #16]
10006284:	9302      	str	r3, [sp, #8]
10006286:	9908      	ldr	r1, [sp, #32]
10006288:	9a0c      	ldr	r2, [sp, #48]	; 0x30
1000628a:	9b0d      	ldr	r3, [sp, #52]	; 0x34
1000628c:	980a      	ldr	r0, [sp, #40]	; 0x28
1000628e:	9200      	str	r2, [sp, #0]
10006290:	9301      	str	r3, [sp, #4]
10006292:	002a      	movs	r2, r5
10006294:	9b09      	ldr	r3, [sp, #36]	; 0x24
10006296:	f7ff fb95 	bl	100059c4 <_etoa.part.1>
1000629a:	3401      	adds	r4, #1
1000629c:	0005      	movs	r5, r0
1000629e:	e586      	b.n	10005dae <_vsnprintf+0x32>
100062a0:	990c      	ldr	r1, [sp, #48]	; 0x30
100062a2:	000b      	movs	r3, r1
100062a4:	3301      	adds	r3, #1
100062a6:	4588      	cmp	r8, r1
100062a8:	d800      	bhi.n	100062ac <_vsnprintf+0x530>
100062aa:	e2eb      	b.n	10006884 <_vsnprintf+0xb08>
100062ac:	4643      	mov	r3, r8
100062ae:	002a      	movs	r2, r5
100062b0:	195f      	adds	r7, r3, r5
100062b2:	940c      	str	r4, [sp, #48]	; 0x30
100062b4:	9d08      	ldr	r5, [sp, #32]
100062b6:	9c0a      	ldr	r4, [sp, #40]	; 0x28
100062b8:	1a7f      	subs	r7, r7, r1
100062ba:	1c56      	adds	r6, r2, #1
100062bc:	9b09      	ldr	r3, [sp, #36]	; 0x24
100062be:	0029      	movs	r1, r5
100062c0:	2020      	movs	r0, #32
100062c2:	47a0      	blx	r4
100062c4:	0032      	movs	r2, r6
100062c6:	42be      	cmp	r6, r7
100062c8:	d1f7      	bne.n	100062ba <_vsnprintf+0x53e>
100062ca:	4643      	mov	r3, r8
100062cc:	0035      	movs	r5, r6
100062ce:	3301      	adds	r3, #1
100062d0:	9c0c      	ldr	r4, [sp, #48]	; 0x30
100062d2:	930c      	str	r3, [sp, #48]	; 0x30
100062d4:	9b0b      	ldr	r3, [sp, #44]	; 0x2c
100062d6:	7818      	ldrb	r0, [r3, #0]
100062d8:	2800      	cmp	r0, #0
100062da:	d100      	bne.n	100062de <_vsnprintf+0x562>
100062dc:	e662      	b.n	10005fa4 <_vsnprintf+0x228>
100062de:	464b      	mov	r3, r9
100062e0:	2b00      	cmp	r3, #0
100062e2:	d000      	beq.n	100062e6 <_vsnprintf+0x56a>
100062e4:	e62e      	b.n	10005f44 <_vsnprintf+0x1c8>
100062e6:	002a      	movs	r2, r5
100062e8:	9b0b      	ldr	r3, [sp, #44]	; 0x2c
100062ea:	46a3      	mov	fp, r4
100062ec:	1b5f      	subs	r7, r3, r5
100062ee:	46b9      	mov	r9, r7
100062f0:	9e0a      	ldr	r6, [sp, #40]	; 0x28
100062f2:	9c08      	ldr	r4, [sp, #32]
100062f4:	9f09      	ldr	r7, [sp, #36]	; 0x24
100062f6:	003b      	movs	r3, r7
100062f8:	0021      	movs	r1, r4
100062fa:	1c55      	adds	r5, r2, #1
100062fc:	47b0      	blx	r6
100062fe:	464b      	mov	r3, r9
10006300:	5d58      	ldrb	r0, [r3, r5]
10006302:	002a      	movs	r2, r5
10006304:	2800      	cmp	r0, #0
10006306:	d1f6      	bne.n	100062f6 <_vsnprintf+0x57a>
10006308:	465c      	mov	r4, fp
1000630a:	e633      	b.n	10005f74 <_vsnprintf+0x1f8>
1000630c:	9b0b      	ldr	r3, [sp, #44]	; 0x2c
1000630e:	9908      	ldr	r1, [sp, #32]
10006310:	1d1a      	adds	r2, r3, #4
10006312:	7818      	ldrb	r0, [r3, #0]
10006314:	4691      	mov	r9, r2
10006316:	9b09      	ldr	r3, [sp, #36]	; 0x24
10006318:	002a      	movs	r2, r5
1000631a:	9f0a      	ldr	r7, [sp, #40]	; 0x28
1000631c:	47b8      	blx	r7
1000631e:	4643      	mov	r3, r8
10006320:	1c6e      	adds	r6, r5, #1
10006322:	4445      	add	r5, r8
10006324:	2b01      	cmp	r3, #1
10006326:	d800      	bhi.n	1000632a <_vsnprintf+0x5ae>
10006328:	e2ae      	b.n	10006888 <_vsnprintf+0xb0c>
1000632a:	46a3      	mov	fp, r4
1000632c:	0032      	movs	r2, r6
1000632e:	46a8      	mov	r8, r5
10006330:	9c08      	ldr	r4, [sp, #32]
10006332:	9e09      	ldr	r6, [sp, #36]	; 0x24
10006334:	9d0a      	ldr	r5, [sp, #40]	; 0x28
10006336:	1c57      	adds	r7, r2, #1
10006338:	0033      	movs	r3, r6
1000633a:	0021      	movs	r1, r4
1000633c:	2020      	movs	r0, #32
1000633e:	47a8      	blx	r5
10006340:	003a      	movs	r2, r7
10006342:	4547      	cmp	r7, r8
10006344:	d1f7      	bne.n	10006336 <_vsnprintf+0x5ba>
10006346:	465c      	mov	r4, fp
10006348:	464b      	mov	r3, r9
1000634a:	003d      	movs	r5, r7
1000634c:	930b      	str	r3, [sp, #44]	; 0x2c
1000634e:	3401      	adds	r4, #1
10006350:	e52d      	b.n	10005dae <_vsnprintf+0x32>
10006352:	2301      	movs	r3, #1
10006354:	425b      	negs	r3, r3
10006356:	e5d0      	b.n	10005efa <_vsnprintf+0x17e>
10006358:	2210      	movs	r2, #16
1000635a:	0039      	movs	r1, r7
1000635c:	4391      	bics	r1, r2
1000635e:	3211      	adds	r2, #17
10006360:	4311      	orrs	r1, r2
10006362:	910b      	str	r1, [sp, #44]	; 0x2c
10006364:	057a      	lsls	r2, r7, #21
10006366:	d400      	bmi.n	1000636a <_vsnprintf+0x5ee>
10006368:	e62a      	b.n	10005fc0 <_vsnprintf+0x244>
1000636a:	2100      	movs	r1, #0
1000636c:	ae18      	add	r6, sp, #96	; 0x60
1000636e:	e63e      	b.n	10005fee <_vsnprintf+0x272>
10006370:	4643      	mov	r3, r8
10006372:	9303      	str	r3, [sp, #12]
10006374:	465b      	mov	r3, fp
10006376:	9704      	str	r7, [sp, #16]
10006378:	9302      	str	r3, [sp, #8]
1000637a:	9908      	ldr	r1, [sp, #32]
1000637c:	9a0c      	ldr	r2, [sp, #48]	; 0x30
1000637e:	9b0d      	ldr	r3, [sp, #52]	; 0x34
10006380:	980a      	ldr	r0, [sp, #40]	; 0x28
10006382:	9200      	str	r2, [sp, #0]
10006384:	9301      	str	r3, [sp, #4]
10006386:	002a      	movs	r2, r5
10006388:	9b09      	ldr	r3, [sp, #36]	; 0x24
1000638a:	f7fe ffb9 	bl	10005300 <_ftoa>
1000638e:	3401      	adds	r4, #1
10006390:	0005      	movs	r5, r0
10006392:	e50c      	b.n	10005dae <_vsnprintf+0x32>
10006394:	990b      	ldr	r1, [sp, #44]	; 0x2c
10006396:	000b      	movs	r3, r1
10006398:	6809      	ldr	r1, [r1, #0]
1000639a:	3304      	adds	r3, #4
1000639c:	4688      	mov	r8, r1
1000639e:	2900      	cmp	r1, #0
100063a0:	da00      	bge.n	100063a4 <_vsnprintf+0x628>
100063a2:	e0b0      	b.n	10006506 <_vsnprintf+0x78a>
100063a4:	7856      	ldrb	r6, [r2, #1]
100063a6:	930b      	str	r3, [sp, #44]	; 0x2c
100063a8:	1c54      	adds	r4, r2, #1
100063aa:	e54c      	b.n	10005e46 <_vsnprintf+0xca>
100063ac:	23c0      	movs	r3, #192	; 0xc0
100063ae:	009b      	lsls	r3, r3, #2
100063b0:	78a6      	ldrb	r6, [r4, #2]
100063b2:	431f      	orrs	r7, r3
100063b4:	3402      	adds	r4, #2
100063b6:	e569      	b.n	10005e8c <_vsnprintf+0x110>
100063b8:	23c0      	movs	r3, #192	; 0xc0
100063ba:	78a6      	ldrb	r6, [r4, #2]
100063bc:	431f      	orrs	r7, r3
100063be:	3402      	adds	r4, #2
100063c0:	e564      	b.n	10005e8c <_vsnprintf+0x110>
100063c2:	2310      	movs	r3, #16
100063c4:	930e      	str	r3, [sp, #56]	; 0x38
100063c6:	230c      	movs	r3, #12
100063c8:	003a      	movs	r2, r7
100063ca:	439a      	bics	r2, r3
100063cc:	920c      	str	r2, [sp, #48]	; 0x30
100063ce:	057b      	lsls	r3, r7, #21
100063d0:	d502      	bpl.n	100063d8 <_vsnprintf+0x65c>
100063d2:	2301      	movs	r3, #1
100063d4:	439a      	bics	r2, r3
100063d6:	920c      	str	r2, [sp, #48]	; 0x30
100063d8:	2e69      	cmp	r6, #105	; 0x69
100063da:	d100      	bne.n	100063de <_vsnprintf+0x662>
100063dc:	e641      	b.n	10006062 <_vsnprintf+0x2e6>
100063de:	2e64      	cmp	r6, #100	; 0x64
100063e0:	d100      	bne.n	100063e4 <_vsnprintf+0x668>
100063e2:	e63e      	b.n	10006062 <_vsnprintf+0x2e6>
100063e4:	2780      	movs	r7, #128	; 0x80
100063e6:	9b0c      	ldr	r3, [sp, #48]	; 0x30
100063e8:	00bf      	lsls	r7, r7, #2
100063ea:	401f      	ands	r7, r3
100063ec:	d000      	beq.n	100063f0 <_vsnprintf+0x674>
100063ee:	e09e      	b.n	1000652e <_vsnprintf+0x7b2>
100063f0:	001a      	movs	r2, r3
100063f2:	2380      	movs	r3, #128	; 0x80
100063f4:	005b      	lsls	r3, r3, #1
100063f6:	401a      	ands	r2, r3
100063f8:	4691      	mov	r9, r2
100063fa:	d000      	beq.n	100063fe <_vsnprintf+0x682>
100063fc:	e170      	b.n	100066e0 <_vsnprintf+0x964>
100063fe:	9b0c      	ldr	r3, [sp, #48]	; 0x30
10006400:	065b      	lsls	r3, r3, #25
10006402:	d500      	bpl.n	10006406 <_vsnprintf+0x68a>
10006404:	e21f      	b.n	10006846 <_vsnprintf+0xaca>
10006406:	9b0c      	ldr	r3, [sp, #48]	; 0x30
10006408:	061b      	lsls	r3, r3, #24
1000640a:	d400      	bmi.n	1000640e <_vsnprintf+0x692>
1000640c:	e208      	b.n	10006820 <_vsnprintf+0xaa4>
1000640e:	9b0b      	ldr	r3, [sp, #44]	; 0x2c
10006410:	881f      	ldrh	r7, [r3, #0]
10006412:	3304      	adds	r3, #4
10006414:	930b      	str	r3, [sp, #44]	; 0x2c
10006416:	2f00      	cmp	r7, #0
10006418:	d109      	bne.n	1000642e <_vsnprintf+0x6b2>
1000641a:	990c      	ldr	r1, [sp, #48]	; 0x30
1000641c:	2310      	movs	r3, #16
1000641e:	000a      	movs	r2, r1
10006420:	439a      	bics	r2, r3
10006422:	0013      	movs	r3, r2
10006424:	000a      	movs	r2, r1
10006426:	930c      	str	r3, [sp, #48]	; 0x30
10006428:	0552      	lsls	r2, r2, #21
1000642a:	d500      	bpl.n	1000642e <_vsnprintf+0x6b2>
1000642c:	e0d4      	b.n	100065d8 <_vsnprintf+0x85c>
1000642e:	9a0c      	ldr	r2, [sp, #48]	; 0x30
10006430:	2361      	movs	r3, #97	; 0x61
10006432:	0692      	lsls	r2, r2, #26
10006434:	d500      	bpl.n	10006438 <_vsnprintf+0x6bc>
10006436:	2341      	movs	r3, #65	; 0x41
10006438:	b2db      	uxtb	r3, r3
1000643a:	ae18      	add	r6, sp, #96	; 0x60
1000643c:	3b0a      	subs	r3, #10
1000643e:	9415      	str	r4, [sp, #84]	; 0x54
10006440:	930f      	str	r3, [sp, #60]	; 0x3c
10006442:	464c      	mov	r4, r9
10006444:	9514      	str	r5, [sp, #80]	; 0x50
10006446:	46b1      	mov	r9, r6
10006448:	9e0e      	ldr	r6, [sp, #56]	; 0x38
1000644a:	e00c      	b.n	10006466 <_vsnprintf+0x6ea>
1000644c:	3330      	adds	r3, #48	; 0x30
1000644e:	b2db      	uxtb	r3, r3
10006450:	464a      	mov	r2, r9
10006452:	0038      	movs	r0, r7
10006454:	5513      	strb	r3, [r2, r4]
10006456:	0031      	movs	r1, r6
10006458:	f000 fabc 	bl	100069d4 <__wrap___aeabi_uidiv>
1000645c:	1e07      	subs	r7, r0, #0
1000645e:	d02b      	beq.n	100064b8 <_vsnprintf+0x73c>
10006460:	002c      	movs	r4, r5
10006462:	2d20      	cmp	r5, #32
10006464:	d028      	beq.n	100064b8 <_vsnprintf+0x73c>
10006466:	0031      	movs	r1, r6
10006468:	0038      	movs	r0, r7
1000646a:	f000 fab3 	bl	100069d4 <__wrap___aeabi_uidiv>
1000646e:	1c65      	adds	r5, r4, #1
10006470:	b2cb      	uxtb	r3, r1
10006472:	2909      	cmp	r1, #9
10006474:	d9ea      	bls.n	1000644c <_vsnprintf+0x6d0>
10006476:	9a0f      	ldr	r2, [sp, #60]	; 0x3c
10006478:	4694      	mov	ip, r2
1000647a:	4463      	add	r3, ip
1000647c:	b2db      	uxtb	r3, r3
1000647e:	e7e7      	b.n	10006450 <_vsnprintf+0x6d4>
10006480:	2320      	movs	r3, #32
10006482:	431f      	orrs	r7, r3
10006484:	e647      	b.n	10006116 <_vsnprintf+0x39a>
10006486:	465b      	mov	r3, fp
10006488:	930c      	str	r3, [sp, #48]	; 0x30
1000648a:	2302      	movs	r3, #2
1000648c:	403b      	ands	r3, r7
1000648e:	930f      	str	r3, [sp, #60]	; 0x3c
10006490:	d000      	beq.n	10006494 <_vsnprintf+0x718>
10006492:	e551      	b.n	10005f38 <_vsnprintf+0x1bc>
10006494:	e704      	b.n	100062a0 <_vsnprintf+0x524>
10006496:	2302      	movs	r3, #2
10006498:	930e      	str	r3, [sp, #56]	; 0x38
1000649a:	e794      	b.n	100063c6 <_vsnprintf+0x64a>
1000649c:	230c      	movs	r3, #12
1000649e:	003a      	movs	r2, r7
100064a0:	439a      	bics	r2, r3
100064a2:	3314      	adds	r3, #20
100064a4:	431a      	orrs	r2, r3
100064a6:	2310      	movs	r3, #16
100064a8:	920c      	str	r2, [sp, #48]	; 0x30
100064aa:	930e      	str	r3, [sp, #56]	; 0x38
100064ac:	057b      	lsls	r3, r7, #21
100064ae:	d490      	bmi.n	100063d2 <_vsnprintf+0x656>
100064b0:	e798      	b.n	100063e4 <_vsnprintf+0x668>
100064b2:	4b37      	ldr	r3, [pc, #220]	; (10006590 <_vsnprintf+0x814>)
100064b4:	930a      	str	r3, [sp, #40]	; 0x28
100064b6:	e474      	b.n	10005da2 <_vsnprintf+0x26>
100064b8:	464e      	mov	r6, r9
100064ba:	002a      	movs	r2, r5
100064bc:	9c15      	ldr	r4, [sp, #84]	; 0x54
100064be:	9d14      	ldr	r5, [sp, #80]	; 0x50
100064c0:	9b0c      	ldr	r3, [sp, #48]	; 0x30
100064c2:	9306      	str	r3, [sp, #24]
100064c4:	4643      	mov	r3, r8
100064c6:	9305      	str	r3, [sp, #20]
100064c8:	465b      	mov	r3, fp
100064ca:	9304      	str	r3, [sp, #16]
100064cc:	9b0e      	ldr	r3, [sp, #56]	; 0x38
100064ce:	9303      	str	r3, [sp, #12]
100064d0:	2300      	movs	r3, #0
100064d2:	9302      	str	r3, [sp, #8]
100064d4:	9201      	str	r2, [sp, #4]
100064d6:	002a      	movs	r2, r5
100064d8:	9600      	str	r6, [sp, #0]
100064da:	9b09      	ldr	r3, [sp, #36]	; 0x24
100064dc:	9908      	ldr	r1, [sp, #32]
100064de:	980a      	ldr	r0, [sp, #40]	; 0x28
100064e0:	f7fe fe04 	bl	100050ec <_ntoa_format>
100064e4:	3401      	adds	r4, #1
100064e6:	0005      	movs	r5, r0
100064e8:	e461      	b.n	10005dae <_vsnprintf+0x32>
100064ea:	464e      	mov	r6, r9
100064ec:	002a      	movs	r2, r5
100064ee:	9c16      	ldr	r4, [sp, #88]	; 0x58
100064f0:	9d15      	ldr	r5, [sp, #84]	; 0x54
100064f2:	9b0c      	ldr	r3, [sp, #48]	; 0x30
100064f4:	9306      	str	r3, [sp, #24]
100064f6:	4643      	mov	r3, r8
100064f8:	9305      	str	r3, [sp, #20]
100064fa:	465b      	mov	r3, fp
100064fc:	9304      	str	r3, [sp, #16]
100064fe:	9b0e      	ldr	r3, [sp, #56]	; 0x38
10006500:	9303      	str	r3, [sp, #12]
10006502:	9b14      	ldr	r3, [sp, #80]	; 0x50
10006504:	e7e5      	b.n	100064d2 <_vsnprintf+0x756>
10006506:	2102      	movs	r1, #2
10006508:	430f      	orrs	r7, r1
1000650a:	4641      	mov	r1, r8
1000650c:	4249      	negs	r1, r1
1000650e:	4688      	mov	r8, r1
10006510:	e748      	b.n	100063a4 <_vsnprintf+0x628>
10006512:	9a0b      	ldr	r2, [sp, #44]	; 0x2c
10006514:	78a6      	ldrb	r6, [r4, #2]
10006516:	6813      	ldr	r3, [r2, #0]
10006518:	3402      	adds	r4, #2
1000651a:	469b      	mov	fp, r3
1000651c:	43db      	mvns	r3, r3
1000651e:	4659      	mov	r1, fp
10006520:	17db      	asrs	r3, r3, #31
10006522:	4019      	ands	r1, r3
10006524:	0013      	movs	r3, r2
10006526:	3304      	adds	r3, #4
10006528:	468b      	mov	fp, r1
1000652a:	930b      	str	r3, [sp, #44]	; 0x2c
1000652c:	e490      	b.n	10005e50 <_vsnprintf+0xd4>
1000652e:	2207      	movs	r2, #7
10006530:	9b0b      	ldr	r3, [sp, #44]	; 0x2c
10006532:	3307      	adds	r3, #7
10006534:	4393      	bics	r3, r2
10006536:	3201      	adds	r2, #1
10006538:	4694      	mov	ip, r2
1000653a:	449c      	add	ip, r3
1000653c:	4662      	mov	r2, ip
1000653e:	920b      	str	r2, [sp, #44]	; 0x2c
10006540:	681a      	ldr	r2, [r3, #0]
10006542:	685f      	ldr	r7, [r3, #4]
10006544:	0013      	movs	r3, r2
10006546:	4691      	mov	r9, r2
10006548:	433b      	orrs	r3, r7
1000654a:	d108      	bne.n	1000655e <_vsnprintf+0x7e2>
1000654c:	990c      	ldr	r1, [sp, #48]	; 0x30
1000654e:	3310      	adds	r3, #16
10006550:	000a      	movs	r2, r1
10006552:	439a      	bics	r2, r3
10006554:	0013      	movs	r3, r2
10006556:	000a      	movs	r2, r1
10006558:	930c      	str	r3, [sp, #48]	; 0x30
1000655a:	0552      	lsls	r2, r2, #21
1000655c:	d43c      	bmi.n	100065d8 <_vsnprintf+0x85c>
1000655e:	9a0c      	ldr	r2, [sp, #48]	; 0x30
10006560:	2361      	movs	r3, #97	; 0x61
10006562:	0692      	lsls	r2, r2, #26
10006564:	d500      	bpl.n	10006568 <_vsnprintf+0x7ec>
10006566:	e177      	b.n	10006858 <_vsnprintf+0xadc>
10006568:	b2db      	uxtb	r3, r3
1000656a:	3b0a      	subs	r3, #10
1000656c:	930f      	str	r3, [sp, #60]	; 0x3c
1000656e:	4643      	mov	r3, r8
10006570:	2200      	movs	r2, #0
10006572:	9316      	str	r3, [sp, #88]	; 0x58
10006574:	9b0e      	ldr	r3, [sp, #56]	; 0x38
10006576:	ae18      	add	r6, sp, #96	; 0x60
10006578:	9514      	str	r5, [sp, #80]	; 0x50
1000657a:	9415      	str	r4, [sp, #84]	; 0x54
1000657c:	0015      	movs	r5, r2
1000657e:	464c      	mov	r4, r9
10006580:	4698      	mov	r8, r3
10006582:	46b1      	mov	r9, r6
10006584:	e019      	b.n	100065ba <_vsnprintf+0x83e>
10006586:	46c0      	nop			; (mov r8, r8)
10006588:	7fefffff 	.word	0x7fefffff
1000658c:	ffefffff 	.word	0xffefffff
10006590:	1000509d 	.word	0x1000509d
10006594:	3230      	adds	r2, #48	; 0x30
10006596:	b2d2      	uxtb	r2, r2
10006598:	464b      	mov	r3, r9
1000659a:	0020      	movs	r0, r4
1000659c:	555a      	strb	r2, [r3, r5]
1000659e:	0039      	movs	r1, r7
100065a0:	4642      	mov	r2, r8
100065a2:	2300      	movs	r3, #0
100065a4:	f000 fa5c 	bl	10006a60 <__wrap___aeabi_uldivmod>
100065a8:	000f      	movs	r7, r1
100065aa:	0004      	movs	r4, r0
100065ac:	4301      	orrs	r1, r0
100065ae:	d100      	bne.n	100065b2 <_vsnprintf+0x836>
100065b0:	e08f      	b.n	100066d2 <_vsnprintf+0x956>
100065b2:	0035      	movs	r5, r6
100065b4:	2e20      	cmp	r6, #32
100065b6:	d100      	bne.n	100065ba <_vsnprintf+0x83e>
100065b8:	e08b      	b.n	100066d2 <_vsnprintf+0x956>
100065ba:	4642      	mov	r2, r8
100065bc:	2300      	movs	r3, #0
100065be:	0020      	movs	r0, r4
100065c0:	0039      	movs	r1, r7
100065c2:	f000 fa4d 	bl	10006a60 <__wrap___aeabi_uldivmod>
100065c6:	b2d2      	uxtb	r2, r2
100065c8:	1c6e      	adds	r6, r5, #1
100065ca:	2a09      	cmp	r2, #9
100065cc:	d9e2      	bls.n	10006594 <_vsnprintf+0x818>
100065ce:	9b0f      	ldr	r3, [sp, #60]	; 0x3c
100065d0:	469c      	mov	ip, r3
100065d2:	4462      	add	r2, ip
100065d4:	b2d2      	uxtb	r2, r2
100065d6:	e7df      	b.n	10006598 <_vsnprintf+0x81c>
100065d8:	2300      	movs	r3, #0
100065da:	ae18      	add	r6, sp, #96	; 0x60
100065dc:	001a      	movs	r2, r3
100065de:	e76f      	b.n	100064c0 <_vsnprintf+0x744>
100065e0:	2207      	movs	r2, #7
100065e2:	9b0b      	ldr	r3, [sp, #44]	; 0x2c
100065e4:	3307      	adds	r3, #7
100065e6:	4393      	bics	r3, r2
100065e8:	3201      	adds	r2, #1
100065ea:	4694      	mov	ip, r2
100065ec:	449c      	add	ip, r3
100065ee:	4662      	mov	r2, ip
100065f0:	920b      	str	r2, [sp, #44]	; 0x2c
100065f2:	681a      	ldr	r2, [r3, #0]
100065f4:	685b      	ldr	r3, [r3, #4]
100065f6:	17d9      	asrs	r1, r3, #31
100065f8:	9112      	str	r1, [sp, #72]	; 0x48
100065fa:	9113      	str	r1, [sp, #76]	; 0x4c
100065fc:	9812      	ldr	r0, [sp, #72]	; 0x48
100065fe:	9913      	ldr	r1, [sp, #76]	; 0x4c
10006600:	0006      	movs	r6, r0
10006602:	4056      	eors	r6, r2
10006604:	9610      	str	r6, [sp, #64]	; 0x40
10006606:	000e      	movs	r6, r1
10006608:	405e      	eors	r6, r3
1000660a:	9611      	str	r6, [sp, #68]	; 0x44
1000660c:	9e10      	ldr	r6, [sp, #64]	; 0x40
1000660e:	9f11      	ldr	r7, [sp, #68]	; 0x44
10006610:	1a36      	subs	r6, r6, r0
10006612:	418f      	sbcs	r7, r1
10006614:	0fd9      	lsrs	r1, r3, #31
10006616:	9610      	str	r6, [sp, #64]	; 0x40
10006618:	9711      	str	r7, [sp, #68]	; 0x44
1000661a:	9117      	str	r1, [sp, #92]	; 0x5c
1000661c:	431a      	orrs	r2, r3
1000661e:	d10b      	bne.n	10006638 <_vsnprintf+0x8bc>
10006620:	990c      	ldr	r1, [sp, #48]	; 0x30
10006622:	2310      	movs	r3, #16
10006624:	000a      	movs	r2, r1
10006626:	439a      	bics	r2, r3
10006628:	0013      	movs	r3, r2
1000662a:	000a      	movs	r2, r1
1000662c:	930c      	str	r3, [sp, #48]	; 0x30
1000662e:	0552      	lsls	r2, r2, #21
10006630:	d502      	bpl.n	10006638 <_vsnprintf+0x8bc>
10006632:	2700      	movs	r7, #0
10006634:	ae18      	add	r6, sp, #96	; 0x60
10006636:	e041      	b.n	100066bc <_vsnprintf+0x940>
10006638:	9a0c      	ldr	r2, [sp, #48]	; 0x30
1000663a:	2361      	movs	r3, #97	; 0x61
1000663c:	0692      	lsls	r2, r2, #26
1000663e:	d500      	bpl.n	10006642 <_vsnprintf+0x8c6>
10006640:	e10c      	b.n	1000685c <_vsnprintf+0xae0>
10006642:	b2db      	uxtb	r3, r3
10006644:	3b0a      	subs	r3, #10
10006646:	930f      	str	r3, [sp, #60]	; 0x3c
10006648:	4643      	mov	r3, r8
1000664a:	9316      	str	r3, [sp, #88]	; 0x58
1000664c:	9b0e      	ldr	r3, [sp, #56]	; 0x38
1000664e:	ae18      	add	r6, sp, #96	; 0x60
10006650:	2200      	movs	r2, #0
10006652:	4698      	mov	r8, r3
10006654:	0033      	movs	r3, r6
10006656:	9514      	str	r5, [sp, #80]	; 0x50
10006658:	9415      	str	r4, [sp, #84]	; 0x54
1000665a:	0016      	movs	r6, r2
1000665c:	9c10      	ldr	r4, [sp, #64]	; 0x40
1000665e:	9d11      	ldr	r5, [sp, #68]	; 0x44
10006660:	4699      	mov	r9, r3
10006662:	e011      	b.n	10006688 <_vsnprintf+0x90c>
10006664:	3230      	adds	r2, #48	; 0x30
10006666:	b2d2      	uxtb	r2, r2
10006668:	464b      	mov	r3, r9
1000666a:	0020      	movs	r0, r4
1000666c:	559a      	strb	r2, [r3, r6]
1000666e:	0029      	movs	r1, r5
10006670:	2300      	movs	r3, #0
10006672:	4642      	mov	r2, r8
10006674:	f000 f9f4 	bl	10006a60 <__wrap___aeabi_uldivmod>
10006678:	0003      	movs	r3, r0
1000667a:	0004      	movs	r4, r0
1000667c:	000d      	movs	r5, r1
1000667e:	430b      	orrs	r3, r1
10006680:	d014      	beq.n	100066ac <_vsnprintf+0x930>
10006682:	003e      	movs	r6, r7
10006684:	2f20      	cmp	r7, #32
10006686:	d011      	beq.n	100066ac <_vsnprintf+0x930>
10006688:	4642      	mov	r2, r8
1000668a:	2300      	movs	r3, #0
1000668c:	0020      	movs	r0, r4
1000668e:	0029      	movs	r1, r5
10006690:	f000 f9e6 	bl	10006a60 <__wrap___aeabi_uldivmod>
10006694:	b2d2      	uxtb	r2, r2
10006696:	1c77      	adds	r7, r6, #1
10006698:	2a09      	cmp	r2, #9
1000669a:	d9e3      	bls.n	10006664 <_vsnprintf+0x8e8>
1000669c:	9b0f      	ldr	r3, [sp, #60]	; 0x3c
1000669e:	469c      	mov	ip, r3
100066a0:	4462      	add	r2, ip
100066a2:	b2d2      	uxtb	r2, r2
100066a4:	e7e0      	b.n	10006668 <_vsnprintf+0x8ec>
100066a6:	2308      	movs	r3, #8
100066a8:	930e      	str	r3, [sp, #56]	; 0x38
100066aa:	e68c      	b.n	100063c6 <_vsnprintf+0x64a>
100066ac:	464e      	mov	r6, r9
100066ae:	9b16      	ldr	r3, [sp, #88]	; 0x58
100066b0:	9410      	str	r4, [sp, #64]	; 0x40
100066b2:	9511      	str	r5, [sp, #68]	; 0x44
100066b4:	4698      	mov	r8, r3
100066b6:	9c15      	ldr	r4, [sp, #84]	; 0x54
100066b8:	9d14      	ldr	r5, [sp, #80]	; 0x50
100066ba:	9b0c      	ldr	r3, [sp, #48]	; 0x30
100066bc:	9306      	str	r3, [sp, #24]
100066be:	4643      	mov	r3, r8
100066c0:	9305      	str	r3, [sp, #20]
100066c2:	465b      	mov	r3, fp
100066c4:	9304      	str	r3, [sp, #16]
100066c6:	9b0e      	ldr	r3, [sp, #56]	; 0x38
100066c8:	9701      	str	r7, [sp, #4]
100066ca:	9303      	str	r3, [sp, #12]
100066cc:	9b17      	ldr	r3, [sp, #92]	; 0x5c
100066ce:	9302      	str	r3, [sp, #8]
100066d0:	e701      	b.n	100064d6 <_vsnprintf+0x75a>
100066d2:	9b16      	ldr	r3, [sp, #88]	; 0x58
100066d4:	0032      	movs	r2, r6
100066d6:	9d14      	ldr	r5, [sp, #80]	; 0x50
100066d8:	9c15      	ldr	r4, [sp, #84]	; 0x54
100066da:	4698      	mov	r8, r3
100066dc:	464e      	mov	r6, r9
100066de:	e6ef      	b.n	100064c0 <_vsnprintf+0x744>
100066e0:	9b0b      	ldr	r3, [sp, #44]	; 0x2c
100066e2:	1d1a      	adds	r2, r3, #4
100066e4:	681b      	ldr	r3, [r3, #0]
100066e6:	9215      	str	r2, [sp, #84]	; 0x54
100066e8:	4699      	mov	r9, r3
100066ea:	2b00      	cmp	r3, #0
100066ec:	d10c      	bne.n	10006708 <_vsnprintf+0x98c>
100066ee:	990c      	ldr	r1, [sp, #48]	; 0x30
100066f0:	3310      	adds	r3, #16
100066f2:	000a      	movs	r2, r1
100066f4:	439a      	bics	r2, r3
100066f6:	0013      	movs	r3, r2
100066f8:	000a      	movs	r2, r1
100066fa:	930c      	str	r3, [sp, #48]	; 0x30
100066fc:	0552      	lsls	r2, r2, #21
100066fe:	d503      	bpl.n	10006708 <_vsnprintf+0x98c>
10006700:	2300      	movs	r3, #0
10006702:	ae18      	add	r6, sp, #96	; 0x60
10006704:	001a      	movs	r2, r3
10006706:	e06d      	b.n	100067e4 <_vsnprintf+0xa68>
10006708:	9a0c      	ldr	r2, [sp, #48]	; 0x30
1000670a:	2361      	movs	r3, #97	; 0x61
1000670c:	0692      	lsls	r2, r2, #26
1000670e:	d500      	bpl.n	10006712 <_vsnprintf+0x996>
10006710:	e0a6      	b.n	10006860 <_vsnprintf+0xae4>
10006712:	b2db      	uxtb	r3, r3
10006714:	ae18      	add	r6, sp, #96	; 0x60
10006716:	3b0a      	subs	r3, #10
10006718:	9414      	str	r4, [sp, #80]	; 0x50
1000671a:	930b      	str	r3, [sp, #44]	; 0x2c
1000671c:	464c      	mov	r4, r9
1000671e:	950f      	str	r5, [sp, #60]	; 0x3c
10006720:	46b1      	mov	r9, r6
10006722:	9e0e      	ldr	r6, [sp, #56]	; 0x38
10006724:	e00c      	b.n	10006740 <_vsnprintf+0x9c4>
10006726:	3330      	adds	r3, #48	; 0x30
10006728:	b2db      	uxtb	r3, r3
1000672a:	464a      	mov	r2, r9
1000672c:	0020      	movs	r0, r4
1000672e:	55d3      	strb	r3, [r2, r7]
10006730:	0031      	movs	r1, r6
10006732:	f000 f94f 	bl	100069d4 <__wrap___aeabi_uidiv>
10006736:	1e04      	subs	r4, r0, #0
10006738:	d050      	beq.n	100067dc <_vsnprintf+0xa60>
1000673a:	002f      	movs	r7, r5
1000673c:	2d20      	cmp	r5, #32
1000673e:	d04d      	beq.n	100067dc <_vsnprintf+0xa60>
10006740:	0031      	movs	r1, r6
10006742:	0020      	movs	r0, r4
10006744:	f000 f946 	bl	100069d4 <__wrap___aeabi_uidiv>
10006748:	1c7d      	adds	r5, r7, #1
1000674a:	b2cb      	uxtb	r3, r1
1000674c:	2909      	cmp	r1, #9
1000674e:	d9ea      	bls.n	10006726 <_vsnprintf+0x9aa>
10006750:	9a0b      	ldr	r2, [sp, #44]	; 0x2c
10006752:	4694      	mov	ip, r2
10006754:	4463      	add	r3, ip
10006756:	b2db      	uxtb	r3, r3
10006758:	e7e7      	b.n	1000672a <_vsnprintf+0x9ae>
1000675a:	9b0b      	ldr	r3, [sp, #44]	; 0x2c
1000675c:	1d1a      	adds	r2, r3, #4
1000675e:	681b      	ldr	r3, [r3, #0]
10006760:	9215      	str	r2, [sp, #84]	; 0x54
10006762:	17d9      	asrs	r1, r3, #31
10006764:	185a      	adds	r2, r3, r1
10006766:	404a      	eors	r2, r1
10006768:	4691      	mov	r9, r2
1000676a:	0fda      	lsrs	r2, r3, #31
1000676c:	9216      	str	r2, [sp, #88]	; 0x58
1000676e:	2b00      	cmp	r3, #0
10006770:	d10c      	bne.n	1000678c <_vsnprintf+0xa10>
10006772:	990c      	ldr	r1, [sp, #48]	; 0x30
10006774:	3310      	adds	r3, #16
10006776:	000a      	movs	r2, r1
10006778:	439a      	bics	r2, r3
1000677a:	0013      	movs	r3, r2
1000677c:	000a      	movs	r2, r1
1000677e:	930c      	str	r3, [sp, #48]	; 0x30
10006780:	0552      	lsls	r2, r2, #21
10006782:	d503      	bpl.n	1000678c <_vsnprintf+0xa10>
10006784:	2300      	movs	r3, #0
10006786:	ae18      	add	r6, sp, #96	; 0x60
10006788:	001a      	movs	r2, r3
1000678a:	e052      	b.n	10006832 <_vsnprintf+0xab6>
1000678c:	9a0c      	ldr	r2, [sp, #48]	; 0x30
1000678e:	2361      	movs	r3, #97	; 0x61
10006790:	0692      	lsls	r2, r2, #26
10006792:	d467      	bmi.n	10006864 <_vsnprintf+0xae8>
10006794:	b2db      	uxtb	r3, r3
10006796:	ae18      	add	r6, sp, #96	; 0x60
10006798:	3b0a      	subs	r3, #10
1000679a:	9414      	str	r4, [sp, #80]	; 0x50
1000679c:	930b      	str	r3, [sp, #44]	; 0x2c
1000679e:	464c      	mov	r4, r9
100067a0:	950f      	str	r5, [sp, #60]	; 0x3c
100067a2:	46b1      	mov	r9, r6
100067a4:	9e0e      	ldr	r6, [sp, #56]	; 0x38
100067a6:	e00c      	b.n	100067c2 <_vsnprintf+0xa46>
100067a8:	3330      	adds	r3, #48	; 0x30
100067aa:	b2db      	uxtb	r3, r3
100067ac:	464a      	mov	r2, r9
100067ae:	0020      	movs	r0, r4
100067b0:	55d3      	strb	r3, [r2, r7]
100067b2:	0031      	movs	r1, r6
100067b4:	f000 f90e 	bl	100069d4 <__wrap___aeabi_uidiv>
100067b8:	1e04      	subs	r4, r0, #0
100067ba:	d036      	beq.n	1000682a <_vsnprintf+0xaae>
100067bc:	002f      	movs	r7, r5
100067be:	2d20      	cmp	r5, #32
100067c0:	d033      	beq.n	1000682a <_vsnprintf+0xaae>
100067c2:	0031      	movs	r1, r6
100067c4:	0020      	movs	r0, r4
100067c6:	f000 f905 	bl	100069d4 <__wrap___aeabi_uidiv>
100067ca:	1c7d      	adds	r5, r7, #1
100067cc:	b2cb      	uxtb	r3, r1
100067ce:	2909      	cmp	r1, #9
100067d0:	d9ea      	bls.n	100067a8 <_vsnprintf+0xa2c>
100067d2:	9a0b      	ldr	r2, [sp, #44]	; 0x2c
100067d4:	4694      	mov	ip, r2
100067d6:	4463      	add	r3, ip
100067d8:	b2db      	uxtb	r3, r3
100067da:	e7e7      	b.n	100067ac <_vsnprintf+0xa30>
100067dc:	464e      	mov	r6, r9
100067de:	002a      	movs	r2, r5
100067e0:	9c14      	ldr	r4, [sp, #80]	; 0x50
100067e2:	9d0f      	ldr	r5, [sp, #60]	; 0x3c
100067e4:	9b0c      	ldr	r3, [sp, #48]	; 0x30
100067e6:	9306      	str	r3, [sp, #24]
100067e8:	4643      	mov	r3, r8
100067ea:	9305      	str	r3, [sp, #20]
100067ec:	465b      	mov	r3, fp
100067ee:	9304      	str	r3, [sp, #16]
100067f0:	9b0e      	ldr	r3, [sp, #56]	; 0x38
100067f2:	9303      	str	r3, [sp, #12]
100067f4:	2300      	movs	r3, #0
100067f6:	9302      	str	r3, [sp, #8]
100067f8:	9201      	str	r2, [sp, #4]
100067fa:	9b09      	ldr	r3, [sp, #36]	; 0x24
100067fc:	002a      	movs	r2, r5
100067fe:	9600      	str	r6, [sp, #0]
10006800:	9908      	ldr	r1, [sp, #32]
10006802:	980a      	ldr	r0, [sp, #40]	; 0x28
10006804:	f7fe fc72 	bl	100050ec <_ntoa_format>
10006808:	9b15      	ldr	r3, [sp, #84]	; 0x54
1000680a:	0005      	movs	r5, r0
1000680c:	930b      	str	r3, [sp, #44]	; 0x2c
1000680e:	3401      	adds	r4, #1
10006810:	f7ff facd 	bl	10005dae <_vsnprintf+0x32>
10006814:	6813      	ldr	r3, [r2, #0]
10006816:	3204      	adds	r2, #4
10006818:	0fd9      	lsrs	r1, r3, #31
1000681a:	9114      	str	r1, [sp, #80]	; 0x50
1000681c:	920b      	str	r2, [sp, #44]	; 0x2c
1000681e:	e43d      	b.n	1000609c <_vsnprintf+0x320>
10006820:	9b0b      	ldr	r3, [sp, #44]	; 0x2c
10006822:	681f      	ldr	r7, [r3, #0]
10006824:	3304      	adds	r3, #4
10006826:	930b      	str	r3, [sp, #44]	; 0x2c
10006828:	e5f5      	b.n	10006416 <_vsnprintf+0x69a>
1000682a:	464e      	mov	r6, r9
1000682c:	002a      	movs	r2, r5
1000682e:	9c14      	ldr	r4, [sp, #80]	; 0x50
10006830:	9d0f      	ldr	r5, [sp, #60]	; 0x3c
10006832:	9b0c      	ldr	r3, [sp, #48]	; 0x30
10006834:	9306      	str	r3, [sp, #24]
10006836:	4643      	mov	r3, r8
10006838:	9305      	str	r3, [sp, #20]
1000683a:	465b      	mov	r3, fp
1000683c:	9304      	str	r3, [sp, #16]
1000683e:	9b0e      	ldr	r3, [sp, #56]	; 0x38
10006840:	9303      	str	r3, [sp, #12]
10006842:	9b16      	ldr	r3, [sp, #88]	; 0x58
10006844:	e7d7      	b.n	100067f6 <_vsnprintf+0xa7a>
10006846:	9b0b      	ldr	r3, [sp, #44]	; 0x2c
10006848:	781f      	ldrb	r7, [r3, #0]
1000684a:	3304      	adds	r3, #4
1000684c:	930b      	str	r3, [sp, #44]	; 0x2c
1000684e:	e5e2      	b.n	10006416 <_vsnprintf+0x69a>
10006850:	2300      	movs	r3, #0
10006852:	930c      	str	r3, [sp, #48]	; 0x30
10006854:	f7ff fb62 	bl	10005f1c <_vsnprintf+0x1a0>
10006858:	2341      	movs	r3, #65	; 0x41
1000685a:	e685      	b.n	10006568 <_vsnprintf+0x7ec>
1000685c:	2341      	movs	r3, #65	; 0x41
1000685e:	e6f0      	b.n	10006642 <_vsnprintf+0x8c6>
10006860:	2341      	movs	r3, #65	; 0x41
10006862:	e756      	b.n	10006712 <_vsnprintf+0x996>
10006864:	2341      	movs	r3, #65	; 0x41
10006866:	e795      	b.n	10006794 <_vsnprintf+0xa18>
10006868:	9a0b      	ldr	r2, [sp, #44]	; 0x2c
1000686a:	7813      	ldrb	r3, [r2, #0]
1000686c:	3204      	adds	r2, #4
1000686e:	920b      	str	r2, [sp, #44]	; 0x2c
10006870:	2200      	movs	r2, #0
10006872:	9214      	str	r2, [sp, #80]	; 0x50
10006874:	f7ff fc12 	bl	1000609c <_vsnprintf+0x320>
10006878:	2300      	movs	r3, #0
1000687a:	ae18      	add	r6, sp, #96	; 0x60
1000687c:	001a      	movs	r2, r3
1000687e:	e638      	b.n	100064f2 <_vsnprintf+0x776>
10006880:	002e      	movs	r6, r5
10006882:	e485      	b.n	10006190 <_vsnprintf+0x414>
10006884:	930c      	str	r3, [sp, #48]	; 0x30
10006886:	e527      	b.n	100062d8 <_vsnprintf+0x55c>
10006888:	464b      	mov	r3, r9
1000688a:	0035      	movs	r5, r6
1000688c:	930b      	str	r3, [sp, #44]	; 0x2c
1000688e:	3401      	adds	r4, #1
10006890:	f7ff fa8d 	bl	10005dae <_vsnprintf+0x32>
10006894:	3b06      	subs	r3, #6
10006896:	0017      	movs	r7, r2
10006898:	930e      	str	r3, [sp, #56]	; 0x38
1000689a:	2e64      	cmp	r6, #100	; 0x64
1000689c:	d000      	beq.n	100068a0 <_vsnprintf+0xb24>
1000689e:	e592      	b.n	100063c6 <_vsnprintf+0x64a>
100068a0:	0553      	lsls	r3, r2, #21
100068a2:	d500      	bpl.n	100068a6 <_vsnprintf+0xb2a>
100068a4:	e595      	b.n	100063d2 <_vsnprintf+0x656>
100068a6:	f7ff fbdc 	bl	10006062 <_vsnprintf+0x2e6>
100068aa:	46c0      	nop			; (mov r8, r8)

100068ac <vfctprintf>:
100068ac:	b500      	push	{lr}
100068ae:	b085      	sub	sp, #20
100068b0:	9300      	str	r3, [sp, #0]
100068b2:	0013      	movs	r3, r2
100068b4:	2201      	movs	r2, #1
100068b6:	9002      	str	r0, [sp, #8]
100068b8:	9103      	str	r1, [sp, #12]
100068ba:	4252      	negs	r2, r2
100068bc:	a902      	add	r1, sp, #8
100068be:	4802      	ldr	r0, [pc, #8]	; (100068c8 <vfctprintf+0x1c>)
100068c0:	f7ff fa5c 	bl	10005d7c <_vsnprintf>
100068c4:	b005      	add	sp, #20
100068c6:	bd00      	pop	{pc}
100068c8:	100050a1 	.word	0x100050a1

100068cc <weak_raw_vprintf>:
100068cc:	b510      	push	{r4, lr}
100068ce:	4a09      	ldr	r2, [pc, #36]	; (100068f4 <weak_raw_vprintf+0x28>)
100068d0:	b084      	sub	sp, #16
100068d2:	6814      	ldr	r4, [r2, #0]
100068d4:	2c00      	cmp	r4, #0
100068d6:	d009      	beq.n	100068ec <weak_raw_vprintf+0x20>
100068d8:	2201      	movs	r2, #1
100068da:	9100      	str	r1, [sp, #0]
100068dc:	0003      	movs	r3, r0
100068de:	4252      	negs	r2, r2
100068e0:	a903      	add	r1, sp, #12
100068e2:	4805      	ldr	r0, [pc, #20]	; (100068f8 <weak_raw_vprintf+0x2c>)
100068e4:	47a0      	blx	r4
100068e6:	2001      	movs	r0, #1
100068e8:	b004      	add	sp, #16
100068ea:	bd10      	pop	{r4, pc}
100068ec:	f000 ffe4 	bl	100078b8 <__wrap_puts>
100068f0:	2000      	movs	r0, #0
100068f2:	e7f9      	b.n	100068e8 <weak_raw_vprintf+0x1c>
100068f4:	20001630 	.word	0x20001630
100068f8:	100050b1 	.word	0x100050b1

100068fc <__aeabi_bits_init>:
100068fc:	4801      	ldr	r0, [pc, #4]	; (10006904 <__aeabi_bits_init+0x8>)
100068fe:	2104      	movs	r1, #4
10006900:	4b01      	ldr	r3, [pc, #4]	; (10006908 <__aeabi_bits_init+0xc>)
10006902:	4718      	bx	r3
10006904:	200002a0 	.word	0x200002a0
10006908:	10006939 	.word	0x10006939

1000690c <__wrap___ctzsi2>:
1000690c:	4b01      	ldr	r3, [pc, #4]	; (10006914 <__wrap___ctzsi2+0x8>)
1000690e:	689b      	ldr	r3, [r3, #8]
10006910:	4718      	bx	r3
10006912:	0000      	.short	0x0000
10006914:	200002a0 	.word	0x200002a0

10006918 <rom_func_lookup>:
10006918:	2314      	movs	r3, #20
1000691a:	b510      	push	{r4, lr}
1000691c:	0001      	movs	r1, r0
1000691e:	8818      	ldrh	r0, [r3, #0]
10006920:	3304      	adds	r3, #4
10006922:	881b      	ldrh	r3, [r3, #0]
10006924:	4798      	blx	r3
10006926:	bd10      	pop	{r4, pc}

10006928 <rom_data_lookup>:
10006928:	2316      	movs	r3, #22
1000692a:	b510      	push	{r4, lr}
1000692c:	0001      	movs	r1, r0
1000692e:	8818      	ldrh	r0, [r3, #0]
10006930:	3302      	adds	r3, #2
10006932:	881b      	ldrh	r3, [r3, #0]
10006934:	4798      	blx	r3
10006936:	bd10      	pop	{r4, pc}

10006938 <rom_funcs_lookup>:
10006938:	b5f8      	push	{r3, r4, r5, r6, r7, lr}
1000693a:	4647      	mov	r7, r8
1000693c:	46ce      	mov	lr, r9
1000693e:	b580      	push	{r7, lr}
10006940:	1e0f      	subs	r7, r1, #0
10006942:	d019      	beq.n	10006978 <rom_funcs_lookup+0x40>
10006944:	2314      	movs	r3, #20
10006946:	4699      	mov	r9, r3
10006948:	3304      	adds	r3, #4
1000694a:	0004      	movs	r4, r0
1000694c:	2500      	movs	r5, #0
1000694e:	2601      	movs	r6, #1
10006950:	4698      	mov	r8, r3
10006952:	464b      	mov	r3, r9
10006954:	8818      	ldrh	r0, [r3, #0]
10006956:	4643      	mov	r3, r8
10006958:	6821      	ldr	r1, [r4, #0]
1000695a:	881b      	ldrh	r3, [r3, #0]
1000695c:	4798      	blx	r3
1000695e:	c401      	stmia	r4!, {r0}
10006960:	1e43      	subs	r3, r0, #1
10006962:	4198      	sbcs	r0, r3
10006964:	3501      	adds	r5, #1
10006966:	4240      	negs	r0, r0
10006968:	4006      	ands	r6, r0
1000696a:	42af      	cmp	r7, r5
1000696c:	d1f1      	bne.n	10006952 <rom_funcs_lookup+0x1a>
1000696e:	0030      	movs	r0, r6
10006970:	bc0c      	pop	{r2, r3}
10006972:	4690      	mov	r8, r2
10006974:	4699      	mov	r9, r3
10006976:	bdf8      	pop	{r3, r4, r5, r6, r7, pc}
10006978:	2601      	movs	r6, #1
1000697a:	e7f8      	b.n	1000696e <rom_funcs_lookup+0x36>

1000697c <__wrap___aeabi_idiv>:
1000697c:	4a14      	ldr	r2, [pc, #80]	; (100069d0 <divmod_s32s32_savestate+0x20>)
1000697e:	6f93      	ldr	r3, [r2, #120]	; 0x78
10006980:	089b      	lsrs	r3, r3, #2
10006982:	d215      	bcs.n	100069b0 <divmod_s32s32_savestate>

10006984 <divmod_s32s32_unsafe>:
10006984:	6690      	str	r0, [r2, #104]	; 0x68
10006986:	66d1      	str	r1, [r2, #108]	; 0x6c
10006988:	2900      	cmp	r1, #0
1000698a:	d005      	beq.n	10006998 <divmod_s32s32_unsafe+0x14>
1000698c:	e7ff      	b.n	1000698e <divmod_s32s32_unsafe+0xa>
1000698e:	e7ff      	b.n	10006990 <divmod_s32s32_unsafe+0xc>
10006990:	e7ff      	b.n	10006992 <divmod_s32s32_unsafe+0xe>
10006992:	6f51      	ldr	r1, [r2, #116]	; 0x74
10006994:	6f10      	ldr	r0, [r2, #112]	; 0x70
10006996:	4770      	bx	lr
10006998:	b504      	push	{r2, lr}
1000699a:	2180      	movs	r1, #128	; 0x80
1000699c:	0609      	lsls	r1, r1, #24
1000699e:	17c2      	asrs	r2, r0, #31
100069a0:	4051      	eors	r1, r2
100069a2:	2800      	cmp	r0, #0
100069a4:	d000      	beq.n	100069a8 <divmod_s32s32_unsafe+0x24>
100069a6:	43c8      	mvns	r0, r1
100069a8:	f004 fd2a 	bl	1000b400 <____aeabi_idiv0_veneer>
100069ac:	2100      	movs	r1, #0
100069ae:	bd04      	pop	{r2, pc}

100069b0 <divmod_s32s32_savestate>:
100069b0:	6f93      	ldr	r3, [r2, #120]	; 0x78
100069b2:	085b      	lsrs	r3, r3, #1
100069b4:	d3fd      	bcc.n	100069b2 <divmod_s32s32_savestate+0x2>
100069b6:	b5f0      	push	{r4, r5, r6, r7, lr}
100069b8:	6e94      	ldr	r4, [r2, #104]	; 0x68
100069ba:	6ed5      	ldr	r5, [r2, #108]	; 0x6c
100069bc:	6f57      	ldr	r7, [r2, #116]	; 0x74
100069be:	6f16      	ldr	r6, [r2, #112]	; 0x70
100069c0:	f7ff ffe0 	bl	10006984 <divmod_s32s32_unsafe>
100069c4:	6694      	str	r4, [r2, #104]	; 0x68
100069c6:	66d5      	str	r5, [r2, #108]	; 0x6c
100069c8:	6757      	str	r7, [r2, #116]	; 0x74
100069ca:	6716      	str	r6, [r2, #112]	; 0x70
100069cc:	bdf0      	pop	{r4, r5, r6, r7, pc}
100069ce:	0000      	.short	0x0000
100069d0:	d0000000 	.word	0xd0000000

100069d4 <__wrap___aeabi_uidiv>:
100069d4:	4a13      	ldr	r2, [pc, #76]	; (10006a24 <divmod_u32u32_savestate+0x20>)
100069d6:	6f93      	ldr	r3, [r2, #120]	; 0x78
100069d8:	089b      	lsrs	r3, r3, #2
100069da:	d213      	bcs.n	10006a04 <divmod_u32u32_savestate>

100069dc <divmod_u32u32_unsafe>:
100069dc:	6610      	str	r0, [r2, #96]	; 0x60
100069de:	6651      	str	r1, [r2, #100]	; 0x64
100069e0:	2900      	cmp	r1, #0
100069e2:	d005      	beq.n	100069f0 <divmod_u32u32_unsafe+0x14>
100069e4:	e7ff      	b.n	100069e6 <divmod_u32u32_unsafe+0xa>
100069e6:	e7ff      	b.n	100069e8 <divmod_u32u32_unsafe+0xc>
100069e8:	e7ff      	b.n	100069ea <divmod_u32u32_unsafe+0xe>
100069ea:	6f51      	ldr	r1, [r2, #116]	; 0x74
100069ec:	6f10      	ldr	r0, [r2, #112]	; 0x70
100069ee:	4770      	bx	lr
100069f0:	b504      	push	{r2, lr}
100069f2:	2800      	cmp	r0, #0
100069f4:	d001      	beq.n	100069fa <divmod_u32u32_unsafe+0x1e>
100069f6:	2000      	movs	r0, #0
100069f8:	43c0      	mvns	r0, r0
100069fa:	f004 fd01 	bl	1000b400 <____aeabi_idiv0_veneer>
100069fe:	2100      	movs	r1, #0
10006a00:	bd04      	pop	{r2, pc}
10006a02:	46c0      	nop			; (mov r8, r8)

10006a04 <divmod_u32u32_savestate>:
10006a04:	6f93      	ldr	r3, [r2, #120]	; 0x78
10006a06:	085b      	lsrs	r3, r3, #1
10006a08:	d3fd      	bcc.n	10006a06 <divmod_u32u32_savestate+0x2>
10006a0a:	b5f0      	push	{r4, r5, r6, r7, lr}
10006a0c:	6e94      	ldr	r4, [r2, #104]	; 0x68
10006a0e:	6ed5      	ldr	r5, [r2, #108]	; 0x6c
10006a10:	6f57      	ldr	r7, [r2, #116]	; 0x74
10006a12:	6f16      	ldr	r6, [r2, #112]	; 0x70
10006a14:	f7ff ffe2 	bl	100069dc <divmod_u32u32_unsafe>
10006a18:	6694      	str	r4, [r2, #104]	; 0x68
10006a1a:	66d5      	str	r5, [r2, #108]	; 0x6c
10006a1c:	6757      	str	r7, [r2, #116]	; 0x74
10006a1e:	6716      	str	r6, [r2, #112]	; 0x70
10006a20:	bdf0      	pop	{r4, r5, r6, r7, pc}
10006a22:	0000      	.short	0x0000
10006a24:	d0000000 	.word	0xd0000000

10006a28 <__wrap___aeabi_ldivmod>:
10006a28:	4694      	mov	ip, r2
10006a2a:	4a4e      	ldr	r2, [pc, #312]	; (10006b64 <udiv0+0x1a>)
10006a2c:	6f92      	ldr	r2, [r2, #120]	; 0x78
10006a2e:	0892      	lsrs	r2, r2, #2
10006a30:	4662      	mov	r2, ip
10006a32:	d201      	bcs.n	10006a38 <divmod_s64s64_savestate>
10006a34:	e030      	b.n	10006a98 <divmod_s64s64_unsafe>
10006a36:	46c0      	nop			; (mov r8, r8)

10006a38 <divmod_s64s64_savestate>:
10006a38:	b5f0      	push	{r4, r5, r6, r7, lr}
10006a3a:	4e4a      	ldr	r6, [pc, #296]	; (10006b64 <udiv0+0x1a>)
10006a3c:	6fb5      	ldr	r5, [r6, #120]	; 0x78
10006a3e:	086d      	lsrs	r5, r5, #1
10006a40:	d3fc      	bcc.n	10006a3c <divmod_s64s64_savestate+0x4>
10006a42:	6e34      	ldr	r4, [r6, #96]	; 0x60
10006a44:	6e75      	ldr	r5, [r6, #100]	; 0x64
10006a46:	6f77      	ldr	r7, [r6, #116]	; 0x74
10006a48:	6f36      	ldr	r6, [r6, #112]	; 0x70
10006a4a:	f000 f825 	bl	10006a98 <divmod_s64s64_unsafe>
10006a4e:	4694      	mov	ip, r2
10006a50:	4a44      	ldr	r2, [pc, #272]	; (10006b64 <udiv0+0x1a>)
10006a52:	6614      	str	r4, [r2, #96]	; 0x60
10006a54:	6655      	str	r5, [r2, #100]	; 0x64
10006a56:	6757      	str	r7, [r2, #116]	; 0x74
10006a58:	6716      	str	r6, [r2, #112]	; 0x70
10006a5a:	4662      	mov	r2, ip
10006a5c:	bdf0      	pop	{r4, r5, r6, r7, pc}
10006a5e:	46c0      	nop			; (mov r8, r8)

10006a60 <__wrap___aeabi_uldivmod>:
10006a60:	4694      	mov	ip, r2
10006a62:	4a40      	ldr	r2, [pc, #256]	; (10006b64 <udiv0+0x1a>)
10006a64:	6f92      	ldr	r2, [r2, #120]	; 0x78
10006a66:	0892      	lsrs	r2, r2, #2
10006a68:	4662      	mov	r2, ip
10006a6a:	d201      	bcs.n	10006a70 <divmod_u64u64_savestate>
10006a6c:	e058      	b.n	10006b20 <divmod_u64u64_unsafe>
10006a6e:	46c0      	nop			; (mov r8, r8)

10006a70 <divmod_u64u64_savestate>:
10006a70:	b5f0      	push	{r4, r5, r6, r7, lr}
10006a72:	4e3c      	ldr	r6, [pc, #240]	; (10006b64 <udiv0+0x1a>)
10006a74:	6fb5      	ldr	r5, [r6, #120]	; 0x78
10006a76:	086d      	lsrs	r5, r5, #1
10006a78:	d3fc      	bcc.n	10006a74 <divmod_u64u64_savestate+0x4>
10006a7a:	6e34      	ldr	r4, [r6, #96]	; 0x60
10006a7c:	6e75      	ldr	r5, [r6, #100]	; 0x64
10006a7e:	6f77      	ldr	r7, [r6, #116]	; 0x74
10006a80:	6f36      	ldr	r6, [r6, #112]	; 0x70
10006a82:	f000 f84d 	bl	10006b20 <divmod_u64u64_unsafe>
10006a86:	4694      	mov	ip, r2
10006a88:	4a36      	ldr	r2, [pc, #216]	; (10006b64 <udiv0+0x1a>)
10006a8a:	6614      	str	r4, [r2, #96]	; 0x60
10006a8c:	6655      	str	r5, [r2, #100]	; 0x64
10006a8e:	6757      	str	r7, [r2, #116]	; 0x74
10006a90:	6716      	str	r6, [r2, #112]	; 0x70
10006a92:	4662      	mov	r2, ip
10006a94:	bdf0      	pop	{r4, r5, r6, r7, pc}
10006a96:	46c0      	nop			; (mov r8, r8)

10006a98 <divmod_s64s64_unsafe>:
10006a98:	2b00      	cmp	r3, #0
10006a9a:	db24      	blt.n	10006ae6 <l41_1+0x26>
10006a9c:	d011      	beq.n	10006ac2 <l41_1+0x2>
10006a9e:	2900      	cmp	r1, #0
10006aa0:	da3e      	bge.n	10006b20 <divmod_u64u64_unsafe>
10006aa2:	b500      	push	{lr}
10006aa4:	43c9      	mvns	r1, r1
10006aa6:	4240      	negs	r0, r0
10006aa8:	d100      	bne.n	10006aac <l39_1>
10006aaa:	3101      	adds	r1, #1

10006aac <l39_1>:
10006aac:	f000 f838 	bl	10006b20 <divmod_u64u64_unsafe>
10006ab0:	43c9      	mvns	r1, r1
10006ab2:	4240      	negs	r0, r0
10006ab4:	d100      	bne.n	10006ab8 <l40_1>
10006ab6:	3101      	adds	r1, #1

10006ab8 <l40_1>:
10006ab8:	43db      	mvns	r3, r3
10006aba:	4252      	negs	r2, r2
10006abc:	d100      	bne.n	10006ac0 <l41_1>
10006abe:	3301      	adds	r3, #1

10006ac0 <l41_1>:
10006ac0:	bd00      	pop	{pc}
10006ac2:	2a00      	cmp	r2, #0
10006ac4:	d1eb      	bne.n	10006a9e <divmod_s64s64_unsafe+0x6>
10006ac6:	2800      	cmp	r0, #0
10006ac8:	d101      	bne.n	10006ace <l41_1+0xe>
10006aca:	2900      	cmp	r1, #0
10006acc:	d005      	beq.n	10006ada <l41_1+0x1a>
10006ace:	2000      	movs	r0, #0
10006ad0:	0fc9      	lsrs	r1, r1, #31
10006ad2:	07c9      	lsls	r1, r1, #31
10006ad4:	d101      	bne.n	10006ada <l41_1+0x1a>
10006ad6:	43c0      	mvns	r0, r0
10006ad8:	0841      	lsrs	r1, r0, #1
10006ada:	b500      	push	{lr}
10006adc:	f004 fc88 	bl	1000b3f0 <____aeabi_ldiv0_veneer>
10006ae0:	2200      	movs	r2, #0
10006ae2:	2300      	movs	r3, #0
10006ae4:	bd00      	pop	{pc}
10006ae6:	b500      	push	{lr}
10006ae8:	2900      	cmp	r1, #0
10006aea:	db0a      	blt.n	10006b02 <l43_1+0x2>
10006aec:	43db      	mvns	r3, r3
10006aee:	4252      	negs	r2, r2
10006af0:	d100      	bne.n	10006af4 <l42_1>
10006af2:	3301      	adds	r3, #1

10006af4 <l42_1>:
10006af4:	f000 f814 	bl	10006b20 <divmod_u64u64_unsafe>
10006af8:	43c9      	mvns	r1, r1
10006afa:	4240      	negs	r0, r0
10006afc:	d100      	bne.n	10006b00 <l43_1>
10006afe:	3101      	adds	r1, #1

10006b00 <l43_1>:
10006b00:	bd00      	pop	{pc}
10006b02:	43c9      	mvns	r1, r1
10006b04:	4240      	negs	r0, r0
10006b06:	d100      	bne.n	10006b0a <l44_1>
10006b08:	3101      	adds	r1, #1

10006b0a <l44_1>:
10006b0a:	43db      	mvns	r3, r3
10006b0c:	4252      	negs	r2, r2
10006b0e:	d100      	bne.n	10006b12 <l45_1>
10006b10:	3301      	adds	r3, #1

10006b12 <l45_1>:
10006b12:	f000 f805 	bl	10006b20 <divmod_u64u64_unsafe>
10006b16:	43db      	mvns	r3, r3
10006b18:	4252      	negs	r2, r2
10006b1a:	d100      	bne.n	10006b1e <l46_1>
10006b1c:	3301      	adds	r3, #1

10006b1e <l46_1>:
10006b1e:	bd00      	pop	{pc}

10006b20 <divmod_u64u64_unsafe>:
10006b20:	2900      	cmp	r1, #0
10006b22:	d123      	bne.n	10006b6c <y64>
10006b24:	2b00      	cmp	r3, #0
10006b26:	d118      	bne.n	10006b5a <udiv0+0x10>
10006b28:	2a00      	cmp	r2, #0
10006b2a:	d00c      	beq.n	10006b46 <divmod_u64u64_unsafe+0x26>
10006b2c:	46bc      	mov	ip, r7
10006b2e:	4f0d      	ldr	r7, [pc, #52]	; (10006b64 <udiv0+0x1a>)
10006b30:	6638      	str	r0, [r7, #96]	; 0x60
10006b32:	667a      	str	r2, [r7, #100]	; 0x64
10006b34:	2100      	movs	r1, #0
10006b36:	2300      	movs	r3, #0
10006b38:	e7ff      	b.n	10006b3a <divmod_u64u64_unsafe+0x1a>
10006b3a:	e7ff      	b.n	10006b3c <divmod_u64u64_unsafe+0x1c>
10006b3c:	e7ff      	b.n	10006b3e <divmod_u64u64_unsafe+0x1e>
10006b3e:	6f7a      	ldr	r2, [r7, #116]	; 0x74
10006b40:	6f38      	ldr	r0, [r7, #112]	; 0x70
10006b42:	4667      	mov	r7, ip
10006b44:	4770      	bx	lr
10006b46:	2800      	cmp	r0, #0
10006b48:	d001      	beq.n	10006b4e <udiv0+0x4>

10006b4a <udiv0>:
10006b4a:	4807      	ldr	r0, [pc, #28]	; (10006b68 <udiv0+0x1e>)
10006b4c:	0001      	movs	r1, r0
10006b4e:	b500      	push	{lr}
10006b50:	f004 fc4e 	bl	1000b3f0 <____aeabi_ldiv0_veneer>
10006b54:	2200      	movs	r2, #0
10006b56:	2300      	movs	r3, #0
10006b58:	bd00      	pop	{pc}
10006b5a:	0002      	movs	r2, r0
10006b5c:	000b      	movs	r3, r1
10006b5e:	2000      	movs	r0, #0
10006b60:	2100      	movs	r1, #0
10006b62:	4770      	bx	lr
10006b64:	d0000000 	.word	0xd0000000
10006b68:	ffffffff 	.word	0xffffffff

10006b6c <y64>:
10006b6c:	2b00      	cmp	r3, #0
10006b6e:	d000      	beq.n	10006b72 <y64+0x6>
10006b70:	e0bd      	b.n	10006cee <y64_x48>
10006b72:	0c13      	lsrs	r3, r2, #16
10006b74:	d126      	bne.n	10006bc4 <y64_x32>
10006b76:	2a00      	cmp	r2, #0
10006b78:	d0e7      	beq.n	10006b4a <udiv0>
10006b7a:	b480      	push	{r7}
10006b7c:	4f10      	ldr	r7, [pc, #64]	; (10006bc0 <y64+0x54>)
10006b7e:	6639      	str	r1, [r7, #96]	; 0x60
10006b80:	667a      	str	r2, [r7, #100]	; 0x64
10006b82:	e7ff      	b.n	10006b84 <y64+0x18>
10006b84:	e7ff      	b.n	10006b86 <y64+0x1a>
10006b86:	b430      	push	{r4, r5}
10006b88:	0c04      	lsrs	r4, r0, #16
10006b8a:	6f7b      	ldr	r3, [r7, #116]	; 0x74
10006b8c:	6f39      	ldr	r1, [r7, #112]	; 0x70
10006b8e:	041b      	lsls	r3, r3, #16
10006b90:	4323      	orrs	r3, r4
10006b92:	663b      	str	r3, [r7, #96]	; 0x60
10006b94:	e7ff      	b.n	10006b96 <y64+0x2a>
10006b96:	e7ff      	b.n	10006b98 <y64+0x2c>
10006b98:	e7ff      	b.n	10006b9a <y64+0x2e>
10006b9a:	46c0      	nop			; (mov r8, r8)
10006b9c:	b284      	uxth	r4, r0
10006b9e:	6f7b      	ldr	r3, [r7, #116]	; 0x74
10006ba0:	6f3d      	ldr	r5, [r7, #112]	; 0x70
10006ba2:	041b      	lsls	r3, r3, #16
10006ba4:	4323      	orrs	r3, r4
10006ba6:	663b      	str	r3, [r7, #96]	; 0x60
10006ba8:	e7ff      	b.n	10006baa <y64+0x3e>
10006baa:	e7ff      	b.n	10006bac <y64+0x40>
10006bac:	46c0      	nop			; (mov r8, r8)
10006bae:	2300      	movs	r3, #0
10006bb0:	042c      	lsls	r4, r5, #16
10006bb2:	0c2d      	lsrs	r5, r5, #16
10006bb4:	6f7a      	ldr	r2, [r7, #116]	; 0x74
10006bb6:	6f38      	ldr	r0, [r7, #112]	; 0x70
10006bb8:	1900      	adds	r0, r0, r4
10006bba:	4169      	adcs	r1, r5
10006bbc:	bcb0      	pop	{r4, r5, r7}
10006bbe:	4770      	bx	lr
10006bc0:	d0000000 	.word	0xd0000000

10006bc4 <y64_x32>:
10006bc4:	b5f0      	push	{r4, r5, r6, r7, lr}
10006bc6:	4694      	mov	ip, r2
10006bc8:	2500      	movs	r5, #0
10006bca:	0e14      	lsrs	r4, r2, #24
10006bcc:	d101      	bne.n	10006bd2 <y64_x32+0xe>
10006bce:	0212      	lsls	r2, r2, #8
10006bd0:	3508      	adds	r5, #8
10006bd2:	0f14      	lsrs	r4, r2, #28
10006bd4:	d101      	bne.n	10006bda <y64_x32+0x16>
10006bd6:	0112      	lsls	r2, r2, #4
10006bd8:	3504      	adds	r5, #4
10006bda:	0f94      	lsrs	r4, r2, #30
10006bdc:	d101      	bne.n	10006be2 <y64_x32+0x1e>
10006bde:	0092      	lsls	r2, r2, #2
10006be0:	3502      	adds	r5, #2
10006be2:	0fd4      	lsrs	r4, r2, #31
10006be4:	d101      	bne.n	10006bea <y64_x32+0x26>
10006be6:	0052      	lsls	r2, r2, #1
10006be8:	3501      	adds	r5, #1
10006bea:	0bd4      	lsrs	r4, r2, #15
10006bec:	3401      	adds	r4, #1
10006bee:	4f25      	ldr	r7, [pc, #148]	; (10006c84 <y64_x32+0xc0>)
10006bf0:	667c      	str	r4, [r7, #100]	; 0x64
10006bf2:	4c25      	ldr	r4, [pc, #148]	; (10006c88 <y64_x32+0xc4>)
10006bf4:	663c      	str	r4, [r7, #96]	; 0x60
10006bf6:	0c0e      	lsrs	r6, r1, #16
10006bf8:	b293      	uxth	r3, r2
10006bfa:	e7ff      	b.n	10006bfc <y64_x32+0x38>
10006bfc:	e7ff      	b.n	10006bfe <y64_x32+0x3a>
10006bfe:	e7ff      	b.n	10006c00 <y64_x32+0x3c>
10006c00:	6f3c      	ldr	r4, [r7, #112]	; 0x70
10006c02:	4366      	muls	r6, r4
10006c04:	0c36      	lsrs	r6, r6, #16
10006c06:	0377      	lsls	r7, r6, #13
10006c08:	46be      	mov	lr, r7
10006c0a:	4373      	muls	r3, r6
10006c0c:	0bdf      	lsrs	r7, r3, #15
10006c0e:	045b      	lsls	r3, r3, #17
10006c10:	1ac0      	subs	r0, r0, r3
10006c12:	41b9      	sbcs	r1, r7
10006c14:	0c13      	lsrs	r3, r2, #16
10006c16:	4373      	muls	r3, r6
10006c18:	18db      	adds	r3, r3, r3
10006c1a:	1ac9      	subs	r1, r1, r3
10006c1c:	08ce      	lsrs	r6, r1, #3
10006c1e:	4366      	muls	r6, r4
10006c20:	0c36      	lsrs	r6, r6, #16
10006c22:	44b6      	add	lr, r6
10006c24:	b293      	uxth	r3, r2
10006c26:	4373      	muls	r3, r6
10006c28:	0f1f      	lsrs	r7, r3, #28
10006c2a:	011b      	lsls	r3, r3, #4
10006c2c:	1ac0      	subs	r0, r0, r3
10006c2e:	41b9      	sbcs	r1, r7
10006c30:	0c13      	lsrs	r3, r2, #16
10006c32:	4373      	muls	r3, r6
10006c34:	0b1f      	lsrs	r7, r3, #12
10006c36:	051b      	lsls	r3, r3, #20
10006c38:	1ac0      	subs	r0, r0, r3
10006c3a:	41b9      	sbcs	r1, r7
10006c3c:	0d86      	lsrs	r6, r0, #22
10006c3e:	028f      	lsls	r7, r1, #10
10006c40:	433e      	orrs	r6, r7
10006c42:	4366      	muls	r6, r4
10006c44:	0c36      	lsrs	r6, r6, #16
10006c46:	2d09      	cmp	r5, #9
10006c48:	db24      	blt.n	10006c94 <last0>
10006c4a:	0a52      	lsrs	r2, r2, #9
10006c4c:	4372      	muls	r2, r6
10006c4e:	1a80      	subs	r0, r0, r2
10006c50:	0377      	lsls	r7, r6, #13
10006c52:	0a46      	lsrs	r6, r0, #9
10006c54:	4366      	muls	r6, r4
10006c56:	0c36      	lsrs	r6, r6, #16
10006c58:	2316      	movs	r3, #22
10006c5a:	1b5b      	subs	r3, r3, r5
10006c5c:	40de      	lsrs	r6, r3
10006c5e:	40df      	lsrs	r7, r3
10006c60:	19bf      	adds	r7, r7, r6
10006c62:	4664      	mov	r4, ip
10006c64:	4366      	muls	r6, r4
10006c66:	1b82      	subs	r2, r0, r6
10006c68:	4670      	mov	r0, lr
10006c6a:	3504      	adds	r5, #4
10006c6c:	3306      	adds	r3, #6
10006c6e:	0001      	movs	r1, r0
10006c70:	40d9      	lsrs	r1, r3
10006c72:	40a8      	lsls	r0, r5
10006c74:	19c0      	adds	r0, r0, r7
10006c76:	d300      	bcc.n	10006c7a <y64_x32+0xb6>
10006c78:	3101      	adds	r1, #1
10006c7a:	42a2      	cmp	r2, r4
10006c7c:	d206      	bcs.n	10006c8c <y64_x32+0xc8>
10006c7e:	2300      	movs	r3, #0
10006c80:	bdf0      	pop	{r4, r5, r6, r7, pc}
10006c82:	0000      	.short	0x0000
10006c84:	d0000000 	.word	0xd0000000
10006c88:	ffffffff 	.word	0xffffffff
10006c8c:	1b12      	subs	r2, r2, r4
10006c8e:	3001      	adds	r0, #1
10006c90:	d3f3      	bcc.n	10006c7a <y64_x32+0xb6>
10006c92:	e7f1      	b.n	10006c78 <y64_x32+0xb4>

10006c94 <last0>:
10006c94:	2709      	movs	r7, #9
10006c96:	1b7f      	subs	r7, r7, r5
10006c98:	40fe      	lsrs	r6, r7
10006c9a:	4664      	mov	r4, ip
10006c9c:	b2a2      	uxth	r2, r4
10006c9e:	4372      	muls	r2, r6
10006ca0:	1a80      	subs	r0, r0, r2
10006ca2:	d200      	bcs.n	10006ca6 <last0+0x12>
10006ca4:	3901      	subs	r1, #1
10006ca6:	0c22      	lsrs	r2, r4, #16
10006ca8:	4372      	muls	r2, r6
10006caa:	0c13      	lsrs	r3, r2, #16
10006cac:	0412      	lsls	r2, r2, #16
10006cae:	1a82      	subs	r2, r0, r2
10006cb0:	4199      	sbcs	r1, r3
10006cb2:	000b      	movs	r3, r1
10006cb4:	4670      	mov	r0, lr
10006cb6:	3504      	adds	r5, #4
10006cb8:	3713      	adds	r7, #19
10006cba:	0001      	movs	r1, r0
10006cbc:	40f9      	lsrs	r1, r7
10006cbe:	40a8      	lsls	r0, r5
10006cc0:	1980      	adds	r0, r0, r6
10006cc2:	d300      	bcc.n	10006cc6 <last0+0x32>
10006cc4:	3101      	adds	r1, #1
10006cc6:	2b00      	cmp	r3, #0
10006cc8:	d102      	bne.n	10006cd0 <last0+0x3c>
10006cca:	42a2      	cmp	r2, r4
10006ccc:	d20a      	bcs.n	10006ce4 <last0+0x50>
10006cce:	bdf0      	pop	{r4, r5, r6, r7, pc}
10006cd0:	3001      	adds	r0, #1
10006cd2:	d300      	bcc.n	10006cd6 <last0+0x42>
10006cd4:	3101      	adds	r1, #1
10006cd6:	1b12      	subs	r2, r2, r4
10006cd8:	d2fa      	bcs.n	10006cd0 <last0+0x3c>
10006cda:	3b01      	subs	r3, #1
10006cdc:	d1f8      	bne.n	10006cd0 <last0+0x3c>
10006cde:	42a2      	cmp	r2, r4
10006ce0:	d200      	bcs.n	10006ce4 <last0+0x50>
10006ce2:	bdf0      	pop	{r4, r5, r6, r7, pc}
10006ce4:	3001      	adds	r0, #1
10006ce6:	d300      	bcc.n	10006cea <last0+0x56>
10006ce8:	3101      	adds	r1, #1
10006cea:	1b12      	subs	r2, r2, r4
10006cec:	e7f7      	b.n	10006cde <last0+0x4a>

10006cee <y64_x48>:
10006cee:	b5f0      	push	{r4, r5, r6, r7, lr}
10006cf0:	0c1c      	lsrs	r4, r3, #16
10006cf2:	d000      	beq.n	10006cf6 <y64_x48+0x8>
10006cf4:	e080      	b.n	10006df8 <y64_x64>
10006cf6:	b40c      	push	{r2, r3}
10006cf8:	2500      	movs	r5, #0
10006cfa:	0a1c      	lsrs	r4, r3, #8
10006cfc:	d104      	bne.n	10006d08 <y64_x48+0x1a>
10006cfe:	021b      	lsls	r3, r3, #8
10006d00:	0e16      	lsrs	r6, r2, #24
10006d02:	4333      	orrs	r3, r6
10006d04:	0212      	lsls	r2, r2, #8
10006d06:	3508      	adds	r5, #8
10006d08:	0b1c      	lsrs	r4, r3, #12
10006d0a:	d104      	bne.n	10006d16 <y64_x48+0x28>
10006d0c:	011b      	lsls	r3, r3, #4
10006d0e:	0f16      	lsrs	r6, r2, #28
10006d10:	4333      	orrs	r3, r6
10006d12:	0112      	lsls	r2, r2, #4
10006d14:	3504      	adds	r5, #4
10006d16:	0b9c      	lsrs	r4, r3, #14
10006d18:	d104      	bne.n	10006d24 <y64_x48+0x36>
10006d1a:	009b      	lsls	r3, r3, #2
10006d1c:	0f96      	lsrs	r6, r2, #30
10006d1e:	4333      	orrs	r3, r6
10006d20:	0092      	lsls	r2, r2, #2
10006d22:	3502      	adds	r5, #2
10006d24:	0bdc      	lsrs	r4, r3, #15
10006d26:	d102      	bne.n	10006d2e <y64_x48+0x40>
10006d28:	1892      	adds	r2, r2, r2
10006d2a:	415b      	adcs	r3, r3
10006d2c:	3501      	adds	r5, #1
10006d2e:	001c      	movs	r4, r3
10006d30:	1897      	adds	r7, r2, r2
10006d32:	4164      	adcs	r4, r4
10006d34:	3401      	adds	r4, #1
10006d36:	4f46      	ldr	r7, [pc, #280]	; (10006e50 <y64_x64+0x58>)
10006d38:	667c      	str	r4, [r7, #100]	; 0x64
10006d3a:	4c46      	ldr	r4, [pc, #280]	; (10006e54 <y64_x64+0x5c>)
10006d3c:	663c      	str	r4, [r7, #96]	; 0x60
10006d3e:	0c0e      	lsrs	r6, r1, #16
10006d40:	e7ff      	b.n	10006d42 <y64_x48+0x54>
10006d42:	e7ff      	b.n	10006d44 <y64_x48+0x56>
10006d44:	e7ff      	b.n	10006d46 <y64_x48+0x58>
10006d46:	46c0      	nop			; (mov r8, r8)
10006d48:	6f3c      	ldr	r4, [r7, #112]	; 0x70
10006d4a:	4366      	muls	r6, r4
10006d4c:	0c36      	lsrs	r6, r6, #16
10006d4e:	0377      	lsls	r7, r6, #13
10006d50:	46be      	mov	lr, r7
10006d52:	b297      	uxth	r7, r2
10006d54:	4377      	muls	r7, r6
10006d56:	1bc0      	subs	r0, r0, r7
10006d58:	d200      	bcs.n	10006d5c <y64_x48+0x6e>
10006d5a:	3901      	subs	r1, #1
10006d5c:	1bc0      	subs	r0, r0, r7
10006d5e:	d200      	bcs.n	10006d62 <y64_x48+0x74>
10006d60:	3901      	subs	r1, #1
10006d62:	b29f      	uxth	r7, r3
10006d64:	4377      	muls	r7, r6
10006d66:	1bc9      	subs	r1, r1, r7
10006d68:	1bc9      	subs	r1, r1, r7
10006d6a:	0c17      	lsrs	r7, r2, #16
10006d6c:	4377      	muls	r7, r6
10006d6e:	047e      	lsls	r6, r7, #17
10006d70:	0bff      	lsrs	r7, r7, #15
10006d72:	1b80      	subs	r0, r0, r6
10006d74:	41b9      	sbcs	r1, r7
10006d76:	08ce      	lsrs	r6, r1, #3
10006d78:	4366      	muls	r6, r4
10006d7a:	0c36      	lsrs	r6, r6, #16
10006d7c:	2d0c      	cmp	r5, #12
10006d7e:	db33      	blt.n	10006de8 <last1>
10006d80:	44b6      	add	lr, r6
10006d82:	0b12      	lsrs	r2, r2, #12
10006d84:	051f      	lsls	r7, r3, #20
10006d86:	433a      	orrs	r2, r7
10006d88:	0b1b      	lsrs	r3, r3, #12
10006d8a:	b297      	uxth	r7, r2
10006d8c:	4377      	muls	r7, r6
10006d8e:	1bc0      	subs	r0, r0, r7
10006d90:	d200      	bcs.n	10006d94 <y64_x48+0xa6>
10006d92:	3901      	subs	r1, #1
10006d94:	b29f      	uxth	r7, r3
10006d96:	4377      	muls	r7, r6
10006d98:	1bc9      	subs	r1, r1, r7
10006d9a:	0c17      	lsrs	r7, r2, #16
10006d9c:	4377      	muls	r7, r6
10006d9e:	043e      	lsls	r6, r7, #16
10006da0:	0c3f      	lsrs	r7, r7, #16
10006da2:	1b80      	subs	r0, r0, r6
10006da4:	41b9      	sbcs	r1, r7
10006da6:	0d86      	lsrs	r6, r0, #22
10006da8:	028f      	lsls	r7, r1, #10
10006daa:	433e      	orrs	r6, r7
10006dac:	4366      	muls	r6, r4
10006dae:	2729      	movs	r7, #41	; 0x29
10006db0:	1b7f      	subs	r7, r7, r5
10006db2:	40fe      	lsrs	r6, r7
10006db4:	3d0c      	subs	r5, #12
10006db6:	4677      	mov	r7, lr
10006db8:	40af      	lsls	r7, r5
10006dba:	19bf      	adds	r7, r7, r6
10006dbc:	bc30      	pop	{r4, r5}
10006dbe:	b2a2      	uxth	r2, r4
10006dc0:	b2ab      	uxth	r3, r5
10006dc2:	4372      	muls	r2, r6
10006dc4:	4373      	muls	r3, r6
10006dc6:	1a80      	subs	r0, r0, r2
10006dc8:	4199      	sbcs	r1, r3
10006dca:	0c22      	lsrs	r2, r4, #16
10006dcc:	4372      	muls	r2, r6
10006dce:	0c13      	lsrs	r3, r2, #16
10006dd0:	0412      	lsls	r2, r2, #16
10006dd2:	1a80      	subs	r0, r0, r2
10006dd4:	4199      	sbcs	r1, r3
10006dd6:	0002      	movs	r2, r0
10006dd8:	000b      	movs	r3, r1
10006dda:	3701      	adds	r7, #1
10006ddc:	1b00      	subs	r0, r0, r4
10006dde:	41a9      	sbcs	r1, r5
10006de0:	d2f9      	bcs.n	10006dd6 <y64_x48+0xe8>
10006de2:	1e78      	subs	r0, r7, #1
10006de4:	2100      	movs	r1, #0
10006de6:	bdf0      	pop	{r4, r5, r6, r7, pc}

10006de8 <last1>:
10006de8:	270c      	movs	r7, #12
10006dea:	1b7f      	subs	r7, r7, r5
10006dec:	40fe      	lsrs	r6, r7
10006dee:	4677      	mov	r7, lr
10006df0:	0b7f      	lsrs	r7, r7, #13
10006df2:	40af      	lsls	r7, r5
10006df4:	19ff      	adds	r7, r7, r7
10006df6:	e7e0      	b.n	10006dba <y64_x48+0xcc>

10006df8 <y64_x64>:
10006df8:	2400      	movs	r4, #0
10006dfa:	1c5d      	adds	r5, r3, #1
10006dfc:	d007      	beq.n	10006e0e <y64_x64+0x16>
10006dfe:	4f14      	ldr	r7, [pc, #80]	; (10006e50 <y64_x64+0x58>)
10006e00:	667d      	str	r5, [r7, #100]	; 0x64
10006e02:	6639      	str	r1, [r7, #96]	; 0x60
10006e04:	e7ff      	b.n	10006e06 <y64_x64+0xe>
10006e06:	e7ff      	b.n	10006e08 <y64_x64+0x10>
10006e08:	e7ff      	b.n	10006e0a <y64_x64+0x12>
10006e0a:	e7ff      	b.n	10006e0c <y64_x64+0x14>
10006e0c:	6f3c      	ldr	r4, [r7, #112]	; 0x70
10006e0e:	b295      	uxth	r5, r2
10006e10:	b29e      	uxth	r6, r3
10006e12:	4365      	muls	r5, r4
10006e14:	4366      	muls	r6, r4
10006e16:	1b40      	subs	r0, r0, r5
10006e18:	41b1      	sbcs	r1, r6
10006e1a:	0c15      	lsrs	r5, r2, #16
10006e1c:	0c1e      	lsrs	r6, r3, #16
10006e1e:	4365      	muls	r5, r4
10006e20:	4366      	muls	r6, r4
10006e22:	0436      	lsls	r6, r6, #16
10006e24:	0c2f      	lsrs	r7, r5, #16
10006e26:	433e      	orrs	r6, r7
10006e28:	042d      	lsls	r5, r5, #16
10006e2a:	1b40      	subs	r0, r0, r5
10006e2c:	41b1      	sbcs	r1, r6
10006e2e:	4299      	cmp	r1, r3
10006e30:	d204      	bcs.n	10006e3c <y64_x64+0x44>
10006e32:	0002      	movs	r2, r0
10006e34:	000b      	movs	r3, r1
10006e36:	0020      	movs	r0, r4
10006e38:	2100      	movs	r1, #0
10006e3a:	bdf0      	pop	{r4, r5, r6, r7, pc}
10006e3c:	d101      	bne.n	10006e42 <y64_x64+0x4a>
10006e3e:	4290      	cmp	r0, r2
10006e40:	d3f7      	bcc.n	10006e32 <y64_x64+0x3a>
10006e42:	1a80      	subs	r0, r0, r2
10006e44:	4199      	sbcs	r1, r3
10006e46:	3401      	adds	r4, #1
10006e48:	4299      	cmp	r1, r3
10006e4a:	d3f2      	bcc.n	10006e32 <y64_x64+0x3a>
10006e4c:	e7f6      	b.n	10006e3c <y64_x64+0x44>
10006e4e:	0000      	.short	0x0000
10006e50:	d0000000 	.word	0xd0000000
10006e54:	ffffffff 	.word	0xffffffff

10006e58 <__wrap___aeabi_drsub>:
10006e58:	4048      	eors	r0, r1
10006e5a:	4041      	eors	r1, r0
10006e5c:	4048      	eors	r0, r1

10006e5e <__wrap___aeabi_dsub>:
10006e5e:	b418      	push	{r3, r4}
10006e60:	4b11      	ldr	r3, [pc, #68]	; (10006ea8 <__wrap___aeabi_dmul+0x14>)
10006e62:	685b      	ldr	r3, [r3, #4]
10006e64:	46fc      	mov	ip, pc
10006e66:	9301      	str	r3, [sp, #4]
10006e68:	bd08      	pop	{r3, pc}
10006e6a:	df04      	.short	0xdf04
10006e6c:	10007073 	.word	0x10007073

10006e70 <__wrap___aeabi_dadd>:
10006e70:	b418      	push	{r3, r4}
10006e72:	4b0d      	ldr	r3, [pc, #52]	; (10006ea8 <__wrap___aeabi_dmul+0x14>)
10006e74:	681b      	ldr	r3, [r3, #0]
10006e76:	46fc      	mov	ip, pc
10006e78:	9301      	str	r3, [sp, #4]
10006e7a:	bd08      	pop	{r3, pc}
10006e7c:	707ddf00 	.word	0x707ddf00
10006e80:	1000      	.short	0x1000

10006e82 <__wrap___aeabi_ddiv>:
10006e82:	b418      	push	{r3, r4}
10006e84:	4b08      	ldr	r3, [pc, #32]	; (10006ea8 <__wrap___aeabi_dmul+0x14>)
10006e86:	68db      	ldr	r3, [r3, #12]
10006e88:	46fc      	mov	ip, pc
10006e8a:	9301      	str	r3, [sp, #4]
10006e8c:	bd08      	pop	{r3, pc}
10006e8e:	df0c      	.short	0xdf0c
10006e90:	10007335 	.word	0x10007335

10006e94 <__wrap___aeabi_dmul>:
10006e94:	b418      	push	{r3, r4}
10006e96:	4b04      	ldr	r3, [pc, #16]	; (10006ea8 <__wrap___aeabi_dmul+0x14>)
10006e98:	689b      	ldr	r3, [r3, #8]
10006e9a:	46fc      	mov	ip, pc
10006e9c:	9301      	str	r3, [sp, #4]
10006e9e:	bd08      	pop	{r3, pc}
10006ea0:	71d9df08 	.word	0x71d9df08
10006ea4:	00001000 	.word	0x00001000
10006ea8:	20001c90 	.word	0x20001c90

10006eac <__wrap___aeabi_cdrcmple>:
10006eac:	b5ff      	push	{r0, r1, r2, r3, r4, r5, r6, r7, lr}
10006eae:	4050      	eors	r0, r2
10006eb0:	4042      	eors	r2, r0
10006eb2:	4050      	eors	r0, r2
10006eb4:	4059      	eors	r1, r3
10006eb6:	404b      	eors	r3, r1
10006eb8:	4059      	eors	r1, r3
10006eba:	e000      	b.n	10006ebe <__aeabi_dfcmple_guts>

10006ebc <__wrap___aeabi_cdcmpeq>:
10006ebc:	b5ff      	push	{r0, r1, r2, r3, r4, r5, r6, r7, lr}

10006ebe <__aeabi_dfcmple_guts>:
10006ebe:	4f15      	ldr	r7, [pc, #84]	; (10006f14 <__aeabi_dfcmple_guts+0x56>)
10006ec0:	004c      	lsls	r4, r1, #1
10006ec2:	0d64      	lsrs	r4, r4, #21
10006ec4:	d003      	beq.n	10006ece <__aeabi_dfcmple_guts+0x10>
10006ec6:	42bc      	cmp	r4, r7
10006ec8:	d104      	bne.n	10006ed4 <__aeabi_dfcmple_guts+0x16>
10006eca:	030c      	lsls	r4, r1, #12
10006ecc:	d814      	bhi.n	10006ef8 <__aeabi_dfcmple_guts+0x3a>
10006ece:	2000      	movs	r0, #0
10006ed0:	0d09      	lsrs	r1, r1, #20
10006ed2:	0509      	lsls	r1, r1, #20
10006ed4:	005c      	lsls	r4, r3, #1
10006ed6:	0d64      	lsrs	r4, r4, #21
10006ed8:	d003      	beq.n	10006ee2 <__aeabi_dfcmple_guts+0x24>
10006eda:	42bc      	cmp	r4, r7
10006edc:	d104      	bne.n	10006ee8 <__aeabi_dfcmple_guts+0x2a>
10006ede:	031c      	lsls	r4, r3, #12
10006ee0:	d80a      	bhi.n	10006ef8 <__aeabi_dfcmple_guts+0x3a>
10006ee2:	2200      	movs	r2, #0
10006ee4:	0d1b      	lsrs	r3, r3, #20
10006ee6:	051b      	lsls	r3, r3, #20
10006ee8:	2601      	movs	r6, #1
10006eea:	404b      	eors	r3, r1
10006eec:	d409      	bmi.n	10006f02 <__aeabi_dfcmple_guts+0x44>
10006eee:	404b      	eors	r3, r1
10006ef0:	d503      	bpl.n	10006efa <__aeabi_dfcmple_guts+0x3c>
10006ef2:	428b      	cmp	r3, r1
10006ef4:	d100      	bne.n	10006ef8 <__aeabi_dfcmple_guts+0x3a>
10006ef6:	4282      	cmp	r2, r0
10006ef8:	bdff      	pop	{r0, r1, r2, r3, r4, r5, r6, r7, pc}
10006efa:	4299      	cmp	r1, r3
10006efc:	d1fc      	bne.n	10006ef8 <__aeabi_dfcmple_guts+0x3a>
10006efe:	4290      	cmp	r0, r2
10006f00:	bdff      	pop	{r0, r1, r2, r3, r4, r5, r6, r7, pc}
10006f02:	430b      	orrs	r3, r1
10006f04:	18db      	adds	r3, r3, r3
10006f06:	4303      	orrs	r3, r0
10006f08:	4313      	orrs	r3, r2
10006f0a:	d0f5      	beq.n	10006ef8 <__aeabi_dfcmple_guts+0x3a>
10006f0c:	43c9      	mvns	r1, r1
10006f0e:	1849      	adds	r1, r1, r1
10006f10:	bdff      	pop	{r0, r1, r2, r3, r4, r5, r6, r7, pc}
10006f12:	0000      	.short	0x0000
10006f14:	000007ff 	.word	0x000007ff

10006f18 <__wrap___aeabi_dcmplt>:
10006f18:	b500      	push	{lr}
10006f1a:	f7ff ffcf 	bl	10006ebc <__wrap___aeabi_cdcmpeq>
10006f1e:	4180      	sbcs	r0, r0
10006f20:	bd00      	pop	{pc}
10006f22:	46c0      	nop			; (mov r8, r8)

10006f24 <__wrap___aeabi_dcmpge>:
10006f24:	b500      	push	{lr}
10006f26:	f7ff ffc1 	bl	10006eac <__wrap___aeabi_cdrcmple>
10006f2a:	d901      	bls.n	10006f30 <__wrap___aeabi_dcmpge+0xc>
10006f2c:	2000      	movs	r0, #0
10006f2e:	bd00      	pop	{pc}
10006f30:	2001      	movs	r0, #1
10006f32:	bd00      	pop	{pc}

10006f34 <__wrap___aeabi_dcmpgt>:
10006f34:	b500      	push	{lr}
10006f36:	f7ff ffb9 	bl	10006eac <__wrap___aeabi_cdrcmple>
10006f3a:	4180      	sbcs	r0, r0
10006f3c:	bd00      	pop	{pc}

10006f3e <__wrap___aeabi_dcmpun>:
10006f3e:	2001      	movs	r0, #1
10006f40:	0540      	lsls	r0, r0, #21
10006f42:	004a      	lsls	r2, r1, #1
10006f44:	1812      	adds	r2, r2, r0
10006f46:	d804      	bhi.n	10006f52 <__wrap___aeabi_dcmpun+0x14>
10006f48:	005a      	lsls	r2, r3, #1
10006f4a:	1812      	adds	r2, r2, r0
10006f4c:	d801      	bhi.n	10006f52 <__wrap___aeabi_dcmpun+0x14>
10006f4e:	2000      	movs	r0, #0
10006f50:	4770      	bx	lr
10006f52:	2001      	movs	r0, #1
10006f54:	4770      	bx	lr
10006f56:	2000      	movs	r0, #0
10006f58:	4770      	bx	lr
	...

10006f5c <__wrap___aeabi_ui2d>:
10006f5c:	2100      	movs	r1, #0
10006f5e:	2800      	cmp	r0, #0
10006f60:	d105      	bne.n	10006f6e <__wrap___aeabi_i2d+0xa>
10006f62:	4770      	bx	lr

10006f64 <__wrap___aeabi_i2d>:
10006f64:	17c1      	asrs	r1, r0, #31
10006f66:	4048      	eors	r0, r1
10006f68:	1a40      	subs	r0, r0, r1
10006f6a:	d0fa      	beq.n	10006f62 <__wrap___aeabi_ui2d+0x6>
10006f6c:	07c9      	lsls	r1, r1, #31
10006f6e:	b513      	push	{r0, r1, r4, lr}
10006f70:	4b06      	ldr	r3, [pc, #24]	; (10006f8c <__wrap___aeabi_i2d+0x28>)
10006f72:	681b      	ldr	r3, [r3, #0]
10006f74:	4798      	blx	r3
10006f76:	bc0c      	pop	{r2, r3}
10006f78:	1c44      	adds	r4, r0, #1
10006f7a:	40a2      	lsls	r2, r4
10006f7c:	0510      	lsls	r0, r2, #20
10006f7e:	0b12      	lsrs	r2, r2, #12
10006f80:	4903      	ldr	r1, [pc, #12]	; (10006f90 <__wrap___aeabi_i2d+0x2c>)
10006f82:	1b09      	subs	r1, r1, r4
10006f84:	0509      	lsls	r1, r1, #20
10006f86:	4319      	orrs	r1, r3
10006f88:	4311      	orrs	r1, r2
10006f8a:	bd10      	pop	{r4, pc}
10006f8c:	20001e90 	.word	0x20001e90
10006f90:	0000041f 	.word	0x0000041f

10006f94 <__wrap___aeabi_d2iz>:
10006f94:	b510      	push	{r4, lr}
10006f96:	004c      	lsls	r4, r1, #1
10006f98:	0d62      	lsrs	r2, r4, #21
10006f9a:	2380      	movs	r3, #128	; 0x80
10006f9c:	18d2      	adds	r2, r2, r3
10006f9e:	00db      	lsls	r3, r3, #3
10006fa0:	1ad2      	subs	r2, r2, r3
10006fa2:	055b      	lsls	r3, r3, #21
10006fa4:	2a7e      	cmp	r2, #126	; 0x7e
10006fa6:	dd10      	ble.n	10006fca <__wrap___aeabi_d2iz+0x36>
10006fa8:	3a9e      	subs	r2, #158	; 0x9e
10006faa:	da13      	bge.n	10006fd4 <__wrap___aeabi_d2iz+0x40>
10006fac:	17cc      	asrs	r4, r1, #31
10006fae:	0309      	lsls	r1, r1, #12
10006fb0:	0849      	lsrs	r1, r1, #1
10006fb2:	4319      	orrs	r1, r3
10006fb4:	4252      	negs	r2, r2
10006fb6:	40d1      	lsrs	r1, r2
10006fb8:	0064      	lsls	r4, r4, #1
10006fba:	3401      	adds	r4, #1
10006fbc:	3215      	adds	r2, #21
10006fbe:	2a20      	cmp	r2, #32
10006fc0:	da05      	bge.n	10006fce <__wrap___aeabi_d2iz+0x3a>
10006fc2:	40d0      	lsrs	r0, r2
10006fc4:	4308      	orrs	r0, r1
10006fc6:	4360      	muls	r0, r4
10006fc8:	bd10      	pop	{r4, pc}
10006fca:	2000      	movs	r0, #0
10006fcc:	bd10      	pop	{r4, pc}
10006fce:	4608      	mov	r0, r1
10006fd0:	4360      	muls	r0, r4
10006fd2:	bd10      	pop	{r4, pc}
10006fd4:	0fc8      	lsrs	r0, r1, #31
10006fd6:	18c0      	adds	r0, r0, r3
10006fd8:	3801      	subs	r0, #1
10006fda:	bd10      	pop	{r4, pc}

10006fdc <__wrap___aeabi_d2uiz>:
10006fdc:	b418      	push	{r3, r4}
10006fde:	4b04      	ldr	r3, [pc, #16]	; (10006ff0 <__wrap___aeabi_d2uiz+0x14>)
10006fe0:	6a5b      	ldr	r3, [r3, #36]	; 0x24
10006fe2:	46fc      	mov	ip, pc
10006fe4:	9301      	str	r3, [sp, #4]
10006fe6:	bd08      	pop	{r3, pc}
10006fe8:	7561df24 	.word	0x7561df24
10006fec:	00001000 	.word	0x00001000
10006ff0:	20001c90 	.word	0x20001c90

10006ff4 <__aeabi_double_init>:
10006ff4:	2313      	movs	r3, #19
10006ff6:	b570      	push	{r4, r5, r6, lr}
10006ff8:	781c      	ldrb	r4, [r3, #0]
10006ffa:	2c01      	cmp	r4, #1
10006ffc:	d010      	beq.n	10007020 <__aeabi_double_init+0x2c>
10006ffe:	dd0b      	ble.n	10007018 <__aeabi_double_init+0x24>
10007000:	480c      	ldr	r0, [pc, #48]	; (10007034 <__aeabi_double_init+0x40>)
10007002:	f7ff fc91 	bl	10006928 <rom_data_lookup>
10007006:	4d0c      	ldr	r5, [pc, #48]	; (10007038 <__aeabi_double_init+0x44>)
10007008:	0001      	movs	r1, r0
1000700a:	2280      	movs	r2, #128	; 0x80
1000700c:	0028      	movs	r0, r5
1000700e:	f000 fbbd 	bl	1000778c <__wrap___aeabi_memcpy>
10007012:	2c02      	cmp	r4, #2
10007014:	d001      	beq.n	1000701a <__aeabi_double_init+0x26>
10007016:	bd70      	pop	{r4, r5, r6, pc}
10007018:	4d07      	ldr	r5, [pc, #28]	; (10007038 <__aeabi_double_init+0x44>)
1000701a:	4a08      	ldr	r2, [pc, #32]	; (1000703c <__aeabi_double_init+0x48>)
1000701c:	64aa      	str	r2, [r5, #72]	; 0x48
1000701e:	e7fa      	b.n	10007016 <__aeabi_double_init+0x22>
10007020:	4d05      	ldr	r5, [pc, #20]	; (10007038 <__aeabi_double_init+0x44>)
10007022:	4a06      	ldr	r2, [pc, #24]	; (1000703c <__aeabi_double_init+0x48>)
10007024:	0029      	movs	r1, r5
10007026:	002b      	movs	r3, r5
10007028:	3180      	adds	r1, #128	; 0x80
1000702a:	c304      	stmia	r3!, {r2}
1000702c:	428b      	cmp	r3, r1
1000702e:	d1fc      	bne.n	1000702a <__aeabi_double_init+0x36>
10007030:	64aa      	str	r2, [r5, #72]	; 0x48
10007032:	e7f0      	b.n	10007016 <__aeabi_double_init+0x22>
10007034:	00004453 	.word	0x00004453
10007038:	20001c90 	.word	0x20001c90
1000703c:	10007041 	.word	0x10007041

10007040 <double_table_shim_on_use_helper>:
10007040:	b507      	push	{r0, r1, r2, lr}
10007042:	4660      	mov	r0, ip
10007044:	8801      	ldrh	r1, [r0, #0]
10007046:	0a0a      	lsrs	r2, r1, #8
10007048:	3002      	adds	r0, #2
1000704a:	2adf      	cmp	r2, #223	; 0xdf
1000704c:	d1fa      	bne.n	10007044 <double_table_shim_on_use_helper+0x4>
1000704e:	b2c9      	uxtb	r1, r1
10007050:	0882      	lsrs	r2, r0, #2
10007052:	d304      	bcc.n	1000705e <double_table_shim_on_use_helper+0x1e>
10007054:	8802      	ldrh	r2, [r0, #0]
10007056:	8840      	ldrh	r0, [r0, #2]
10007058:	0400      	lsls	r0, r0, #16
1000705a:	4310      	orrs	r0, r2
1000705c:	e000      	b.n	10007060 <double_table_shim_on_use_helper+0x20>
1000705e:	6800      	ldr	r0, [r0, #0]
10007060:	4a01      	ldr	r2, [pc, #4]	; (10007068 <double_table_shim_on_use_helper+0x28>)
10007062:	5050      	str	r0, [r2, r1]
10007064:	9003      	str	r0, [sp, #12]
10007066:	bd07      	pop	{r0, r1, r2, pc}
10007068:	20001c90 	.word	0x20001c90

1000706c <drsub_shim>:
1000706c:	b40f      	push	{r0, r1, r2, r3}
1000706e:	bc03      	pop	{r0, r1}
10007070:	bc0c      	pop	{r2, r3}

10007072 <dsub_shim>:
10007072:	b5f0      	push	{r4, r5, r6, r7, lr}
10007074:	2401      	movs	r4, #1
10007076:	07e4      	lsls	r4, r4, #31
10007078:	4063      	eors	r3, r4
1000707a:	e000      	b.n	1000707e <da_entry>

1000707c <dadd_shim>:
1000707c:	b5f0      	push	{r4, r5, r6, r7, lr}

1000707e <da_entry>:
1000707e:	0d0c      	lsrs	r4, r1, #20
10007080:	0fcf      	lsrs	r7, r1, #31
10007082:	1e66      	subs	r6, r4, #1
10007084:	0536      	lsls	r6, r6, #20
10007086:	1b89      	subs	r1, r1, r6
10007088:	0564      	lsls	r4, r4, #21
1000708a:	d303      	bcc.n	10007094 <l7_1>
1000708c:	43c9      	mvns	r1, r1
1000708e:	4240      	negs	r0, r0
10007090:	d300      	bcc.n	10007094 <l7_1>
10007092:	3101      	adds	r1, #1

10007094 <l7_1>:
10007094:	0d64      	lsrs	r4, r4, #21
10007096:	d003      	beq.n	100070a0 <l7_2>
10007098:	1c66      	adds	r6, r4, #1
1000709a:	0af6      	lsrs	r6, r6, #11
1000709c:	d007      	beq.n	100070ae <l7_3>
1000709e:	1be4      	subs	r4, r4, r7

100070a0 <l7_2>:
100070a0:	2000      	movs	r0, #0
100070a2:	007f      	lsls	r7, r7, #1
100070a4:	1c79      	adds	r1, r7, #1
100070a6:	0789      	lsls	r1, r1, #30
100070a8:	1289      	asrs	r1, r1, #10
100070aa:	3c80      	subs	r4, #128	; 0x80
100070ac:	0324      	lsls	r4, r4, #12

100070ae <l7_3>:
100070ae:	0d1d      	lsrs	r5, r3, #20
100070b0:	0fdf      	lsrs	r7, r3, #31
100070b2:	1e6e      	subs	r6, r5, #1
100070b4:	0536      	lsls	r6, r6, #20
100070b6:	1b9b      	subs	r3, r3, r6
100070b8:	056d      	lsls	r5, r5, #21
100070ba:	d303      	bcc.n	100070c4 <l8_1>
100070bc:	43db      	mvns	r3, r3
100070be:	4252      	negs	r2, r2
100070c0:	d300      	bcc.n	100070c4 <l8_1>
100070c2:	3301      	adds	r3, #1

100070c4 <l8_1>:
100070c4:	0d6d      	lsrs	r5, r5, #21
100070c6:	d003      	beq.n	100070d0 <l8_2>
100070c8:	1c6e      	adds	r6, r5, #1
100070ca:	0af6      	lsrs	r6, r6, #11
100070cc:	d007      	beq.n	100070de <l8_3>
100070ce:	1bed      	subs	r5, r5, r7

100070d0 <l8_2>:
100070d0:	2200      	movs	r2, #0
100070d2:	007f      	lsls	r7, r7, #1
100070d4:	1c7b      	adds	r3, r7, #1
100070d6:	079b      	lsls	r3, r3, #30
100070d8:	129b      	asrs	r3, r3, #10
100070da:	3d80      	subs	r5, #128	; 0x80
100070dc:	032d      	lsls	r5, r5, #12

100070de <l8_3>:
100070de:	1b2f      	subs	r7, r5, r4
100070e0:	1b66      	subs	r6, r4, r5
100070e2:	d458      	bmi.n	10007196 <da_ygtx>
100070e4:	46a4      	mov	ip, r4
100070e6:	2e20      	cmp	r6, #32
100070e8:	da46      	bge.n	10007178 <da_xrgty>
100070ea:	3720      	adds	r7, #32
100070ec:	0014      	movs	r4, r2
100070ee:	40bc      	lsls	r4, r7

100070f0 <da_xgty0>:
100070f0:	001d      	movs	r5, r3
100070f2:	40bd      	lsls	r5, r7
100070f4:	40f2      	lsrs	r2, r6
100070f6:	4133      	asrs	r3, r6
100070f8:	432a      	orrs	r2, r5

100070fa <da_add>:
100070fa:	1880      	adds	r0, r0, r2
100070fc:	4159      	adcs	r1, r3

100070fe <da_pack>:
100070fe:	0fcb      	lsrs	r3, r1, #31
10007100:	d005      	beq.n	1000710e <da_pack+0x10>
10007102:	43c9      	mvns	r1, r1
10007104:	43c0      	mvns	r0, r0
10007106:	2200      	movs	r2, #0
10007108:	4264      	negs	r4, r4
1000710a:	4150      	adcs	r0, r2
1000710c:	4151      	adcs	r1, r2
1000710e:	4662      	mov	r2, ip
10007110:	0d4d      	lsrs	r5, r1, #21
10007112:	d128      	bne.n	10007166 <da_0>
10007114:	0d0d      	lsrs	r5, r1, #20
10007116:	d107      	bne.n	10007128 <da_1>
10007118:	2800      	cmp	r0, #0
1000711a:	d01f      	beq.n	1000715c <da_5>

1000711c <da_2>:
1000711c:	1924      	adds	r4, r4, r4
1000711e:	4140      	adcs	r0, r0
10007120:	4149      	adcs	r1, r1
10007122:	3a01      	subs	r2, #1
10007124:	0d0d      	lsrs	r5, r1, #20
10007126:	d0f9      	beq.n	1000711c <da_2>

10007128 <da_1>:
10007128:	0064      	lsls	r4, r4, #1
1000712a:	d306      	bcc.n	1000713a <da_3>

1000712c <da_4>:
1000712c:	3001      	adds	r0, #1
1000712e:	d300      	bcc.n	10007132 <da_4+0x6>
10007130:	3101      	adds	r1, #1
10007132:	2c00      	cmp	r4, #0
10007134:	d101      	bne.n	1000713a <da_3>
10007136:	0840      	lsrs	r0, r0, #1
10007138:	0040      	lsls	r0, r0, #1

1000713a <da_3>:
1000713a:	3a01      	subs	r2, #1
1000713c:	d40b      	bmi.n	10007156 <da_6>
1000713e:	1c94      	adds	r4, r2, #2
10007140:	0ae4      	lsrs	r4, r4, #11
10007142:	d104      	bne.n	1000714e <da_7>
10007144:	0512      	lsls	r2, r2, #20
10007146:	4411      	add	r1, r2
10007148:	07db      	lsls	r3, r3, #31
1000714a:	4419      	add	r1, r3
1000714c:	bdf0      	pop	{r4, r5, r6, r7, pc}

1000714e <da_7>:
1000714e:	07d9      	lsls	r1, r3, #31
10007150:	4b20      	ldr	r3, [pc, #128]	; (100071d4 <da_xmgty+0x4>)
10007152:	4319      	orrs	r1, r3
10007154:	e000      	b.n	10007158 <da_6+0x2>

10007156 <da_6>:
10007156:	07d9      	lsls	r1, r3, #31
10007158:	2000      	movs	r0, #0
1000715a:	bdf0      	pop	{r4, r5, r6, r7, pc}

1000715c <da_5>:
1000715c:	2900      	cmp	r1, #0
1000715e:	d1dd      	bne.n	1000711c <da_2>
10007160:	2c00      	cmp	r4, #0
10007162:	d1db      	bne.n	1000711c <da_2>
10007164:	bdf0      	pop	{r4, r5, r6, r7, pc}

10007166 <da_0>:
10007166:	3201      	adds	r2, #1
10007168:	07c6      	lsls	r6, r0, #31
1000716a:	0840      	lsrs	r0, r0, #1
1000716c:	07cd      	lsls	r5, r1, #31
1000716e:	4328      	orrs	r0, r5
10007170:	0849      	lsrs	r1, r1, #1
10007172:	2e00      	cmp	r6, #0
10007174:	d0e1      	beq.n	1000713a <da_3>
10007176:	e7d9      	b.n	1000712c <da_4>

10007178 <da_xrgty>:
10007178:	2e3c      	cmp	r6, #60	; 0x3c
1000717a:	da29      	bge.n	100071d0 <da_xmgty>
1000717c:	3e20      	subs	r6, #32
1000717e:	3740      	adds	r7, #64	; 0x40
10007180:	0014      	movs	r4, r2
10007182:	40bc      	lsls	r4, r7
10007184:	d000      	beq.n	10007188 <da_xrgty+0x10>
10007186:	2401      	movs	r4, #1
10007188:	40f2      	lsrs	r2, r6
1000718a:	4314      	orrs	r4, r2
1000718c:	001a      	movs	r2, r3
1000718e:	40bb      	lsls	r3, r7
10007190:	431c      	orrs	r4, r3
10007192:	17d3      	asrs	r3, r2, #31
10007194:	e7ac      	b.n	100070f0 <da_xgty0>

10007196 <da_ygtx>:
10007196:	46ac      	mov	ip, r5
10007198:	2f20      	cmp	r7, #32
1000719a:	da08      	bge.n	100071ae <da_yrgtx>
1000719c:	3620      	adds	r6, #32
1000719e:	0004      	movs	r4, r0
100071a0:	40b4      	lsls	r4, r6

100071a2 <da_ygtx0>:
100071a2:	000d      	movs	r5, r1
100071a4:	40b5      	lsls	r5, r6
100071a6:	40f8      	lsrs	r0, r7
100071a8:	4139      	asrs	r1, r7
100071aa:	4328      	orrs	r0, r5
100071ac:	e7a5      	b.n	100070fa <da_add>

100071ae <da_yrgtx>:
100071ae:	2f3c      	cmp	r7, #60	; 0x3c
100071b0:	da0c      	bge.n	100071cc <da_ymgtx>
100071b2:	3f20      	subs	r7, #32
100071b4:	3640      	adds	r6, #64	; 0x40
100071b6:	0004      	movs	r4, r0
100071b8:	40b4      	lsls	r4, r6
100071ba:	d000      	beq.n	100071be <da_yrgtx+0x10>
100071bc:	2401      	movs	r4, #1
100071be:	40f8      	lsrs	r0, r7
100071c0:	4304      	orrs	r4, r0
100071c2:	0008      	movs	r0, r1
100071c4:	40b1      	lsls	r1, r6
100071c6:	430c      	orrs	r4, r1
100071c8:	17c1      	asrs	r1, r0, #31
100071ca:	e7ea      	b.n	100071a2 <da_ygtx0>

100071cc <da_ymgtx>:
100071cc:	0010      	movs	r0, r2
100071ce:	0019      	movs	r1, r3

100071d0 <da_xmgty>:
100071d0:	2400      	movs	r4, #0
100071d2:	e794      	b.n	100070fe <da_pack>
100071d4:	7ff00000 	.word	0x7ff00000

100071d8 <dmul_shim>:
100071d8:	b5f0      	push	{r4, r5, r6, r7, lr}
100071da:	0d0c      	lsrs	r4, r1, #20
100071dc:	1e66      	subs	r6, r4, #1
100071de:	0536      	lsls	r6, r6, #20
100071e0:	1b89      	subs	r1, r1, r6
100071e2:	0ae6      	lsrs	r6, r4, #11
100071e4:	0564      	lsls	r4, r4, #21
100071e6:	0d64      	lsrs	r4, r4, #21
100071e8:	d002      	beq.n	100071f0 <l11_1>
100071ea:	1c65      	adds	r5, r4, #1
100071ec:	0aed      	lsrs	r5, r5, #11
100071ee:	d004      	beq.n	100071fa <l11_2>

100071f0 <l11_1>:
100071f0:	2000      	movs	r0, #0
100071f2:	2101      	movs	r1, #1
100071f4:	0509      	lsls	r1, r1, #20
100071f6:	3c80      	subs	r4, #128	; 0x80
100071f8:	0324      	lsls	r4, r4, #12

100071fa <l11_2>:
100071fa:	46a4      	mov	ip, r4
100071fc:	0d1c      	lsrs	r4, r3, #20
100071fe:	1e67      	subs	r7, r4, #1
10007200:	053f      	lsls	r7, r7, #20
10007202:	1bdb      	subs	r3, r3, r7
10007204:	0ae7      	lsrs	r7, r4, #11
10007206:	0564      	lsls	r4, r4, #21
10007208:	0d64      	lsrs	r4, r4, #21
1000720a:	d002      	beq.n	10007212 <l12_1>
1000720c:	1c65      	adds	r5, r4, #1
1000720e:	0aed      	lsrs	r5, r5, #11
10007210:	d004      	beq.n	1000721c <l12_2>

10007212 <l12_1>:
10007212:	2200      	movs	r2, #0
10007214:	2301      	movs	r3, #1
10007216:	051b      	lsls	r3, r3, #20
10007218:	3c80      	subs	r4, #128	; 0x80
1000721a:	0324      	lsls	r4, r4, #12

1000721c <l12_2>:
1000721c:	4077      	eors	r7, r6
1000721e:	4464      	add	r4, ip
10007220:	b497      	push	{r0, r1, r2, r4, r7}
10007222:	b284      	uxth	r4, r0
10007224:	b296      	uxth	r6, r2
10007226:	4374      	muls	r4, r6
10007228:	0c07      	lsrs	r7, r0, #16
1000722a:	437e      	muls	r6, r7
1000722c:	0c15      	lsrs	r5, r2, #16
1000722e:	436f      	muls	r7, r5
10007230:	b280      	uxth	r0, r0
10007232:	4368      	muls	r0, r5
10007234:	1836      	adds	r6, r6, r0
10007236:	d302      	bcc.n	1000723e <l13_1>
10007238:	2001      	movs	r0, #1
1000723a:	0400      	lsls	r0, r0, #16
1000723c:	183f      	adds	r7, r7, r0

1000723e <l13_1>:
1000723e:	0430      	lsls	r0, r6, #16
10007240:	0c35      	lsrs	r5, r6, #16
10007242:	1900      	adds	r0, r0, r4
10007244:	417d      	adcs	r5, r7
10007246:	4684      	mov	ip, r0
10007248:	b288      	uxth	r0, r1
1000724a:	b29a      	uxth	r2, r3
1000724c:	4350      	muls	r0, r2
1000724e:	0c0c      	lsrs	r4, r1, #16
10007250:	4362      	muls	r2, r4
10007252:	0c1f      	lsrs	r7, r3, #16
10007254:	437c      	muls	r4, r7
10007256:	b28e      	uxth	r6, r1
10007258:	437e      	muls	r6, r7
1000725a:	1992      	adds	r2, r2, r6
1000725c:	d302      	bcc.n	10007264 <l14_1>
1000725e:	2601      	movs	r6, #1
10007260:	0436      	lsls	r6, r6, #16
10007262:	19a4      	adds	r4, r4, r6

10007264 <l14_1>:
10007264:	0416      	lsls	r6, r2, #16
10007266:	0c17      	lsrs	r7, r2, #16
10007268:	1836      	adds	r6, r6, r0
1000726a:	4167      	adcs	r7, r4
1000726c:	bc01      	pop	{r0}
1000726e:	b281      	uxth	r1, r0
10007270:	b29a      	uxth	r2, r3
10007272:	4351      	muls	r1, r2
10007274:	0c04      	lsrs	r4, r0, #16
10007276:	4362      	muls	r2, r4
10007278:	0c1b      	lsrs	r3, r3, #16
1000727a:	435c      	muls	r4, r3
1000727c:	b280      	uxth	r0, r0
1000727e:	4358      	muls	r0, r3
10007280:	1812      	adds	r2, r2, r0
10007282:	d302      	bcc.n	1000728a <l15_1>
10007284:	2001      	movs	r0, #1
10007286:	0400      	lsls	r0, r0, #16
10007288:	1824      	adds	r4, r4, r0

1000728a <l15_1>:
1000728a:	0410      	lsls	r0, r2, #16
1000728c:	0c13      	lsrs	r3, r2, #16
1000728e:	1840      	adds	r0, r0, r1
10007290:	4163      	adcs	r3, r4
10007292:	182d      	adds	r5, r5, r0
10007294:	415e      	adcs	r6, r3
10007296:	2000      	movs	r0, #0
10007298:	4147      	adcs	r7, r0
1000729a:	bc06      	pop	{r1, r2}
1000729c:	b288      	uxth	r0, r1
1000729e:	b293      	uxth	r3, r2
100072a0:	4358      	muls	r0, r3
100072a2:	0c0c      	lsrs	r4, r1, #16
100072a4:	4363      	muls	r3, r4
100072a6:	0c12      	lsrs	r2, r2, #16
100072a8:	4354      	muls	r4, r2
100072aa:	b289      	uxth	r1, r1
100072ac:	4351      	muls	r1, r2
100072ae:	185b      	adds	r3, r3, r1
100072b0:	d302      	bcc.n	100072b8 <l16_1>
100072b2:	2101      	movs	r1, #1
100072b4:	0409      	lsls	r1, r1, #16
100072b6:	1864      	adds	r4, r4, r1

100072b8 <l16_1>:
100072b8:	0419      	lsls	r1, r3, #16
100072ba:	0c1a      	lsrs	r2, r3, #16
100072bc:	1809      	adds	r1, r1, r0
100072be:	4162      	adcs	r2, r4
100072c0:	186d      	adds	r5, r5, r1
100072c2:	4156      	adcs	r6, r2
100072c4:	2000      	movs	r0, #0
100072c6:	4147      	adcs	r7, r0
100072c8:	bc18      	pop	{r3, r4}
100072ca:	02f9      	lsls	r1, r7, #11
100072cc:	0d72      	lsrs	r2, r6, #21
100072ce:	4311      	orrs	r1, r2
100072d0:	02f0      	lsls	r0, r6, #11
100072d2:	0d6a      	lsrs	r2, r5, #21
100072d4:	4310      	orrs	r0, r2
100072d6:	02ed      	lsls	r5, r5, #11
100072d8:	0d0a      	lsrs	r2, r1, #20
100072da:	d103      	bne.n	100072e4 <l16_1+0x2c>
100072dc:	196d      	adds	r5, r5, r5
100072de:	4140      	adcs	r0, r0
100072e0:	4149      	adcs	r1, r1
100072e2:	3b01      	subs	r3, #1
100072e4:	4e12      	ldr	r6, [pc, #72]	; (10007330 <dm_1+0xa>)
100072e6:	1b9b      	subs	r3, r3, r6
100072e8:	0076      	lsls	r6, r6, #1
100072ea:	42b3      	cmp	r3, r6
100072ec:	d20e      	bcs.n	1000730c <dm_0>
100072ee:	006d      	lsls	r5, r5, #1
100072f0:	d307      	bcc.n	10007302 <l16_1+0x4a>
100072f2:	3001      	adds	r0, #1
100072f4:	2600      	movs	r6, #0
100072f6:	4171      	adcs	r1, r6
100072f8:	4666      	mov	r6, ip
100072fa:	4335      	orrs	r5, r6
100072fc:	d101      	bne.n	10007302 <l16_1+0x4a>
100072fe:	0840      	lsrs	r0, r0, #1
10007300:	0040      	lsls	r0, r0, #1
10007302:	051b      	lsls	r3, r3, #20
10007304:	18c9      	adds	r1, r1, r3

10007306 <dm_2>:
10007306:	07e4      	lsls	r4, r4, #31
10007308:	4421      	add	r1, r4
1000730a:	bdf0      	pop	{r4, r5, r6, r7, pc}

1000730c <dm_0>:
1000730c:	da0b      	bge.n	10007326 <dm_1>
1000730e:	3301      	adds	r3, #1
10007310:	d106      	bne.n	10007320 <dm_0+0x14>
10007312:	3001      	adds	r0, #1
10007314:	d104      	bne.n	10007320 <dm_0+0x14>
10007316:	3101      	adds	r1, #1
10007318:	0d4f      	lsrs	r7, r1, #21
1000731a:	d001      	beq.n	10007320 <dm_0+0x14>
1000731c:	0849      	lsrs	r1, r1, #1
1000731e:	e7f2      	b.n	10007306 <dm_2>
10007320:	07e1      	lsls	r1, r4, #31
10007322:	2000      	movs	r0, #0
10007324:	bdf0      	pop	{r4, r5, r6, r7, pc}

10007326 <dm_1>:
10007326:	3601      	adds	r6, #1
10007328:	0531      	lsls	r1, r6, #20
1000732a:	2000      	movs	r0, #0
1000732c:	e7eb      	b.n	10007306 <dm_2>
1000732e:	0000      	.short	0x0000
10007330:	000003ff 	.word	0x000003ff

10007334 <ddiv_shim>:
10007334:	b5f0      	push	{r4, r5, r6, r7, lr}

10007336 <ddiv0>:
10007336:	0d1c      	lsrs	r4, r3, #20
10007338:	1e67      	subs	r7, r4, #1
1000733a:	053f      	lsls	r7, r7, #20
1000733c:	1bdb      	subs	r3, r3, r7
1000733e:	0ae7      	lsrs	r7, r4, #11
10007340:	0564      	lsls	r4, r4, #21
10007342:	0d64      	lsrs	r4, r4, #21
10007344:	d002      	beq.n	1000734c <l19_1>
10007346:	1c66      	adds	r6, r4, #1
10007348:	0af6      	lsrs	r6, r6, #11
1000734a:	d004      	beq.n	10007356 <l19_2>

1000734c <l19_1>:
1000734c:	2200      	movs	r2, #0
1000734e:	2301      	movs	r3, #1
10007350:	051b      	lsls	r3, r3, #20
10007352:	3c80      	subs	r4, #128	; 0x80
10007354:	0324      	lsls	r4, r4, #12

10007356 <l19_2>:
10007356:	25d0      	movs	r5, #208	; 0xd0
10007358:	062d      	lsls	r5, r5, #24
1000735a:	2600      	movs	r6, #0
1000735c:	43f6      	mvns	r6, r6
1000735e:	662e      	str	r6, [r5, #96]	; 0x60
10007360:	091e      	lsrs	r6, r3, #4
10007362:	666e      	str	r6, [r5, #100]	; 0x64
10007364:	0fce      	lsrs	r6, r1, #31
10007366:	19f6      	adds	r6, r6, r7
10007368:	46b4      	mov	ip, r6
1000736a:	0049      	lsls	r1, r1, #1
1000736c:	0d4f      	lsrs	r7, r1, #21
1000736e:	d002      	beq.n	10007376 <l19_2+0x20>
10007370:	1c7e      	adds	r6, r7, #1
10007372:	0af6      	lsrs	r6, r6, #11
10007374:	d003      	beq.n	1000737e <l19_2+0x28>
10007376:	2000      	movs	r0, #0
10007378:	2100      	movs	r1, #0
1000737a:	3f40      	subs	r7, #64	; 0x40
1000737c:	033f      	lsls	r7, r7, #12
1000737e:	1b3e      	subs	r6, r7, r4
10007380:	00b6      	lsls	r6, r6, #2
10007382:	44b4      	add	ip, r6
10007384:	3f01      	subs	r7, #1
10007386:	057f      	lsls	r7, r7, #21
10007388:	1bc9      	subs	r1, r1, r7
1000738a:	0849      	lsrs	r1, r1, #1
1000738c:	6f2e      	ldr	r6, [r5, #112]	; 0x70
1000738e:	3601      	adds	r6, #1
10007390:	0876      	lsrs	r6, r6, #1
10007392:	029c      	lsls	r4, r3, #10
10007394:	0d95      	lsrs	r5, r2, #22
10007396:	4325      	orrs	r5, r4
10007398:	4375      	muls	r5, r6
1000739a:	13ed      	asrs	r5, r5, #15
1000739c:	4375      	muls	r5, r6
1000739e:	13ad      	asrs	r5, r5, #14
100073a0:	3501      	adds	r5, #1
100073a2:	106d      	asrs	r5, r5, #1
100073a4:	03f6      	lsls	r6, r6, #15
100073a6:	1b76      	subs	r6, r6, r5
100073a8:	b40c      	push	{r2, r3}
100073aa:	02cc      	lsls	r4, r1, #11
100073ac:	0d45      	lsrs	r5, r0, #21
100073ae:	432c      	orrs	r4, r5
100073b0:	b2a2      	uxth	r2, r4
100073b2:	b2b3      	uxth	r3, r6
100073b4:	435a      	muls	r2, r3
100073b6:	0c27      	lsrs	r7, r4, #16
100073b8:	437b      	muls	r3, r7
100073ba:	0c35      	lsrs	r5, r6, #16
100073bc:	436f      	muls	r7, r5
100073be:	b2a4      	uxth	r4, r4
100073c0:	436c      	muls	r4, r5
100073c2:	191b      	adds	r3, r3, r4
100073c4:	d302      	bcc.n	100073cc <l20_1>
100073c6:	2401      	movs	r4, #1
100073c8:	0424      	lsls	r4, r4, #16
100073ca:	193f      	adds	r7, r7, r4

100073cc <l20_1>:
100073cc:	041c      	lsls	r4, r3, #16
100073ce:	0c1d      	lsrs	r5, r3, #16
100073d0:	18a4      	adds	r4, r4, r2
100073d2:	417d      	adcs	r5, r7
100073d4:	1924      	adds	r4, r4, r4
100073d6:	416d      	adcs	r5, r5
100073d8:	9a00      	ldr	r2, [sp, #0]
100073da:	b291      	uxth	r1, r2
100073dc:	b2ac      	uxth	r4, r5
100073de:	4361      	muls	r1, r4
100073e0:	0c17      	lsrs	r7, r2, #16
100073e2:	437c      	muls	r4, r7
100073e4:	0c2b      	lsrs	r3, r5, #16
100073e6:	435f      	muls	r7, r3
100073e8:	b292      	uxth	r2, r2
100073ea:	435a      	muls	r2, r3
100073ec:	18a4      	adds	r4, r4, r2
100073ee:	d302      	bcc.n	100073f6 <l21_1>
100073f0:	2201      	movs	r2, #1
100073f2:	0412      	lsls	r2, r2, #16
100073f4:	18bf      	adds	r7, r7, r2

100073f6 <l21_1>:
100073f6:	0422      	lsls	r2, r4, #16
100073f8:	0c23      	lsrs	r3, r4, #16
100073fa:	1852      	adds	r2, r2, r1
100073fc:	417b      	adcs	r3, r7
100073fe:	9c01      	ldr	r4, [sp, #4]
10007400:	436c      	muls	r4, r5
10007402:	191b      	adds	r3, r3, r4
10007404:	0e52      	lsrs	r2, r2, #25
10007406:	01d9      	lsls	r1, r3, #7
10007408:	430a      	orrs	r2, r1
1000740a:	0144      	lsls	r4, r0, #5
1000740c:	1aa0      	subs	r0, r4, r2
1000740e:	b281      	uxth	r1, r0
10007410:	b2b2      	uxth	r2, r6
10007412:	4351      	muls	r1, r2
10007414:	1403      	asrs	r3, r0, #16
10007416:	435a      	muls	r2, r3
10007418:	0c36      	lsrs	r6, r6, #16
1000741a:	4373      	muls	r3, r6
1000741c:	b287      	uxth	r7, r0
1000741e:	4377      	muls	r7, r6
10007420:	17d6      	asrs	r6, r2, #31
10007422:	19d2      	adds	r2, r2, r7
10007424:	2700      	movs	r7, #0
10007426:	417e      	adcs	r6, r7
10007428:	0436      	lsls	r6, r6, #16
1000742a:	199b      	adds	r3, r3, r6
1000742c:	0417      	lsls	r7, r2, #16
1000742e:	0c16      	lsrs	r6, r2, #16
10007430:	187f      	adds	r7, r7, r1
10007432:	415e      	adcs	r6, r3
10007434:	1673      	asrs	r3, r6, #25
10007436:	18ed      	adds	r5, r5, r3
10007438:	01f3      	lsls	r3, r6, #7
1000743a:	2600      	movs	r6, #0
1000743c:	3380      	adds	r3, #128	; 0x80
1000743e:	4175      	adcs	r5, r6
10007440:	0fa9      	lsrs	r1, r5, #30
10007442:	d106      	bne.n	10007452 <dd_0>
10007444:	0064      	lsls	r4, r4, #1
10007446:	0a69      	lsrs	r1, r5, #9
10007448:	05e8      	lsls	r0, r5, #23
1000744a:	0a5b      	lsrs	r3, r3, #9
1000744c:	4318      	orrs	r0, r3
1000744e:	d209      	bcs.n	10007464 <dd_1>
10007450:	e02f      	b.n	100074b2 <dd_2>

10007452 <dd_0>:
10007452:	2204      	movs	r2, #4
10007454:	4494      	add	ip, r2
10007456:	3380      	adds	r3, #128	; 0x80
10007458:	4175      	adcs	r5, r6
1000745a:	0aa9      	lsrs	r1, r5, #10
1000745c:	05a8      	lsls	r0, r5, #22
1000745e:	0a9b      	lsrs	r3, r3, #10
10007460:	4318      	orrs	r0, r3
10007462:	d326      	bcc.n	100074b2 <dd_2>

10007464 <dd_1>:
10007464:	4140      	adcs	r0, r0
10007466:	4149      	adcs	r1, r1
10007468:	0424      	lsls	r4, r4, #16
1000746a:	9a00      	ldr	r2, [sp, #0]
1000746c:	9b01      	ldr	r3, [sp, #4]
1000746e:	000d      	movs	r5, r1
10007470:	4355      	muls	r5, r2
10007472:	1b64      	subs	r4, r4, r5
10007474:	4343      	muls	r3, r0
10007476:	1ae4      	subs	r4, r4, r3
10007478:	b295      	uxth	r5, r2
1000747a:	b286      	uxth	r6, r0
1000747c:	4375      	muls	r5, r6
1000747e:	0c17      	lsrs	r7, r2, #16
10007480:	437e      	muls	r6, r7
10007482:	0c03      	lsrs	r3, r0, #16
10007484:	435f      	muls	r7, r3
10007486:	b292      	uxth	r2, r2
10007488:	435a      	muls	r2, r3
1000748a:	18b6      	adds	r6, r6, r2
1000748c:	d302      	bcc.n	10007494 <l23_1>
1000748e:	2201      	movs	r2, #1
10007490:	0412      	lsls	r2, r2, #16
10007492:	18bf      	adds	r7, r7, r2

10007494 <l23_1>:
10007494:	0432      	lsls	r2, r6, #16
10007496:	0c33      	lsrs	r3, r6, #16
10007498:	1952      	adds	r2, r2, r5
1000749a:	417b      	adcs	r3, r7
1000749c:	4252      	negs	r2, r2
1000749e:	419c      	sbcs	r4, r3
100074a0:	2c00      	cmp	r4, #0
100074a2:	d402      	bmi.n	100074aa <l23_1+0x16>
100074a4:	2200      	movs	r2, #0
100074a6:	3001      	adds	r0, #1
100074a8:	4151      	adcs	r1, r2
100074aa:	0840      	lsrs	r0, r0, #1
100074ac:	07ca      	lsls	r2, r1, #31
100074ae:	4310      	orrs	r0, r2
100074b0:	0849      	lsrs	r1, r1, #1

100074b2 <dd_2>:
100074b2:	b002      	add	sp, #8
100074b4:	4662      	mov	r2, ip
100074b6:	07d7      	lsls	r7, r2, #31
100074b8:	1092      	asrs	r2, r2, #2
100074ba:	4b08      	ldr	r3, [pc, #32]	; (100074dc <dd_4+0x6>)
100074bc:	18d2      	adds	r2, r2, r3
100074be:	4b08      	ldr	r3, [pc, #32]	; (100074e0 <dd_4+0xa>)
100074c0:	429a      	cmp	r2, r3
100074c2:	d203      	bcs.n	100074cc <dd_3>
100074c4:	0512      	lsls	r2, r2, #20
100074c6:	1889      	adds	r1, r1, r2

100074c8 <dd_5>:
100074c8:	19c9      	adds	r1, r1, r7
100074ca:	bdf0      	pop	{r4, r5, r6, r7, pc}

100074cc <dd_3>:
100074cc:	2000      	movs	r0, #0
100074ce:	2a00      	cmp	r2, #0
100074d0:	dc01      	bgt.n	100074d6 <dd_4>
100074d2:	0039      	movs	r1, r7
100074d4:	bdf0      	pop	{r4, r5, r6, r7, pc}

100074d6 <dd_4>:
100074d6:	3301      	adds	r3, #1
100074d8:	0519      	lsls	r1, r3, #20
100074da:	e7f5      	b.n	100074c8 <dd_5>
100074dc:	000003fd 	.word	0x000003fd
100074e0:	000007fe 	.word	0x000007fe

100074e4 <dcordic_rot_step>:
100074e4:	4662      	mov	r2, ip
100074e6:	ca18      	ldmia	r2!, {r3, r4}
100074e8:	4694      	mov	ip, r2
100074ea:	2900      	cmp	r1, #0
100074ec:	da1a      	bge.n	10007524 <dcordic_rot_step+0x40>
100074ee:	18c0      	adds	r0, r0, r3
100074f0:	4161      	adcs	r1, r4
100074f2:	465b      	mov	r3, fp
100074f4:	413b      	asrs	r3, r7
100074f6:	465c      	mov	r4, fp
100074f8:	40b4      	lsls	r4, r6
100074fa:	4652      	mov	r2, sl
100074fc:	40fa      	lsrs	r2, r7
100074fe:	4322      	orrs	r2, r4
10007500:	4644      	mov	r4, r8
10007502:	464d      	mov	r5, r9
10007504:	4162      	adcs	r2, r4
10007506:	416b      	adcs	r3, r5
10007508:	4690      	mov	r8, r2
1000750a:	4699      	mov	r9, r3
1000750c:	462b      	mov	r3, r5
1000750e:	40b3      	lsls	r3, r6
10007510:	413d      	asrs	r5, r7
10007512:	40fc      	lsrs	r4, r7
10007514:	431c      	orrs	r4, r3
10007516:	4652      	mov	r2, sl
10007518:	465b      	mov	r3, fp
1000751a:	41a2      	sbcs	r2, r4
1000751c:	41ab      	sbcs	r3, r5
1000751e:	4692      	mov	sl, r2
10007520:	469b      	mov	fp, r3
10007522:	4770      	bx	lr
10007524:	1ac0      	subs	r0, r0, r3
10007526:	41a1      	sbcs	r1, r4
10007528:	464b      	mov	r3, r9
1000752a:	413b      	asrs	r3, r7
1000752c:	464c      	mov	r4, r9
1000752e:	40b4      	lsls	r4, r6
10007530:	4642      	mov	r2, r8
10007532:	40fa      	lsrs	r2, r7
10007534:	4322      	orrs	r2, r4
10007536:	4654      	mov	r4, sl
10007538:	465d      	mov	r5, fp
1000753a:	4162      	adcs	r2, r4
1000753c:	416b      	adcs	r3, r5
1000753e:	4692      	mov	sl, r2
10007540:	469b      	mov	fp, r3
10007542:	462b      	mov	r3, r5
10007544:	40b3      	lsls	r3, r6
10007546:	413d      	asrs	r5, r7
10007548:	40fc      	lsrs	r4, r7
1000754a:	431c      	orrs	r4, r3
1000754c:	4642      	mov	r2, r8
1000754e:	464b      	mov	r3, r9
10007550:	41a2      	sbcs	r2, r4
10007552:	41ab      	sbcs	r3, r5
10007554:	4690      	mov	r8, r2
10007556:	4699      	mov	r9, r3
10007558:	4770      	bx	lr

1000755a <ret_dzero>:
1000755a:	2000      	movs	r0, #0
1000755c:	2100      	movs	r1, #0
1000755e:	4770      	bx	lr

10007560 <double2uint_shim>:
10007560:	2200      	movs	r2, #0

10007562 <double2ufix_shim>:
10007562:	b500      	push	{lr}
10007564:	3220      	adds	r2, #32
10007566:	f000 f804 	bl	10007572 <double2ufix64_shim>
1000756a:	0008      	movs	r0, r1
1000756c:	bd00      	pop	{pc}
	...

10007570 <double2uint64_shim>:
10007570:	2200      	movs	r2, #0

10007572 <double2ufix64_shim>:
10007572:	150b      	asrs	r3, r1, #20
10007574:	d4f1      	bmi.n	1000755a <ret_dzero>

10007576 <d2fix>:
10007576:	b510      	push	{r4, lr}
10007578:	4694      	mov	ip, r2
1000757a:	f000 f82f 	bl	100075dc <dunpacks>
1000757e:	1414      	asrs	r4, r2, #16
10007580:	3401      	adds	r4, #1
10007582:	da00      	bge.n	10007586 <d2fix+0x10>
10007584:	2100      	movs	r1, #0
10007586:	17cb      	asrs	r3, r1, #31
10007588:	4c13      	ldr	r4, [pc, #76]	; (100075d8 <d2fix_a+0x4c>)
1000758a:	4720      	bx	r4

1000758c <d2fix_a>:
1000758c:	4462      	add	r2, ip
1000758e:	3a34      	subs	r2, #52	; 0x34
10007590:	d40c      	bmi.n	100075ac <d2fix_a+0x20>
10007592:	2a0c      	cmp	r2, #12
10007594:	da07      	bge.n	100075a6 <d2fix_a+0x1a>
10007596:	0004      	movs	r4, r0
10007598:	4091      	lsls	r1, r2
1000759a:	4090      	lsls	r0, r2
1000759c:	4252      	negs	r2, r2
1000759e:	3220      	adds	r2, #32
100075a0:	40d4      	lsrs	r4, r2
100075a2:	4321      	orrs	r1, r4
100075a4:	bd10      	pop	{r4, pc}
100075a6:	43d8      	mvns	r0, r3
100075a8:	43d9      	mvns	r1, r3
100075aa:	bd10      	pop	{r4, pc}
100075ac:	3220      	adds	r2, #32
100075ae:	d407      	bmi.n	100075c0 <d2fix_a+0x34>
100075b0:	460c      	mov	r4, r1
100075b2:	4094      	lsls	r4, r2
100075b4:	4252      	negs	r2, r2
100075b6:	3220      	adds	r2, #32
100075b8:	4111      	asrs	r1, r2
100075ba:	40d0      	lsrs	r0, r2
100075bc:	4320      	orrs	r0, r4
100075be:	bd10      	pop	{r4, pc}
100075c0:	0008      	movs	r0, r1
100075c2:	17c9      	asrs	r1, r1, #31
100075c4:	3220      	adds	r2, #32
100075c6:	d403      	bmi.n	100075d0 <d2fix_a+0x44>
100075c8:	4252      	negs	r2, r2
100075ca:	3220      	adds	r2, #32
100075cc:	4110      	asrs	r0, r2
100075ce:	bd10      	pop	{r4, pc}
100075d0:	0018      	movs	r0, r3
100075d2:	0019      	movs	r1, r3
100075d4:	bd10      	pop	{r4, pc}
100075d6:	0000      	.short	0x0000
100075d8:	1000758d 	.word	0x1000758d

100075dc <dunpacks>:
100075dc:	0d0a      	lsrs	r2, r1, #20
100075de:	0fcc      	lsrs	r4, r1, #31
100075e0:	1e53      	subs	r3, r2, #1
100075e2:	051b      	lsls	r3, r3, #20
100075e4:	1ac9      	subs	r1, r1, r3
100075e6:	0552      	lsls	r2, r2, #21
100075e8:	d303      	bcc.n	100075f2 <l60_1>
100075ea:	43c9      	mvns	r1, r1
100075ec:	4240      	negs	r0, r0
100075ee:	d300      	bcc.n	100075f2 <l60_1>
100075f0:	3101      	adds	r1, #1

100075f2 <l60_1>:
100075f2:	0d52      	lsrs	r2, r2, #21
100075f4:	d003      	beq.n	100075fe <l60_2>
100075f6:	1c53      	adds	r3, r2, #1
100075f8:	0adb      	lsrs	r3, r3, #11
100075fa:	d007      	beq.n	1000760c <l60_3>
100075fc:	1b12      	subs	r2, r2, r4

100075fe <l60_2>:
100075fe:	2000      	movs	r0, #0
10007600:	0064      	lsls	r4, r4, #1
10007602:	1c61      	adds	r1, r4, #1
10007604:	0789      	lsls	r1, r1, #30
10007606:	1289      	asrs	r1, r1, #10
10007608:	3a80      	subs	r2, #128	; 0x80
1000760a:	0312      	lsls	r2, r2, #12

1000760c <l60_3>:
1000760c:	4b01      	ldr	r3, [pc, #4]	; (10007614 <l60_3+0x8>)
1000760e:	1ad2      	subs	r2, r2, r3
10007610:	4770      	bx	lr
10007612:	0000      	.short	0x0000
10007614:	000003ff 	.word	0x000003ff

10007618 <__wrap___aeabi_lmul>:
10007618:	4351      	muls	r1, r2
1000761a:	4343      	muls	r3, r0
1000761c:	18c9      	adds	r1, r1, r3
1000761e:	468c      	mov	ip, r1
10007620:	0c11      	lsrs	r1, r2, #16
10007622:	b283      	uxth	r3, r0
10007624:	434b      	muls	r3, r1
10007626:	b410      	push	{r4}
10007628:	0c04      	lsrs	r4, r0, #16
1000762a:	4361      	muls	r1, r4
1000762c:	b292      	uxth	r2, r2
1000762e:	b280      	uxth	r0, r0
10007630:	4350      	muls	r0, r2
10007632:	4362      	muls	r2, r4
10007634:	041c      	lsls	r4, r3, #16
10007636:	0c1b      	lsrs	r3, r3, #16
10007638:	1900      	adds	r0, r0, r4
1000763a:	bc10      	pop	{r4}
1000763c:	4159      	adcs	r1, r3
1000763e:	0413      	lsls	r3, r2, #16
10007640:	0c12      	lsrs	r2, r2, #16
10007642:	18c0      	adds	r0, r0, r3
10007644:	4151      	adcs	r1, r2
10007646:	4461      	add	r1, ip
10007648:	4770      	bx	lr
	...

1000764c <__wrap___aeabi_frsub>:
1000764c:	4048      	eors	r0, r1
1000764e:	4041      	eors	r1, r0
10007650:	4048      	eors	r0, r1

10007652 <__wrap___aeabi_fsub>:
10007652:	4b06      	ldr	r3, [pc, #24]	; (1000766c <__wrap___aeabi_fmul+0x8>)
10007654:	685b      	ldr	r3, [r3, #4]
10007656:	4718      	bx	r3

10007658 <__wrap___aeabi_fadd>:
10007658:	4b04      	ldr	r3, [pc, #16]	; (1000766c <__wrap___aeabi_fmul+0x8>)
1000765a:	681b      	ldr	r3, [r3, #0]
1000765c:	4718      	bx	r3

1000765e <__wrap___aeabi_fdiv>:
1000765e:	4b03      	ldr	r3, [pc, #12]	; (1000766c <__wrap___aeabi_fmul+0x8>)
10007660:	68db      	ldr	r3, [r3, #12]
10007662:	4718      	bx	r3

10007664 <__wrap___aeabi_fmul>:
10007664:	4b01      	ldr	r3, [pc, #4]	; (1000766c <__wrap___aeabi_fmul+0x8>)
10007666:	689b      	ldr	r3, [r3, #8]
10007668:	4718      	bx	r3
1000766a:	0000      	.short	0x0000
1000766c:	20001d90 	.word	0x20001d90

10007670 <__wrap___aeabi_ui2f>:
10007670:	1a49      	subs	r1, r1, r1
10007672:	2800      	cmp	r0, #0
10007674:	d108      	bne.n	10007688 <__aeabi_i2f_main>
10007676:	4608      	mov	r0, r1
10007678:	4770      	bx	lr
	...

1000767c <__wrap___aeabi_i2f>:
1000767c:	0fc1      	lsrs	r1, r0, #31
1000767e:	07c9      	lsls	r1, r1, #31
10007680:	d500      	bpl.n	10007684 <__wrap___aeabi_i2f+0x8>
10007682:	4240      	negs	r0, r0
10007684:	2800      	cmp	r0, #0
10007686:	d017      	beq.n	100076b8 <__aeabi_i2f_main+0x30>

10007688 <__aeabi_i2f_main>:
10007688:	46f4      	mov	ip, lr
1000768a:	b403      	push	{r0, r1}
1000768c:	4b0b      	ldr	r3, [pc, #44]	; (100076bc <__aeabi_i2f_main+0x34>)
1000768e:	681b      	ldr	r3, [r3, #0]
10007690:	4798      	blx	r3
10007692:	bc06      	pop	{r1, r2}
10007694:	4081      	lsls	r1, r0
10007696:	389e      	subs	r0, #158	; 0x9e
10007698:	4240      	negs	r0, r0
1000769a:	3180      	adds	r1, #128	; 0x80
1000769c:	d207      	bcs.n	100076ae <__aeabi_i2f_main+0x26>
1000769e:	060b      	lsls	r3, r1, #24
100076a0:	d007      	beq.n	100076b2 <__aeabi_i2f_main+0x2a>
100076a2:	0049      	lsls	r1, r1, #1
100076a4:	0a49      	lsrs	r1, r1, #9
100076a6:	05c0      	lsls	r0, r0, #23
100076a8:	4310      	orrs	r0, r2
100076aa:	4308      	orrs	r0, r1
100076ac:	4760      	bx	ip
100076ae:	3001      	adds	r0, #1
100076b0:	e7f8      	b.n	100076a4 <__aeabi_i2f_main+0x1c>
100076b2:	0a49      	lsrs	r1, r1, #9
100076b4:	0289      	lsls	r1, r1, #10
100076b6:	e7f5      	b.n	100076a4 <__aeabi_i2f_main+0x1c>
100076b8:	4770      	bx	lr
100076ba:	0000      	.short	0x0000
100076bc:	20001e90 	.word	0x20001e90

100076c0 <__wrap___aeabi_f2uiz>:
100076c0:	4b01      	ldr	r3, [pc, #4]	; (100076c8 <__wrap___aeabi_f2uiz+0x8>)
100076c2:	6a5b      	ldr	r3, [r3, #36]	; 0x24
100076c4:	4718      	bx	r3
100076c6:	0000      	.short	0x0000
100076c8:	20001d90 	.word	0x20001d90

100076cc <__aeabi_float_init>:
100076cc:	2313      	movs	r3, #19
100076ce:	b510      	push	{r4, lr}
100076d0:	781c      	ldrb	r4, [r3, #0]
100076d2:	4813      	ldr	r0, [pc, #76]	; (10007720 <__aeabi_float_init+0x54>)
100076d4:	f7ff f928 	bl	10006928 <rom_data_lookup>
100076d8:	2c01      	cmp	r4, #1
100076da:	d00b      	beq.n	100076f4 <__aeabi_float_init+0x28>
100076dc:	dd04      	ble.n	100076e8 <__aeabi_float_init+0x1c>
100076de:	0001      	movs	r1, r0
100076e0:	2280      	movs	r2, #128	; 0x80
100076e2:	4810      	ldr	r0, [pc, #64]	; (10007724 <__aeabi_float_init+0x58>)
100076e4:	f000 f852 	bl	1000778c <__wrap___aeabi_memcpy>
100076e8:	480f      	ldr	r0, [pc, #60]	; (10007728 <__aeabi_float_init+0x5c>)
100076ea:	f7ff f915 	bl	10006918 <rom_func_lookup>
100076ee:	4b0f      	ldr	r3, [pc, #60]	; (1000772c <__aeabi_float_init+0x60>)
100076f0:	6018      	str	r0, [r3, #0]
100076f2:	bd10      	pop	{r4, pc}
100076f4:	4c0b      	ldr	r4, [pc, #44]	; (10007724 <__aeabi_float_init+0x58>)
100076f6:	0001      	movs	r1, r0
100076f8:	2254      	movs	r2, #84	; 0x54
100076fa:	0020      	movs	r0, r4
100076fc:	f000 f846 	bl	1000778c <__wrap___aeabi_memcpy>
10007700:	4b0b      	ldr	r3, [pc, #44]	; (10007730 <__aeabi_float_init+0x64>)
10007702:	6563      	str	r3, [r4, #84]	; 0x54
10007704:	65a3      	str	r3, [r4, #88]	; 0x58
10007706:	65e3      	str	r3, [r4, #92]	; 0x5c
10007708:	6623      	str	r3, [r4, #96]	; 0x60
1000770a:	6663      	str	r3, [r4, #100]	; 0x64
1000770c:	66a3      	str	r3, [r4, #104]	; 0x68
1000770e:	66e3      	str	r3, [r4, #108]	; 0x6c
10007710:	6723      	str	r3, [r4, #112]	; 0x70
10007712:	6763      	str	r3, [r4, #116]	; 0x74
10007714:	67a3      	str	r3, [r4, #120]	; 0x78
10007716:	67e3      	str	r3, [r4, #124]	; 0x7c
10007718:	6223      	str	r3, [r4, #32]
1000771a:	61e3      	str	r3, [r4, #28]
1000771c:	e7e4      	b.n	100076e8 <__aeabi_float_init+0x1c>
1000771e:	46c0      	nop			; (mov r8, r8)
10007720:	00004653 	.word	0x00004653
10007724:	20001d90 	.word	0x20001d90
10007728:	0000334c 	.word	0x0000334c
1000772c:	20001e90 	.word	0x20001e90
10007730:	10007735 	.word	0x10007735

10007734 <float_table_shim_on_use_helper>:
10007734:	b507      	push	{r0, r1, r2, lr}
10007736:	4660      	mov	r0, ip
10007738:	8801      	ldrh	r1, [r0, #0]
1000773a:	0a0a      	lsrs	r2, r1, #8
1000773c:	3002      	adds	r0, #2
1000773e:	2adf      	cmp	r2, #223	; 0xdf
10007740:	d1fa      	bne.n	10007738 <float_table_shim_on_use_helper+0x4>
10007742:	b2c9      	uxtb	r1, r1
10007744:	0882      	lsrs	r2, r0, #2
10007746:	d304      	bcc.n	10007752 <float_table_shim_on_use_helper+0x1e>
10007748:	8802      	ldrh	r2, [r0, #0]
1000774a:	8840      	ldrh	r0, [r0, #2]
1000774c:	0400      	lsls	r0, r0, #16
1000774e:	4310      	orrs	r0, r2
10007750:	e000      	b.n	10007754 <float_table_shim_on_use_helper+0x20>
10007752:	6800      	ldr	r0, [r0, #0]
10007754:	4a01      	ldr	r2, [pc, #4]	; (1000775c <float_table_shim_on_use_helper+0x28>)
10007756:	5050      	str	r0, [r2, r1]
10007758:	9003      	str	r0, [sp, #12]
1000775a:	bd07      	pop	{r0, r1, r2, pc}
1000775c:	20001d90 	.word	0x20001d90

10007760 <__wrap_malloc>:
10007760:	b510      	push	{r4, lr}
10007762:	f002 fe03 	bl	1000a36c <malloc>
10007766:	bd10      	pop	{r4, pc}

10007768 <__wrap_calloc>:
10007768:	b510      	push	{r4, lr}
1000776a:	f002 fdc7 	bl	1000a2fc <calloc>
1000776e:	bd10      	pop	{r4, pc}

10007770 <__aeabi_mem_init>:
10007770:	4801      	ldr	r0, [pc, #4]	; (10007778 <__aeabi_mem_init+0x8>)
10007772:	2104      	movs	r1, #4
10007774:	4b01      	ldr	r3, [pc, #4]	; (1000777c <__aeabi_mem_init+0xc>)
10007776:	4718      	bx	r3
10007778:	200002b0 	.word	0x200002b0
1000777c:	10006939 	.word	0x10006939

10007780 <__wrap_memset>:
10007780:	4b01      	ldr	r3, [pc, #4]	; (10007788 <__wrap_memset+0x8>)
10007782:	681b      	ldr	r3, [r3, #0]
10007784:	4718      	bx	r3
10007786:	0000      	.short	0x0000
10007788:	200002b0 	.word	0x200002b0

1000778c <__wrap___aeabi_memcpy>:
1000778c:	4b01      	ldr	r3, [pc, #4]	; (10007794 <__wrap___aeabi_memcpy+0x8>)
1000778e:	685b      	ldr	r3, [r3, #4]
10007790:	4718      	bx	r3
10007792:	0000      	.short	0x0000
10007794:	200002b0 	.word	0x200002b0

10007798 <stdio_out_chars_crlf>:
10007798:	b5f8      	push	{r3, r4, r5, r6, r7, lr}
1000779a:	4647      	mov	r7, r8
1000779c:	46ce      	mov	lr, r9
1000779e:	b580      	push	{r7, lr}
100077a0:	7c43      	ldrb	r3, [r0, #17]
100077a2:	4680      	mov	r8, r0
100077a4:	000e      	movs	r6, r1
100077a6:	0017      	movs	r7, r2
100077a8:	2b00      	cmp	r3, #0
100077aa:	d048      	beq.n	1000783e <stdio_out_chars_crlf+0xa6>
100077ac:	2a00      	cmp	r2, #0
100077ae:	dd2e      	ble.n	1000780e <stdio_out_chars_crlf+0x76>
100077b0:	4b27      	ldr	r3, [pc, #156]	; (10007850 <stdio_out_chars_crlf+0xb8>)
100077b2:	2501      	movs	r5, #1
100077b4:	2400      	movs	r4, #0
100077b6:	2000      	movs	r0, #0
100077b8:	4699      	mov	r9, r3
100077ba:	e004      	b.n	100077c6 <stdio_out_chars_crlf+0x2e>
100077bc:	002b      	movs	r3, r5
100077be:	3401      	adds	r4, #1
100077c0:	3501      	adds	r5, #1
100077c2:	429f      	cmp	r7, r3
100077c4:	dd19      	ble.n	100077fa <stdio_out_chars_crlf+0x62>
100077c6:	2c00      	cmp	r4, #0
100077c8:	d03e      	beq.n	10007848 <stdio_out_chars_crlf+0xb0>
100077ca:	1e63      	subs	r3, r4, #1
100077cc:	5cf3      	ldrb	r3, [r6, r3]
100077ce:	3b0d      	subs	r3, #13
100077d0:	4259      	negs	r1, r3
100077d2:	4159      	adcs	r1, r3
100077d4:	b2cb      	uxtb	r3, r1
100077d6:	5d32      	ldrb	r2, [r6, r4]
100077d8:	2a0a      	cmp	r2, #10
100077da:	d1ef      	bne.n	100077bc <stdio_out_chars_crlf+0x24>
100077dc:	2b00      	cmp	r3, #0
100077de:	d1ed      	bne.n	100077bc <stdio_out_chars_crlf+0x24>
100077e0:	4284      	cmp	r4, r0
100077e2:	dc26      	bgt.n	10007832 <stdio_out_chars_crlf+0x9a>
100077e4:	4643      	mov	r3, r8
100077e6:	4648      	mov	r0, r9
100077e8:	681b      	ldr	r3, [r3, #0]
100077ea:	2102      	movs	r1, #2
100077ec:	4798      	blx	r3
100077ee:	3401      	adds	r4, #1
100077f0:	0028      	movs	r0, r5
100077f2:	002b      	movs	r3, r5
100077f4:	3501      	adds	r5, #1
100077f6:	429f      	cmp	r7, r3
100077f8:	dce5      	bgt.n	100077c6 <stdio_out_chars_crlf+0x2e>
100077fa:	42b8      	cmp	r0, r7
100077fc:	db0b      	blt.n	10007816 <stdio_out_chars_crlf+0x7e>
100077fe:	19f6      	adds	r6, r6, r7
10007800:	3e01      	subs	r6, #1
10007802:	7833      	ldrb	r3, [r6, #0]
10007804:	3b0d      	subs	r3, #13
10007806:	4259      	negs	r1, r3
10007808:	4159      	adcs	r1, r3
1000780a:	4643      	mov	r3, r8
1000780c:	7419      	strb	r1, [r3, #16]
1000780e:	bc0c      	pop	{r2, r3}
10007810:	4690      	mov	r8, r2
10007812:	4699      	mov	r9, r3
10007814:	bdf8      	pop	{r3, r4, r5, r6, r7, pc}
10007816:	4643      	mov	r3, r8
10007818:	1a39      	subs	r1, r7, r0
1000781a:	1830      	adds	r0, r6, r0
1000781c:	19f6      	adds	r6, r6, r7
1000781e:	681b      	ldr	r3, [r3, #0]
10007820:	3e01      	subs	r6, #1
10007822:	4798      	blx	r3
10007824:	7833      	ldrb	r3, [r6, #0]
10007826:	3b0d      	subs	r3, #13
10007828:	4259      	negs	r1, r3
1000782a:	4159      	adcs	r1, r3
1000782c:	4643      	mov	r3, r8
1000782e:	7419      	strb	r1, [r3, #16]
10007830:	e7ed      	b.n	1000780e <stdio_out_chars_crlf+0x76>
10007832:	4643      	mov	r3, r8
10007834:	1a21      	subs	r1, r4, r0
10007836:	681b      	ldr	r3, [r3, #0]
10007838:	1830      	adds	r0, r6, r0
1000783a:	4798      	blx	r3
1000783c:	e7d2      	b.n	100077e4 <stdio_out_chars_crlf+0x4c>
1000783e:	6803      	ldr	r3, [r0, #0]
10007840:	0011      	movs	r1, r2
10007842:	0030      	movs	r0, r6
10007844:	4798      	blx	r3
10007846:	e7e2      	b.n	1000780e <stdio_out_chars_crlf+0x76>
10007848:	4643      	mov	r3, r8
1000784a:	7c1b      	ldrb	r3, [r3, #16]
1000784c:	e7c3      	b.n	100077d6 <stdio_out_chars_crlf+0x3e>
1000784e:	46c0      	nop			; (mov r8, r8)
10007850:	1000b8dc 	.word	0x1000b8dc

10007854 <stdio_buffered_printer>:
10007854:	b5f0      	push	{r4, r5, r6, r7, lr}
10007856:	46c6      	mov	lr, r8
10007858:	680b      	ldr	r3, [r1, #0]
1000785a:	b500      	push	{lr}
1000785c:	0006      	movs	r6, r0
1000785e:	000d      	movs	r5, r1
10007860:	1c5a      	adds	r2, r3, #1
10007862:	2b80      	cmp	r3, #128	; 0x80
10007864:	d005      	beq.n	10007872 <stdio_buffered_printer+0x1e>
10007866:	602a      	str	r2, [r5, #0]
10007868:	18ed      	adds	r5, r5, r3
1000786a:	712e      	strb	r6, [r5, #4]
1000786c:	bc04      	pop	{r2}
1000786e:	4690      	mov	r8, r2
10007870:	bdf0      	pop	{r4, r5, r6, r7, pc}
10007872:	4b0f      	ldr	r3, [pc, #60]	; (100078b0 <stdio_buffered_printer+0x5c>)
10007874:	681c      	ldr	r4, [r3, #0]
10007876:	2c00      	cmp	r4, #0
10007878:	d016      	beq.n	100078a8 <stdio_buffered_printer+0x54>
1000787a:	1d0b      	adds	r3, r1, #4
1000787c:	4f0d      	ldr	r7, [pc, #52]	; (100078b4 <stdio_buffered_printer+0x60>)
1000787e:	4698      	mov	r8, r3
10007880:	e002      	b.n	10007888 <stdio_buffered_printer+0x34>
10007882:	68e4      	ldr	r4, [r4, #12]
10007884:	2c00      	cmp	r4, #0
10007886:	d00f      	beq.n	100078a8 <stdio_buffered_printer+0x54>
10007888:	6823      	ldr	r3, [r4, #0]
1000788a:	2b00      	cmp	r3, #0
1000788c:	d0f9      	beq.n	10007882 <stdio_buffered_printer+0x2e>
1000788e:	683b      	ldr	r3, [r7, #0]
10007890:	2b00      	cmp	r3, #0
10007892:	d001      	beq.n	10007898 <stdio_buffered_printer+0x44>
10007894:	42a3      	cmp	r3, r4
10007896:	d1f4      	bne.n	10007882 <stdio_buffered_printer+0x2e>
10007898:	0020      	movs	r0, r4
1000789a:	682a      	ldr	r2, [r5, #0]
1000789c:	4641      	mov	r1, r8
1000789e:	f7ff ff7b 	bl	10007798 <stdio_out_chars_crlf>
100078a2:	68e4      	ldr	r4, [r4, #12]
100078a4:	2c00      	cmp	r4, #0
100078a6:	d1ef      	bne.n	10007888 <stdio_buffered_printer+0x34>
100078a8:	2201      	movs	r2, #1
100078aa:	2300      	movs	r3, #0
100078ac:	e7db      	b.n	10007866 <stdio_buffered_printer+0x12>
100078ae:	46c0      	nop			; (mov r8, r8)
100078b0:	20000fa4 	.word	0x20000fa4
100078b4:	20000fa8 	.word	0x20000fa8

100078b8 <__wrap_puts>:
100078b8:	b5f0      	push	{r4, r5, r6, r7, lr}
100078ba:	46de      	mov	lr, fp
100078bc:	464e      	mov	r6, r9
100078be:	4657      	mov	r7, sl
100078c0:	4645      	mov	r5, r8
100078c2:	b5e0      	push	{r5, r6, r7, lr}
100078c4:	b083      	sub	sp, #12
100078c6:	0007      	movs	r7, r0
100078c8:	f003 f830 	bl	1000a92c <strlen>
100078cc:	23d0      	movs	r3, #208	; 0xd0
100078ce:	ae01      	add	r6, sp, #4
100078d0:	061b      	lsls	r3, r3, #24
100078d2:	4680      	mov	r8, r0
100078d4:	0031      	movs	r1, r6
100078d6:	4835      	ldr	r0, [pc, #212]	; (100079ac <__wrap_puts+0xf4>)
100078d8:	681c      	ldr	r4, [r3, #0]
100078da:	f003 fd99 	bl	1000b410 <__mutex_try_enter_veneer>
100078de:	4681      	mov	r9, r0
100078e0:	2800      	cmp	r0, #0
100078e2:	d107      	bne.n	100078f4 <__wrap_puts+0x3c>
100078e4:	9b01      	ldr	r3, [sp, #4]
100078e6:	429c      	cmp	r4, r3
100078e8:	d004      	beq.n	100078f4 <__wrap_puts+0x3c>
100078ea:	4830      	ldr	r0, [pc, #192]	; (100079ac <__wrap_puts+0xf4>)
100078ec:	f003 fda0 	bl	1000b430 <__mutex_enter_blocking_veneer>
100078f0:	2301      	movs	r3, #1
100078f2:	4699      	mov	r9, r3
100078f4:	4643      	mov	r3, r8
100078f6:	46c3      	mov	fp, r8
100078f8:	3301      	adds	r3, #1
100078fa:	d051      	beq.n	100079a0 <__wrap_puts+0xe8>
100078fc:	4b2c      	ldr	r3, [pc, #176]	; (100079b0 <__wrap_puts+0xf8>)
100078fe:	681c      	ldr	r4, [r3, #0]
10007900:	469a      	mov	sl, r3
10007902:	2c00      	cmp	r4, #0
10007904:	d040      	beq.n	10007988 <__wrap_puts+0xd0>
10007906:	4d2b      	ldr	r5, [pc, #172]	; (100079b4 <__wrap_puts+0xfc>)
10007908:	e002      	b.n	10007910 <__wrap_puts+0x58>
1000790a:	68e4      	ldr	r4, [r4, #12]
1000790c:	2c00      	cmp	r4, #0
1000790e:	d020      	beq.n	10007952 <__wrap_puts+0x9a>
10007910:	6823      	ldr	r3, [r4, #0]
10007912:	2b00      	cmp	r3, #0
10007914:	d0f9      	beq.n	1000790a <__wrap_puts+0x52>
10007916:	682b      	ldr	r3, [r5, #0]
10007918:	2b00      	cmp	r3, #0
1000791a:	d001      	beq.n	10007920 <__wrap_puts+0x68>
1000791c:	42a3      	cmp	r3, r4
1000791e:	d1f4      	bne.n	1000790a <__wrap_puts+0x52>
10007920:	465a      	mov	r2, fp
10007922:	0039      	movs	r1, r7
10007924:	0020      	movs	r0, r4
10007926:	f7ff ff37 	bl	10007798 <stdio_out_chars_crlf>
1000792a:	230a      	movs	r3, #10
1000792c:	7033      	strb	r3, [r6, #0]
1000792e:	7c63      	ldrb	r3, [r4, #17]
10007930:	2b00      	cmp	r3, #0
10007932:	d030      	beq.n	10007996 <__wrap_puts+0xde>
10007934:	7c23      	ldrb	r3, [r4, #16]
10007936:	2b00      	cmp	r3, #0
10007938:	d121      	bne.n	1000797e <__wrap_puts+0xc6>
1000793a:	2102      	movs	r1, #2
1000793c:	481e      	ldr	r0, [pc, #120]	; (100079b8 <__wrap_puts+0x100>)
1000793e:	6823      	ldr	r3, [r4, #0]
10007940:	4798      	blx	r3
10007942:	7833      	ldrb	r3, [r6, #0]
10007944:	3b0d      	subs	r3, #13
10007946:	4259      	negs	r1, r3
10007948:	4159      	adcs	r1, r3
1000794a:	7421      	strb	r1, [r4, #16]
1000794c:	68e4      	ldr	r4, [r4, #12]
1000794e:	2c00      	cmp	r4, #0
10007950:	d1de      	bne.n	10007910 <__wrap_puts+0x58>
10007952:	464b      	mov	r3, r9
10007954:	2b00      	cmp	r3, #0
10007956:	d11a      	bne.n	1000798e <__wrap_puts+0xd6>
10007958:	4653      	mov	r3, sl
1000795a:	681c      	ldr	r4, [r3, #0]
1000795c:	2c00      	cmp	r4, #0
1000795e:	d006      	beq.n	1000796e <__wrap_puts+0xb6>
10007960:	6863      	ldr	r3, [r4, #4]
10007962:	2b00      	cmp	r3, #0
10007964:	d000      	beq.n	10007968 <__wrap_puts+0xb0>
10007966:	4798      	blx	r3
10007968:	68e4      	ldr	r4, [r4, #12]
1000796a:	2c00      	cmp	r4, #0
1000796c:	d1f8      	bne.n	10007960 <__wrap_puts+0xa8>
1000796e:	4640      	mov	r0, r8
10007970:	b003      	add	sp, #12
10007972:	bc3c      	pop	{r2, r3, r4, r5}
10007974:	4690      	mov	r8, r2
10007976:	4699      	mov	r9, r3
10007978:	46a2      	mov	sl, r4
1000797a:	46ab      	mov	fp, r5
1000797c:	bdf0      	pop	{r4, r5, r6, r7, pc}
1000797e:	2101      	movs	r1, #1
10007980:	0030      	movs	r0, r6
10007982:	6823      	ldr	r3, [r4, #0]
10007984:	4798      	blx	r3
10007986:	e7dc      	b.n	10007942 <__wrap_puts+0x8a>
10007988:	464b      	mov	r3, r9
1000798a:	2b00      	cmp	r3, #0
1000798c:	d0ef      	beq.n	1000796e <__wrap_puts+0xb6>
1000798e:	4807      	ldr	r0, [pc, #28]	; (100079ac <__wrap_puts+0xf4>)
10007990:	f003 fd26 	bl	1000b3e0 <__mutex_exit_veneer>
10007994:	e7e0      	b.n	10007958 <__wrap_puts+0xa0>
10007996:	2101      	movs	r1, #1
10007998:	0030      	movs	r0, r6
1000799a:	6823      	ldr	r3, [r4, #0]
1000799c:	4798      	blx	r3
1000799e:	e7b4      	b.n	1000790a <__wrap_puts+0x52>
100079a0:	0038      	movs	r0, r7
100079a2:	f002 ffc3 	bl	1000a92c <strlen>
100079a6:	4683      	mov	fp, r0
100079a8:	e7a8      	b.n	100078fc <__wrap_puts+0x44>
100079aa:	46c0      	nop			; (mov r8, r8)
100079ac:	20000b38 	.word	0x20000b38
100079b0:	20000fa4 	.word	0x20000fa4
100079b4:	20000fa8 	.word	0x20000fa8
100079b8:	1000b8dc 	.word	0x1000b8dc

100079bc <_read>:
100079bc:	b5f0      	push	{r4, r5, r6, r7, lr}
100079be:	4646      	mov	r6, r8
100079c0:	46de      	mov	lr, fp
100079c2:	4657      	mov	r7, sl
100079c4:	b5c0      	push	{r6, r7, lr}
100079c6:	4690      	mov	r8, r2
100079c8:	b082      	sub	sp, #8
100079ca:	000e      	movs	r6, r1
100079cc:	2800      	cmp	r0, #0
100079ce:	d12c      	bne.n	10007a2a <_read+0x6e>
100079d0:	4b17      	ldr	r3, [pc, #92]	; (10007a30 <_read+0x74>)
100079d2:	4d18      	ldr	r5, [pc, #96]	; (10007a34 <_read+0x78>)
100079d4:	681a      	ldr	r2, [r3, #0]
100079d6:	685b      	ldr	r3, [r3, #4]
100079d8:	4f17      	ldr	r7, [pc, #92]	; (10007a38 <_read+0x7c>)
100079da:	469a      	mov	sl, r3
100079dc:	4b17      	ldr	r3, [pc, #92]	; (10007a3c <_read+0x80>)
100079de:	9201      	str	r2, [sp, #4]
100079e0:	469b      	mov	fp, r3
100079e2:	465b      	mov	r3, fp
100079e4:	681c      	ldr	r4, [r3, #0]
100079e6:	2c00      	cmp	r4, #0
100079e8:	d105      	bne.n	100079f6 <_read+0x3a>
100079ea:	e015      	b.n	10007a18 <_read+0x5c>
100079ec:	42a3      	cmp	r3, r4
100079ee:	d005      	beq.n	100079fc <_read+0x40>
100079f0:	68e4      	ldr	r4, [r4, #12]
100079f2:	2c00      	cmp	r4, #0
100079f4:	d010      	beq.n	10007a18 <_read+0x5c>
100079f6:	682b      	ldr	r3, [r5, #0]
100079f8:	2b00      	cmp	r3, #0
100079fa:	d1f7      	bne.n	100079ec <_read+0x30>
100079fc:	68a3      	ldr	r3, [r4, #8]
100079fe:	2b00      	cmp	r3, #0
10007a00:	d0f6      	beq.n	100079f0 <_read+0x34>
10007a02:	4641      	mov	r1, r8
10007a04:	0030      	movs	r0, r6
10007a06:	4798      	blx	r3
10007a08:	2800      	cmp	r0, #0
10007a0a:	ddf1      	ble.n	100079f0 <_read+0x34>
10007a0c:	b002      	add	sp, #8
10007a0e:	bc1c      	pop	{r2, r3, r4}
10007a10:	4690      	mov	r8, r2
10007a12:	469a      	mov	sl, r3
10007a14:	46a3      	mov	fp, r4
10007a16:	bdf0      	pop	{r4, r5, r6, r7, pc}
10007a18:	6a7b      	ldr	r3, [r7, #36]	; 0x24
10007a1a:	459a      	cmp	sl, r3
10007a1c:	d8e1      	bhi.n	100079e2 <_read+0x26>
10007a1e:	6aba      	ldr	r2, [r7, #40]	; 0x28
10007a20:	9901      	ldr	r1, [sp, #4]
10007a22:	428a      	cmp	r2, r1
10007a24:	d201      	bcs.n	10007a2a <_read+0x6e>
10007a26:	459a      	cmp	sl, r3
10007a28:	d0db      	beq.n	100079e2 <_read+0x26>
10007a2a:	2001      	movs	r0, #1
10007a2c:	4240      	negs	r0, r0
10007a2e:	e7ed      	b.n	10007a0c <_read+0x50>
10007a30:	1000b600 	.word	0x1000b600
10007a34:	20000fa8 	.word	0x20000fa8
10007a38:	40054000 	.word	0x40054000
10007a3c:	20000fa4 	.word	0x20000fa4

10007a40 <_write>:
10007a40:	b5f0      	push	{r4, r5, r6, r7, lr}
10007a42:	4646      	mov	r6, r8
10007a44:	46d6      	mov	lr, sl
10007a46:	464f      	mov	r7, r9
10007a48:	b5c0      	push	{r6, r7, lr}
10007a4a:	4688      	mov	r8, r1
10007a4c:	b082      	sub	sp, #8
10007a4e:	0016      	movs	r6, r2
10007a50:	2801      	cmp	r0, #1
10007a52:	d13f      	bne.n	10007ad4 <_write+0x94>
10007a54:	23d0      	movs	r3, #208	; 0xd0
10007a56:	061b      	lsls	r3, r3, #24
10007a58:	681c      	ldr	r4, [r3, #0]
10007a5a:	4b20      	ldr	r3, [pc, #128]	; (10007adc <_write+0x9c>)
10007a5c:	a901      	add	r1, sp, #4
10007a5e:	0018      	movs	r0, r3
10007a60:	469a      	mov	sl, r3
10007a62:	f003 fcd5 	bl	1000b410 <__mutex_try_enter_veneer>
10007a66:	1e07      	subs	r7, r0, #0
10007a68:	d106      	bne.n	10007a78 <_write+0x38>
10007a6a:	9b01      	ldr	r3, [sp, #4]
10007a6c:	429c      	cmp	r4, r3
10007a6e:	d003      	beq.n	10007a78 <_write+0x38>
10007a70:	4650      	mov	r0, sl
10007a72:	f003 fcdd 	bl	1000b430 <__mutex_enter_blocking_veneer>
10007a76:	3701      	adds	r7, #1
10007a78:	46b1      	mov	r9, r6
10007a7a:	1c73      	adds	r3, r6, #1
10007a7c:	d025      	beq.n	10007aca <_write+0x8a>
10007a7e:	4b18      	ldr	r3, [pc, #96]	; (10007ae0 <_write+0xa0>)
10007a80:	681c      	ldr	r4, [r3, #0]
10007a82:	2c00      	cmp	r4, #0
10007a84:	d014      	beq.n	10007ab0 <_write+0x70>
10007a86:	4d17      	ldr	r5, [pc, #92]	; (10007ae4 <_write+0xa4>)
10007a88:	e002      	b.n	10007a90 <_write+0x50>
10007a8a:	68e4      	ldr	r4, [r4, #12]
10007a8c:	2c00      	cmp	r4, #0
10007a8e:	d00f      	beq.n	10007ab0 <_write+0x70>
10007a90:	6823      	ldr	r3, [r4, #0]
10007a92:	2b00      	cmp	r3, #0
10007a94:	d0f9      	beq.n	10007a8a <_write+0x4a>
10007a96:	682b      	ldr	r3, [r5, #0]
10007a98:	2b00      	cmp	r3, #0
10007a9a:	d001      	beq.n	10007aa0 <_write+0x60>
10007a9c:	42a3      	cmp	r3, r4
10007a9e:	d1f4      	bne.n	10007a8a <_write+0x4a>
10007aa0:	0020      	movs	r0, r4
10007aa2:	464a      	mov	r2, r9
10007aa4:	4641      	mov	r1, r8
10007aa6:	f7ff fe77 	bl	10007798 <stdio_out_chars_crlf>
10007aaa:	68e4      	ldr	r4, [r4, #12]
10007aac:	2c00      	cmp	r4, #0
10007aae:	d1ef      	bne.n	10007a90 <_write+0x50>
10007ab0:	2f00      	cmp	r7, #0
10007ab2:	d106      	bne.n	10007ac2 <_write+0x82>
10007ab4:	0030      	movs	r0, r6
10007ab6:	b002      	add	sp, #8
10007ab8:	bc1c      	pop	{r2, r3, r4}
10007aba:	4690      	mov	r8, r2
10007abc:	4699      	mov	r9, r3
10007abe:	46a2      	mov	sl, r4
10007ac0:	bdf0      	pop	{r4, r5, r6, r7, pc}
10007ac2:	4650      	mov	r0, sl
10007ac4:	f003 fc8c 	bl	1000b3e0 <__mutex_exit_veneer>
10007ac8:	e7f4      	b.n	10007ab4 <_write+0x74>
10007aca:	4640      	mov	r0, r8
10007acc:	f002 ff2e 	bl	1000a92c <strlen>
10007ad0:	4681      	mov	r9, r0
10007ad2:	e7d4      	b.n	10007a7e <_write+0x3e>
10007ad4:	2601      	movs	r6, #1
10007ad6:	4276      	negs	r6, r6
10007ad8:	e7ec      	b.n	10007ab4 <_write+0x74>
10007ada:	46c0      	nop			; (mov r8, r8)
10007adc:	20000b38 	.word	0x20000b38
10007ae0:	20000fa4 	.word	0x20000fa4
10007ae4:	20000fa8 	.word	0x20000fa8

10007ae8 <stdio_set_driver_enabled>:
10007ae8:	4b0d      	ldr	r3, [pc, #52]	; (10007b20 <stdio_set_driver_enabled+0x38>)
10007aea:	681a      	ldr	r2, [r3, #0]
10007aec:	2a00      	cmp	r2, #0
10007aee:	d012      	beq.n	10007b16 <stdio_set_driver_enabled+0x2e>
10007af0:	4282      	cmp	r2, r0
10007af2:	d103      	bne.n	10007afc <stdio_set_driver_enabled+0x14>
10007af4:	e009      	b.n	10007b0a <stdio_set_driver_enabled+0x22>
10007af6:	4298      	cmp	r0, r3
10007af8:	d007      	beq.n	10007b0a <stdio_set_driver_enabled+0x22>
10007afa:	001a      	movs	r2, r3
10007afc:	68d3      	ldr	r3, [r2, #12]
10007afe:	2b00      	cmp	r3, #0
10007b00:	d1f9      	bne.n	10007af6 <stdio_set_driver_enabled+0xe>
10007b02:	2900      	cmp	r1, #0
10007b04:	d000      	beq.n	10007b08 <stdio_set_driver_enabled+0x20>
10007b06:	60d0      	str	r0, [r2, #12]
10007b08:	4770      	bx	lr
10007b0a:	2900      	cmp	r1, #0
10007b0c:	d1fc      	bne.n	10007b08 <stdio_set_driver_enabled+0x20>
10007b0e:	68c3      	ldr	r3, [r0, #12]
10007b10:	60d3      	str	r3, [r2, #12]
10007b12:	60c1      	str	r1, [r0, #12]
10007b14:	e7f8      	b.n	10007b08 <stdio_set_driver_enabled+0x20>
10007b16:	2900      	cmp	r1, #0
10007b18:	d0f6      	beq.n	10007b08 <stdio_set_driver_enabled+0x20>
10007b1a:	6018      	str	r0, [r3, #0]
10007b1c:	e7f4      	b.n	10007b08 <stdio_set_driver_enabled+0x20>
10007b1e:	46c0      	nop			; (mov r8, r8)
10007b20:	20000fa4 	.word	0x20000fa4

10007b24 <__wrap_vprintf>:
10007b24:	b5f0      	push	{r4, r5, r6, r7, lr}
10007b26:	4647      	mov	r7, r8
10007b28:	46ce      	mov	lr, r9
10007b2a:	23d0      	movs	r3, #208	; 0xd0
10007b2c:	b580      	push	{r7, lr}
10007b2e:	4e2d      	ldr	r6, [pc, #180]	; (10007be4 <__wrap_vprintf+0xc0>)
10007b30:	061b      	lsls	r3, r3, #24
10007b32:	b0a5      	sub	sp, #148	; 0x94
10007b34:	681b      	ldr	r3, [r3, #0]
10007b36:	0004      	movs	r4, r0
10007b38:	000f      	movs	r7, r1
10007b3a:	0030      	movs	r0, r6
10007b3c:	a903      	add	r1, sp, #12
10007b3e:	4698      	mov	r8, r3
10007b40:	f003 fc66 	bl	1000b410 <__mutex_try_enter_veneer>
10007b44:	1e05      	subs	r5, r0, #0
10007b46:	d106      	bne.n	10007b56 <__wrap_vprintf+0x32>
10007b48:	9b03      	ldr	r3, [sp, #12]
10007b4a:	4598      	cmp	r8, r3
10007b4c:	d003      	beq.n	10007b56 <__wrap_vprintf+0x32>
10007b4e:	0030      	movs	r0, r6
10007b50:	f003 fc6e 	bl	1000b430 <__mutex_enter_blocking_veneer>
10007b54:	3501      	adds	r5, #1
10007b56:	2284      	movs	r2, #132	; 0x84
10007b58:	2100      	movs	r1, #0
10007b5a:	a803      	add	r0, sp, #12
10007b5c:	f7ff fe10 	bl	10007780 <__wrap_memset>
10007b60:	003b      	movs	r3, r7
10007b62:	0022      	movs	r2, r4
10007b64:	a903      	add	r1, sp, #12
10007b66:	4820      	ldr	r0, [pc, #128]	; (10007be8 <__wrap_vprintf+0xc4>)
10007b68:	f7fe fea0 	bl	100068ac <vfctprintf>
10007b6c:	9b03      	ldr	r3, [sp, #12]
10007b6e:	4680      	mov	r8, r0
10007b70:	2b00      	cmp	r3, #0
10007b72:	d115      	bne.n	10007ba0 <__wrap_vprintf+0x7c>
10007b74:	4b1d      	ldr	r3, [pc, #116]	; (10007bec <__wrap_vprintf+0xc8>)
10007b76:	681c      	ldr	r4, [r3, #0]
10007b78:	2c00      	cmp	r4, #0
10007b7a:	d006      	beq.n	10007b8a <__wrap_vprintf+0x66>
10007b7c:	6863      	ldr	r3, [r4, #4]
10007b7e:	2b00      	cmp	r3, #0
10007b80:	d000      	beq.n	10007b84 <__wrap_vprintf+0x60>
10007b82:	4798      	blx	r3
10007b84:	68e4      	ldr	r4, [r4, #12]
10007b86:	2c00      	cmp	r4, #0
10007b88:	d1f8      	bne.n	10007b7c <__wrap_vprintf+0x58>
10007b8a:	2d00      	cmp	r5, #0
10007b8c:	d002      	beq.n	10007b94 <__wrap_vprintf+0x70>
10007b8e:	0030      	movs	r0, r6
10007b90:	f003 fc26 	bl	1000b3e0 <__mutex_exit_veneer>
10007b94:	4640      	mov	r0, r8
10007b96:	b025      	add	sp, #148	; 0x94
10007b98:	bc0c      	pop	{r2, r3}
10007b9a:	4690      	mov	r8, r2
10007b9c:	4699      	mov	r9, r3
10007b9e:	bdf0      	pop	{r4, r5, r6, r7, pc}
10007ba0:	4b12      	ldr	r3, [pc, #72]	; (10007bec <__wrap_vprintf+0xc8>)
10007ba2:	681c      	ldr	r4, [r3, #0]
10007ba4:	4699      	mov	r9, r3
10007ba6:	2c00      	cmp	r4, #0
10007ba8:	d018      	beq.n	10007bdc <__wrap_vprintf+0xb8>
10007baa:	4f11      	ldr	r7, [pc, #68]	; (10007bf0 <__wrap_vprintf+0xcc>)
10007bac:	e002      	b.n	10007bb4 <__wrap_vprintf+0x90>
10007bae:	68e4      	ldr	r4, [r4, #12]
10007bb0:	2c00      	cmp	r4, #0
10007bb2:	d011      	beq.n	10007bd8 <__wrap_vprintf+0xb4>
10007bb4:	6823      	ldr	r3, [r4, #0]
10007bb6:	2b00      	cmp	r3, #0
10007bb8:	d0f9      	beq.n	10007bae <__wrap_vprintf+0x8a>
10007bba:	683b      	ldr	r3, [r7, #0]
10007bbc:	2b00      	cmp	r3, #0
10007bbe:	d001      	beq.n	10007bc4 <__wrap_vprintf+0xa0>
10007bc0:	42a3      	cmp	r3, r4
10007bc2:	d1f4      	bne.n	10007bae <__wrap_vprintf+0x8a>
10007bc4:	9b03      	ldr	r3, [sp, #12]
10007bc6:	0020      	movs	r0, r4
10007bc8:	001a      	movs	r2, r3
10007bca:	a904      	add	r1, sp, #16
10007bcc:	9301      	str	r3, [sp, #4]
10007bce:	f7ff fde3 	bl	10007798 <stdio_out_chars_crlf>
10007bd2:	68e4      	ldr	r4, [r4, #12]
10007bd4:	2c00      	cmp	r4, #0
10007bd6:	d1ed      	bne.n	10007bb4 <__wrap_vprintf+0x90>
10007bd8:	464b      	mov	r3, r9
10007bda:	681c      	ldr	r4, [r3, #0]
10007bdc:	2300      	movs	r3, #0
10007bde:	9303      	str	r3, [sp, #12]
10007be0:	e7ca      	b.n	10007b78 <__wrap_vprintf+0x54>
10007be2:	46c0      	nop			; (mov r8, r8)
10007be4:	20000b38 	.word	0x20000b38
10007be8:	10007855 	.word	0x10007855
10007bec:	20000fa4 	.word	0x20000fa4
10007bf0:	20000fa8 	.word	0x20000fa8

10007bf4 <__wrap_printf>:
10007bf4:	b40f      	push	{r0, r1, r2, r3}
10007bf6:	b500      	push	{lr}
10007bf8:	b083      	sub	sp, #12
10007bfa:	a904      	add	r1, sp, #16
10007bfc:	c901      	ldmia	r1!, {r0}
10007bfe:	9101      	str	r1, [sp, #4]
10007c00:	f7ff ff90 	bl	10007b24 <__wrap_vprintf>
10007c04:	b003      	add	sp, #12
10007c06:	bc08      	pop	{r3}
10007c08:	b004      	add	sp, #16
10007c0a:	4718      	bx	r3

10007c0c <stdio_init_all>:
10007c0c:	b510      	push	{r4, lr}
10007c0e:	f000 f8c5 	bl	10007d9c <stdio_usb_init>
10007c12:	bd10      	pop	{r4, pc}

10007c14 <stdio_usb_in_chars>:
10007c14:	b570      	push	{r4, r5, r6, lr}
10007c16:	4c18      	ldr	r4, [pc, #96]	; (10007c78 <stdio_usb_in_chars+0x64>)
10007c18:	b082      	sub	sp, #8
10007c1a:	0005      	movs	r5, r0
10007c1c:	000e      	movs	r6, r1
10007c1e:	0020      	movs	r0, r4
10007c20:	a901      	add	r1, sp, #4
10007c22:	f003 fbf5 	bl	1000b410 <__mutex_try_enter_veneer>
10007c26:	2800      	cmp	r0, #0
10007c28:	d108      	bne.n	10007c3c <stdio_usb_in_chars+0x28>
10007c2a:	23d0      	movs	r3, #208	; 0xd0
10007c2c:	061b      	lsls	r3, r3, #24
10007c2e:	681b      	ldr	r3, [r3, #0]
10007c30:	9a01      	ldr	r2, [sp, #4]
10007c32:	4293      	cmp	r3, r2
10007c34:	d01c      	beq.n	10007c70 <stdio_usb_in_chars+0x5c>
10007c36:	0020      	movs	r0, r4
10007c38:	f003 fbfa 	bl	1000b430 <__mutex_enter_blocking_veneer>
10007c3c:	2000      	movs	r0, #0
10007c3e:	f001 fc4d 	bl	100094dc <tud_cdc_n_connected>
10007c42:	2800      	cmp	r0, #0
10007c44:	d107      	bne.n	10007c56 <stdio_usb_in_chars+0x42>
10007c46:	2503      	movs	r5, #3
10007c48:	426d      	negs	r5, r5
10007c4a:	0020      	movs	r0, r4
10007c4c:	f003 fbc8 	bl	1000b3e0 <__mutex_exit_veneer>
10007c50:	0028      	movs	r0, r5
10007c52:	b002      	add	sp, #8
10007c54:	bd70      	pop	{r4, r5, r6, pc}
10007c56:	2000      	movs	r0, #0
10007c58:	f001 fc58 	bl	1000950c <tud_cdc_n_available>
10007c5c:	2800      	cmp	r0, #0
10007c5e:	d0f2      	beq.n	10007c46 <stdio_usb_in_chars+0x32>
10007c60:	0029      	movs	r1, r5
10007c62:	0032      	movs	r2, r6
10007c64:	2000      	movs	r0, #0
10007c66:	f001 fc5f 	bl	10009528 <tud_cdc_n_read>
10007c6a:	1e05      	subs	r5, r0, #0
10007c6c:	d0eb      	beq.n	10007c46 <stdio_usb_in_chars+0x32>
10007c6e:	e7ec      	b.n	10007c4a <stdio_usb_in_chars+0x36>
10007c70:	2503      	movs	r5, #3
10007c72:	426d      	negs	r5, r5
10007c74:	e7ec      	b.n	10007c50 <stdio_usb_in_chars+0x3c>
10007c76:	46c0      	nop			; (mov r8, r8)
10007c78:	20001648 	.word	0x20001648

10007c7c <timer_task>:
10007c7c:	b510      	push	{r4, lr}
10007c7e:	201f      	movs	r0, #31
10007c80:	f7fd f882 	bl	10004d88 <irq_set_pending>
10007c84:	20fa      	movs	r0, #250	; 0xfa
10007c86:	2100      	movs	r1, #0
10007c88:	0080      	lsls	r0, r0, #2
10007c8a:	bd10      	pop	{r4, pc}

10007c8c <low_priority_worker_irq>:
10007c8c:	b510      	push	{r4, lr}
10007c8e:	4c06      	ldr	r4, [pc, #24]	; (10007ca8 <low_priority_worker_irq+0x1c>)
10007c90:	2100      	movs	r1, #0
10007c92:	0020      	movs	r0, r4
10007c94:	f003 fbbc 	bl	1000b410 <__mutex_try_enter_veneer>
10007c98:	2800      	cmp	r0, #0
10007c9a:	d004      	beq.n	10007ca6 <low_priority_worker_irq+0x1a>
10007c9c:	f000 fd6e 	bl	1000877c <tud_task>
10007ca0:	0020      	movs	r0, r4
10007ca2:	f003 fb9d 	bl	1000b3e0 <__mutex_exit_veneer>
10007ca6:	bd10      	pop	{r4, pc}
10007ca8:	20001648 	.word	0x20001648

10007cac <stdio_usb_out_chars>:
10007cac:	b5f0      	push	{r4, r5, r6, r7, lr}
10007cae:	464f      	mov	r7, r9
10007cb0:	4646      	mov	r6, r8
10007cb2:	46d6      	mov	lr, sl
10007cb4:	b5c0      	push	{r6, r7, lr}
10007cb6:	4b36      	ldr	r3, [pc, #216]	; (10007d90 <stdio_usb_out_chars+0xe4>)
10007cb8:	b082      	sub	sp, #8
10007cba:	0007      	movs	r7, r0
10007cbc:	000e      	movs	r6, r1
10007cbe:	0018      	movs	r0, r3
10007cc0:	a901      	add	r1, sp, #4
10007cc2:	4699      	mov	r9, r3
10007cc4:	f003 fba4 	bl	1000b410 <__mutex_try_enter_veneer>
10007cc8:	2800      	cmp	r0, #0
10007cca:	d108      	bne.n	10007cde <stdio_usb_out_chars+0x32>
10007ccc:	23d0      	movs	r3, #208	; 0xd0
10007cce:	061b      	lsls	r3, r3, #24
10007cd0:	681b      	ldr	r3, [r3, #0]
10007cd2:	9a01      	ldr	r2, [sp, #4]
10007cd4:	4293      	cmp	r3, r2
10007cd6:	d041      	beq.n	10007d5c <stdio_usb_out_chars+0xb0>
10007cd8:	4648      	mov	r0, r9
10007cda:	f003 fba9 	bl	1000b430 <__mutex_enter_blocking_veneer>
10007cde:	2000      	movs	r0, #0
10007ce0:	f001 fbfc 	bl	100094dc <tud_cdc_n_connected>
10007ce4:	2800      	cmp	r0, #0
10007ce6:	d031      	beq.n	10007d4c <stdio_usb_out_chars+0xa0>
10007ce8:	2400      	movs	r4, #0
10007cea:	2e00      	cmp	r6, #0
10007cec:	dd33      	ble.n	10007d56 <stdio_usb_out_chars+0xaa>
10007cee:	4b29      	ldr	r3, [pc, #164]	; (10007d94 <stdio_usb_out_chars+0xe8>)
10007cf0:	469a      	mov	sl, r3
10007cf2:	4698      	mov	r8, r3
10007cf4:	e012      	b.n	10007d1c <stdio_usb_out_chars+0x70>
10007cf6:	2800      	cmp	r0, #0
10007cf8:	d147      	bne.n	10007d8a <stdio_usb_out_chars+0xde>
10007cfa:	f000 fd3f 	bl	1000877c <tud_task>
10007cfe:	2000      	movs	r0, #0
10007d00:	f001 fc9e 	bl	10009640 <tud_cdc_n_write_flush>
10007d04:	2000      	movs	r0, #0
10007d06:	f001 fbe9 	bl	100094dc <tud_cdc_n_connected>
10007d0a:	2800      	cmp	r0, #0
10007d0c:	d023      	beq.n	10007d56 <stdio_usb_out_chars+0xaa>
10007d0e:	2000      	movs	r0, #0
10007d10:	f001 fce0 	bl	100096d4 <tud_cdc_n_write_available>
10007d14:	2800      	cmp	r0, #0
10007d16:	d027      	beq.n	10007d68 <stdio_usb_out_chars+0xbc>
10007d18:	42a6      	cmp	r6, r4
10007d1a:	dd1c      	ble.n	10007d56 <stdio_usb_out_chars+0xaa>
10007d1c:	2000      	movs	r0, #0
10007d1e:	1b35      	subs	r5, r6, r4
10007d20:	f001 fcd8 	bl	100096d4 <tud_cdc_n_write_available>
10007d24:	4285      	cmp	r5, r0
10007d26:	dce6      	bgt.n	10007cf6 <stdio_usb_out_chars+0x4a>
10007d28:	1939      	adds	r1, r7, r4
10007d2a:	002a      	movs	r2, r5
10007d2c:	2000      	movs	r0, #0
10007d2e:	f001 fc33 	bl	10009598 <tud_cdc_n_write>
10007d32:	0005      	movs	r5, r0
10007d34:	f000 fd22 	bl	1000877c <tud_task>
10007d38:	2000      	movs	r0, #0
10007d3a:	f001 fc81 	bl	10009640 <tud_cdc_n_write_flush>
10007d3e:	f7fc f9cf 	bl	100040e0 <time_us_64>
10007d42:	4643      	mov	r3, r8
10007d44:	1964      	adds	r4, r4, r5
10007d46:	6018      	str	r0, [r3, #0]
10007d48:	6059      	str	r1, [r3, #4]
10007d4a:	e7e5      	b.n	10007d18 <stdio_usb_out_chars+0x6c>
10007d4c:	2000      	movs	r0, #0
10007d4e:	2100      	movs	r1, #0
10007d50:	4b10      	ldr	r3, [pc, #64]	; (10007d94 <stdio_usb_out_chars+0xe8>)
10007d52:	6018      	str	r0, [r3, #0]
10007d54:	6059      	str	r1, [r3, #4]
10007d56:	4648      	mov	r0, r9
10007d58:	f003 fb42 	bl	1000b3e0 <__mutex_exit_veneer>
10007d5c:	b002      	add	sp, #8
10007d5e:	bc1c      	pop	{r2, r3, r4}
10007d60:	4690      	mov	r8, r2
10007d62:	4699      	mov	r9, r3
10007d64:	46a2      	mov	sl, r4
10007d66:	bdf0      	pop	{r4, r5, r6, r7, pc}
10007d68:	f7fc f9ba 	bl	100040e0 <time_us_64>
10007d6c:	4653      	mov	r3, sl
10007d6e:	000d      	movs	r5, r1
10007d70:	681a      	ldr	r2, [r3, #0]
10007d72:	685b      	ldr	r3, [r3, #4]
10007d74:	2100      	movs	r1, #0
10007d76:	4684      	mov	ip, r0
10007d78:	4807      	ldr	r0, [pc, #28]	; (10007d98 <stdio_usb_out_chars+0xec>)
10007d7a:	1812      	adds	r2, r2, r0
10007d7c:	414b      	adcs	r3, r1
10007d7e:	429d      	cmp	r5, r3
10007d80:	d8e9      	bhi.n	10007d56 <stdio_usb_out_chars+0xaa>
10007d82:	d1c9      	bne.n	10007d18 <stdio_usb_out_chars+0x6c>
10007d84:	4594      	cmp	ip, r2
10007d86:	d9c7      	bls.n	10007d18 <stdio_usb_out_chars+0x6c>
10007d88:	e7e5      	b.n	10007d56 <stdio_usb_out_chars+0xaa>
10007d8a:	0005      	movs	r5, r0
10007d8c:	e7cc      	b.n	10007d28 <stdio_usb_out_chars+0x7c>
10007d8e:	46c0      	nop			; (mov r8, r8)
10007d90:	20001648 	.word	0x20001648
10007d94:	20000b58 	.word	0x20000b58
10007d98:	0007a120 	.word	0x0007a120

10007d9c <stdio_usb_init>:
10007d9c:	b510      	push	{r4, lr}
10007d9e:	4b1d      	ldr	r3, [pc, #116]	; (10007e14 <stdio_usb_init+0x78>)
10007da0:	b084      	sub	sp, #16
10007da2:	781b      	ldrb	r3, [r3, #0]
10007da4:	f001 fe6c 	bl	10009a80 <tusb_init>
10007da8:	491b      	ldr	r1, [pc, #108]	; (10007e18 <stdio_usb_init+0x7c>)
10007daa:	201f      	movs	r0, #31
10007dac:	f7fc fffc 	bl	10004da8 <irq_set_exclusive_handler>
10007db0:	2101      	movs	r1, #1
10007db2:	201f      	movs	r0, #31
10007db4:	f7fc ffd6 	bl	10004d64 <irq_set_enabled>
10007db8:	4818      	ldr	r0, [pc, #96]	; (10007e1c <stdio_usb_init+0x80>)
10007dba:	f7fc fa79 	bl	100042b0 <mutex_init>
10007dbe:	f7fb fe77 	bl	10003ab0 <alarm_pool_get_default>
10007dc2:	0004      	movs	r4, r0
10007dc4:	f7fc f98c 	bl	100040e0 <time_us_64>
10007dc8:	22fa      	movs	r2, #250	; 0xfa
10007dca:	2300      	movs	r3, #0
10007dcc:	0092      	lsls	r2, r2, #2
10007dce:	1812      	adds	r2, r2, r0
10007dd0:	414b      	adcs	r3, r1
10007dd2:	4299      	cmp	r1, r3
10007dd4:	d918      	bls.n	10007e08 <stdio_usb_init+0x6c>
10007dd6:	2201      	movs	r2, #1
10007dd8:	4252      	negs	r2, r2
10007dda:	17d3      	asrs	r3, r2, #31
10007ddc:	2101      	movs	r1, #1
10007dde:	9102      	str	r1, [sp, #8]
10007de0:	2100      	movs	r1, #0
10007de2:	9101      	str	r1, [sp, #4]
10007de4:	490e      	ldr	r1, [pc, #56]	; (10007e20 <stdio_usb_init+0x84>)
10007de6:	0020      	movs	r0, r4
10007de8:	9100      	str	r1, [sp, #0]
10007dea:	f7fb fe67 	bl	10003abc <alarm_pool_add_alarm_at>
10007dee:	0004      	movs	r4, r0
10007df0:	1e63      	subs	r3, r4, #1
10007df2:	419c      	sbcs	r4, r3
10007df4:	b2e4      	uxtb	r4, r4
10007df6:	2800      	cmp	r0, #0
10007df8:	d003      	beq.n	10007e02 <stdio_usb_init+0x66>
10007dfa:	2101      	movs	r1, #1
10007dfc:	4809      	ldr	r0, [pc, #36]	; (10007e24 <stdio_usb_init+0x88>)
10007dfe:	f7ff fe73 	bl	10007ae8 <stdio_set_driver_enabled>
10007e02:	0020      	movs	r0, r4
10007e04:	b004      	add	sp, #16
10007e06:	bd10      	pop	{r4, pc}
10007e08:	4299      	cmp	r1, r3
10007e0a:	d1e7      	bne.n	10007ddc <stdio_usb_init+0x40>
10007e0c:	4290      	cmp	r0, r2
10007e0e:	d8e2      	bhi.n	10007dd6 <stdio_usb_init+0x3a>
10007e10:	e7e4      	b.n	10007ddc <stdio_usb_init+0x40>
10007e12:	46c0      	nop			; (mov r8, r8)
10007e14:	1000bb54 	.word	0x1000bb54
10007e18:	10007c8d 	.word	0x10007c8d
10007e1c:	20001648 	.word	0x20001648
10007e20:	10007c7d 	.word	0x10007c7d
10007e24:	200002c0 	.word	0x200002c0

10007e28 <tud_descriptor_device_cb>:
10007e28:	4800      	ldr	r0, [pc, #0]	; (10007e2c <tud_descriptor_device_cb+0x4>)
10007e2a:	4770      	bx	lr
10007e2c:	1000b980 	.word	0x1000b980

10007e30 <tud_descriptor_configuration_cb>:
10007e30:	4800      	ldr	r0, [pc, #0]	; (10007e34 <tud_descriptor_configuration_cb+0x4>)
10007e32:	4770      	bx	lr
10007e34:	1000b934 	.word	0x1000b934

10007e38 <tud_descriptor_string_cb>:
10007e38:	b510      	push	{r4, lr}
10007e3a:	2800      	cmp	r0, #0
10007e3c:	d106      	bne.n	10007e4c <tud_descriptor_string_cb+0x14>
10007e3e:	4b12      	ldr	r3, [pc, #72]	; (10007e88 <tud_descriptor_string_cb+0x50>)
10007e40:	4812      	ldr	r0, [pc, #72]	; (10007e8c <tud_descriptor_string_cb+0x54>)
10007e42:	8043      	strh	r3, [r0, #2]
10007e44:	3b06      	subs	r3, #6
10007e46:	3bff      	subs	r3, #255	; 0xff
10007e48:	8003      	strh	r3, [r0, #0]
10007e4a:	bd10      	pop	{r4, pc}
10007e4c:	2804      	cmp	r0, #4
10007e4e:	d819      	bhi.n	10007e84 <tud_descriptor_string_cb+0x4c>
10007e50:	4b0f      	ldr	r3, [pc, #60]	; (10007e90 <tud_descriptor_string_cb+0x58>)
10007e52:	0080      	lsls	r0, r0, #2
10007e54:	58c4      	ldr	r4, [r0, r3]
10007e56:	2300      	movs	r3, #0
10007e58:	480c      	ldr	r0, [pc, #48]	; (10007e8c <tud_descriptor_string_cb+0x54>)
10007e5a:	1c82      	adds	r2, r0, #2
10007e5c:	5ce1      	ldrb	r1, [r4, r3]
10007e5e:	2900      	cmp	r1, #0
10007e60:	d007      	beq.n	10007e72 <tud_descriptor_string_cb+0x3a>
10007e62:	3301      	adds	r3, #1
10007e64:	8011      	strh	r1, [r2, #0]
10007e66:	3202      	adds	r2, #2
10007e68:	2b13      	cmp	r3, #19
10007e6a:	d1f7      	bne.n	10007e5c <tud_descriptor_string_cb+0x24>
10007e6c:	23ca      	movs	r3, #202	; 0xca
10007e6e:	009b      	lsls	r3, r3, #2
10007e70:	e7ea      	b.n	10007e48 <tud_descriptor_string_cb+0x10>
10007e72:	22ff      	movs	r2, #255	; 0xff
10007e74:	4013      	ands	r3, r2
10007e76:	3301      	adds	r3, #1
10007e78:	005a      	lsls	r2, r3, #1
10007e7a:	23c0      	movs	r3, #192	; 0xc0
10007e7c:	009b      	lsls	r3, r3, #2
10007e7e:	4313      	orrs	r3, r2
10007e80:	b29b      	uxth	r3, r3
10007e82:	e7e1      	b.n	10007e48 <tud_descriptor_string_cb+0x10>
10007e84:	2000      	movs	r0, #0
10007e86:	e7e0      	b.n	10007e4a <tud_descriptor_string_cb+0x12>
10007e88:	00000409 	.word	0x00000409
10007e8c:	20000f7c 	.word	0x20000f7c
10007e90:	1000b994 	.word	0x1000b994

10007e94 <dcd_rp2040_irq>:
10007e94:	b5f0      	push	{r4, r5, r6, r7, lr}
10007e96:	4645      	mov	r5, r8
10007e98:	46de      	mov	lr, fp
10007e9a:	4657      	mov	r7, sl
10007e9c:	464e      	mov	r6, r9
10007e9e:	2398      	movs	r3, #152	; 0x98
10007ea0:	2480      	movs	r4, #128	; 0x80
10007ea2:	b5e0      	push	{r5, r6, r7, lr}
10007ea4:	4a41      	ldr	r2, [pc, #260]	; (10007fac <dcd_rp2040_irq+0x118>)
10007ea6:	0264      	lsls	r4, r4, #9
10007ea8:	58d3      	ldr	r3, [r2, r3]
10007eaa:	b085      	sub	sp, #20
10007eac:	4698      	mov	r8, r3
10007eae:	4223      	tst	r3, r4
10007eb0:	d024      	beq.n	10007efc <dcd_rp2040_irq+0x68>
10007eb2:	2101      	movs	r1, #1
10007eb4:	2039      	movs	r0, #57	; 0x39
10007eb6:	2200      	movs	r2, #0
10007eb8:	4b3d      	ldr	r3, [pc, #244]	; (10007fb0 <dcd_rp2040_irq+0x11c>)
10007eba:	5419      	strb	r1, [r3, r0]
10007ebc:	7159      	strb	r1, [r3, #5]
10007ebe:	3147      	adds	r1, #71	; 0x47
10007ec0:	545a      	strb	r2, [r3, r1]
10007ec2:	751a      	strb	r2, [r3, #20]
10007ec4:	493b      	ldr	r1, [pc, #236]	; (10007fb4 <dcd_rp2040_irq+0x120>)
10007ec6:	3201      	adds	r2, #1
10007ec8:	2000      	movs	r0, #0
10007eca:	f001 f8eb 	bl	100090a4 <dcd_event_setup_received>
10007ece:	2280      	movs	r2, #128	; 0x80
10007ed0:	4b39      	ldr	r3, [pc, #228]	; (10007fb8 <dcd_rp2040_irq+0x124>)
10007ed2:	0292      	lsls	r2, r2, #10
10007ed4:	651a      	str	r2, [r3, #80]	; 0x50
10007ed6:	4b39      	ldr	r3, [pc, #228]	; (10007fbc <dcd_rp2040_irq+0x128>)
10007ed8:	9303      	str	r3, [sp, #12]
10007eda:	4643      	mov	r3, r8
10007edc:	06db      	lsls	r3, r3, #27
10007ede:	d413      	bmi.n	10007f08 <dcd_rp2040_irq+0x74>
10007ee0:	2380      	movs	r3, #128	; 0x80
10007ee2:	4642      	mov	r2, r8
10007ee4:	015b      	lsls	r3, r3, #5
10007ee6:	421a      	tst	r2, r3
10007ee8:	d13e      	bne.n	10007f68 <dcd_rp2040_irq+0xd4>
10007eea:	4544      	cmp	r4, r8
10007eec:	d158      	bne.n	10007fa0 <dcd_rp2040_irq+0x10c>
10007eee:	b005      	add	sp, #20
10007ef0:	bc3c      	pop	{r2, r3, r4, r5}
10007ef2:	4690      	mov	r8, r2
10007ef4:	4699      	mov	r9, r3
10007ef6:	46a2      	mov	sl, r4
10007ef8:	46ab      	mov	fp, r5
10007efa:	bdf0      	pop	{r4, r5, r6, r7, pc}
10007efc:	2310      	movs	r3, #16
10007efe:	9303      	str	r3, [sp, #12]
10007f00:	4643      	mov	r3, r8
10007f02:	2400      	movs	r4, #0
10007f04:	06db      	lsls	r3, r3, #27
10007f06:	d5eb      	bpl.n	10007ee0 <dcd_rp2040_irq+0x4c>
10007f08:	4b28      	ldr	r3, [pc, #160]	; (10007fac <dcd_rp2040_irq+0x118>)
10007f0a:	6d9f      	ldr	r7, [r3, #88]	; 0x58
10007f0c:	2f00      	cmp	r7, #0
10007f0e:	d025      	beq.n	10007f5c <dcd_rp2040_irq+0xc8>
10007f10:	469a      	mov	sl, r3
10007f12:	4b29      	ldr	r3, [pc, #164]	; (10007fb8 <dcd_rp2040_irq+0x124>)
10007f14:	2600      	movs	r6, #0
10007f16:	2501      	movs	r5, #1
10007f18:	469b      	mov	fp, r3
10007f1a:	e003      	b.n	10007f24 <dcd_rp2040_irq+0x90>
10007f1c:	006d      	lsls	r5, r5, #1
10007f1e:	3601      	adds	r6, #1
10007f20:	2e20      	cmp	r6, #32
10007f22:	d01b      	beq.n	10007f5c <dcd_rp2040_irq+0xc8>
10007f24:	423d      	tst	r5, r7
10007f26:	d0f9      	beq.n	10007f1c <dcd_rp2040_irq+0x88>
10007f28:	4653      	mov	r3, sl
10007f2a:	6ddb      	ldr	r3, [r3, #92]	; 0x5c
10007f2c:	465b      	mov	r3, fp
10007f2e:	2468      	movs	r4, #104	; 0x68
10007f30:	2201      	movs	r2, #1
10007f32:	659d      	str	r5, [r3, #88]	; 0x58
10007f34:	0873      	lsrs	r3, r6, #1
10007f36:	435c      	muls	r4, r3
10007f38:	2334      	movs	r3, #52	; 0x34
10007f3a:	4691      	mov	r9, r2
10007f3c:	43b2      	bics	r2, r6
10007f3e:	4353      	muls	r3, r2
10007f40:	18e4      	adds	r4, r4, r3
10007f42:	4b1b      	ldr	r3, [pc, #108]	; (10007fb0 <dcd_rp2040_irq+0x11c>)
10007f44:	469c      	mov	ip, r3
10007f46:	4464      	add	r4, ip
10007f48:	0020      	movs	r0, r4
10007f4a:	f000 fa3f 	bl	100083cc <_hw_endpoint_xfer_continue>
10007f4e:	2800      	cmp	r0, #0
10007f50:	d11a      	bne.n	10007f88 <dcd_rp2040_irq+0xf4>
10007f52:	43af      	bics	r7, r5
10007f54:	3601      	adds	r6, #1
10007f56:	006d      	lsls	r5, r5, #1
10007f58:	2f00      	cmp	r7, #0
10007f5a:	d1e1      	bne.n	10007f20 <dcd_rp2040_irq+0x8c>
10007f5c:	2380      	movs	r3, #128	; 0x80
10007f5e:	4642      	mov	r2, r8
10007f60:	015b      	lsls	r3, r3, #5
10007f62:	9c03      	ldr	r4, [sp, #12]
10007f64:	421a      	tst	r2, r3
10007f66:	d0c0      	beq.n	10007eea <dcd_rp2040_irq+0x56>
10007f68:	2200      	movs	r2, #0
10007f6a:	4915      	ldr	r1, [pc, #84]	; (10007fc0 <dcd_rp2040_irq+0x12c>)
10007f6c:	2000      	movs	r0, #0
10007f6e:	700a      	strb	r2, [r1, #0]
10007f70:	490e      	ldr	r1, [pc, #56]	; (10007fac <dcd_rp2040_irq+0x118>)
10007f72:	431c      	orrs	r4, r3
10007f74:	600a      	str	r2, [r1, #0]
10007f76:	3201      	adds	r2, #1
10007f78:	2101      	movs	r1, #1
10007f7a:	f001 f823 	bl	10008fc4 <dcd_event_bus_signal>
10007f7e:	2280      	movs	r2, #128	; 0x80
10007f80:	4b0d      	ldr	r3, [pc, #52]	; (10007fb8 <dcd_rp2040_irq+0x124>)
10007f82:	0312      	lsls	r2, r2, #12
10007f84:	651a      	str	r2, [r3, #80]	; 0x50
10007f86:	e7b0      	b.n	10007eea <dcd_rp2040_irq+0x56>
10007f88:	464b      	mov	r3, r9
10007f8a:	69e2      	ldr	r2, [r4, #28]
10007f8c:	7921      	ldrb	r1, [r4, #4]
10007f8e:	2000      	movs	r0, #0
10007f90:	9300      	str	r3, [sp, #0]
10007f92:	2300      	movs	r3, #0
10007f94:	f001 f8b4 	bl	10009100 <dcd_event_xfer_complete>
10007f98:	0020      	movs	r0, r4
10007f9a:	f000 f9e3 	bl	10008364 <hw_endpoint_reset_transfer>
10007f9e:	e7d8      	b.n	10007f52 <dcd_rp2040_irq+0xbe>
10007fa0:	4641      	mov	r1, r8
10007fa2:	4808      	ldr	r0, [pc, #32]	; (10007fc4 <dcd_rp2040_irq+0x130>)
10007fa4:	4061      	eors	r1, r4
10007fa6:	f7fc fcff 	bl	100049a8 <panic>
10007faa:	46c0      	nop			; (mov r8, r8)
10007fac:	50110000 	.word	0x50110000
10007fb0:	20000fb0 	.word	0x20000fb0
10007fb4:	50100000 	.word	0x50100000
10007fb8:	50113000 	.word	0x50113000
10007fbc:	00010010 	.word	0x00010010
10007fc0:	20001662 	.word	0x20001662
10007fc4:	1000b9d0 	.word	0x1000b9d0

10007fc8 <dcd_int_enable>:
10007fc8:	b510      	push	{r4, lr}
10007fca:	2101      	movs	r1, #1
10007fcc:	2005      	movs	r0, #5
10007fce:	f7fc fec9 	bl	10004d64 <irq_set_enabled>
10007fd2:	bd10      	pop	{r4, pc}

10007fd4 <dcd_set_address>:
10007fd4:	4b09      	ldr	r3, [pc, #36]	; (10007ffc <dcd_set_address+0x28>)
10007fd6:	b510      	push	{r4, lr}
10007fd8:	2201      	movs	r2, #1
10007fda:	7019      	strb	r1, [r3, #0]
10007fdc:	2139      	movs	r1, #57	; 0x39
10007fde:	2300      	movs	r3, #0
10007fe0:	4807      	ldr	r0, [pc, #28]	; (10008000 <dcd_set_address+0x2c>)
10007fe2:	5442      	strb	r2, [r0, r1]
10007fe4:	7142      	strb	r2, [r0, #5]
10007fe6:	3247      	adds	r2, #71	; 0x47
10007fe8:	5483      	strb	r3, [r0, r2]
10007fea:	7503      	strb	r3, [r0, #20]
10007fec:	2200      	movs	r2, #0
10007fee:	3034      	adds	r0, #52	; 0x34
10007ff0:	3301      	adds	r3, #1
10007ff2:	2100      	movs	r1, #0
10007ff4:	f000 fa7a 	bl	100084ec <_hw_endpoint_xfer>
10007ff8:	bd10      	pop	{r4, pc}
10007ffa:	46c0      	nop			; (mov r8, r8)
10007ffc:	20001662 	.word	0x20001662
10008000:	20000fb0 	.word	0x20000fb0

10008004 <dcd_connect>:
10008004:	2280      	movs	r2, #128	; 0x80
10008006:	4b02      	ldr	r3, [pc, #8]	; (10008010 <dcd_connect+0xc>)
10008008:	0252      	lsls	r2, r2, #9
1000800a:	64da      	str	r2, [r3, #76]	; 0x4c
1000800c:	4770      	bx	lr
1000800e:	46c0      	nop			; (mov r8, r8)
10008010:	50112000 	.word	0x50112000

10008014 <dcd_init>:
10008014:	b5f8      	push	{r3, r4, r5, r6, r7, lr}
10008016:	0005      	movs	r5, r0
10008018:	f000 f97c 	bl	10008314 <rp2040_usb_init>
1000801c:	491e      	ldr	r1, [pc, #120]	; (10008098 <dcd_init+0x84>)
1000801e:	2005      	movs	r0, #5
10008020:	f7fc fec2 	bl	10004da8 <irq_set_exclusive_handler>
10008024:	22d0      	movs	r2, #208	; 0xd0
10008026:	4c1d      	ldr	r4, [pc, #116]	; (1000809c <dcd_init+0x88>)
10008028:	00d2      	lsls	r2, r2, #3
1000802a:	2100      	movs	r1, #0
1000802c:	0020      	movs	r0, r4
1000802e:	f7ff fba7 	bl	10007780 <__wrap_memset>
10008032:	2300      	movs	r3, #0
10008034:	4a1a      	ldr	r2, [pc, #104]	; (100080a0 <dcd_init+0x8c>)
10008036:	491b      	ldr	r1, [pc, #108]	; (100080a4 <dcd_init+0x90>)
10008038:	7013      	strb	r3, [r2, #0]
1000803a:	4a1b      	ldr	r2, [pc, #108]	; (100080a8 <dcd_init+0x94>)
1000803c:	2040      	movs	r0, #64	; 0x40
1000803e:	6011      	str	r1, [r2, #0]
10008040:	2780      	movs	r7, #128	; 0x80
10008042:	2201      	movs	r2, #1
10008044:	2638      	movs	r6, #56	; 0x38
10008046:	4919      	ldr	r1, [pc, #100]	; (100080ac <dcd_init+0x98>)
10008048:	70e2      	strb	r2, [r4, #3]
1000804a:	7162      	strb	r2, [r4, #5]
1000804c:	62e0      	str	r0, [r4, #44]	; 0x2c
1000804e:	60e1      	str	r1, [r4, #12]
10008050:	600b      	str	r3, [r1, #0]
10008052:	55a7      	strb	r7, [r4, r6]
10008054:	3e03      	subs	r6, #3
10008056:	55a2      	strb	r2, [r4, r6]
10008058:	6620      	str	r0, [r4, #96]	; 0x60
1000805a:	3602      	adds	r6, #2
1000805c:	3024      	adds	r0, #36	; 0x24
1000805e:	55a3      	strb	r3, [r4, r6]
10008060:	5423      	strb	r3, [r4, r0]
10008062:	4913      	ldr	r1, [pc, #76]	; (100080b0 <dcd_init+0x9c>)
10008064:	4813      	ldr	r0, [pc, #76]	; (100080b4 <dcd_init+0xa0>)
10008066:	3e01      	subs	r6, #1
10008068:	55a3      	strb	r3, [r4, r6]
1000806a:	3603      	adds	r6, #3
1000806c:	55a2      	strb	r2, [r4, r6]
1000806e:	60a3      	str	r3, [r4, #8]
10008070:	6121      	str	r1, [r4, #16]
10008072:	7022      	strb	r2, [r4, #0]
10008074:	6420      	str	r0, [r4, #64]	; 0x40
10008076:	6003      	str	r3, [r0, #0]
10008078:	63e3      	str	r3, [r4, #60]	; 0x3c
1000807a:	3334      	adds	r3, #52	; 0x34
1000807c:	54e2      	strb	r2, [r4, r3]
1000807e:	4b0e      	ldr	r3, [pc, #56]	; (100080b8 <dcd_init+0xa4>)
10008080:	6461      	str	r1, [r4, #68]	; 0x44
10008082:	641a      	str	r2, [r3, #64]	; 0x40
10008084:	2280      	movs	r2, #128	; 0x80
10008086:	0592      	lsls	r2, r2, #22
10008088:	64da      	str	r2, [r3, #76]	; 0x4c
1000808a:	2290      	movs	r2, #144	; 0x90
1000808c:	490b      	ldr	r1, [pc, #44]	; (100080bc <dcd_init+0xa8>)
1000808e:	0028      	movs	r0, r5
10008090:	5099      	str	r1, [r3, r2]
10008092:	f7ff ffb7 	bl	10008004 <dcd_connect>
10008096:	bdf8      	pop	{r3, r4, r5, r6, r7, pc}
10008098:	10007e95 	.word	0x10007e95
1000809c:	20000fb0 	.word	0x20000fb0
100080a0:	20001662 	.word	0x20001662
100080a4:	50100180 	.word	0x50100180
100080a8:	20001634 	.word	0x20001634
100080ac:	50100084 	.word	0x50100084
100080b0:	50100100 	.word	0x50100100
100080b4:	50100080 	.word	0x50100080
100080b8:	50110000 	.word	0x50110000
100080bc:	00011010 	.word	0x00011010

100080c0 <dcd_edpt0_status_complete>:
100080c0:	780b      	ldrb	r3, [r1, #0]
100080c2:	065b      	lsls	r3, r3, #25
100080c4:	d102      	bne.n	100080cc <dcd_edpt0_status_complete+0xc>
100080c6:	784b      	ldrb	r3, [r1, #1]
100080c8:	2b05      	cmp	r3, #5
100080ca:	d009      	beq.n	100080e0 <dcd_edpt0_status_complete+0x20>
100080cc:	2101      	movs	r1, #1
100080ce:	2039      	movs	r0, #57	; 0x39
100080d0:	2200      	movs	r2, #0
100080d2:	4b06      	ldr	r3, [pc, #24]	; (100080ec <dcd_edpt0_status_complete+0x2c>)
100080d4:	7159      	strb	r1, [r3, #5]
100080d6:	5419      	strb	r1, [r3, r0]
100080d8:	3147      	adds	r1, #71	; 0x47
100080da:	751a      	strb	r2, [r3, #20]
100080dc:	545a      	strb	r2, [r3, r1]
100080de:	4770      	bx	lr
100080e0:	4b03      	ldr	r3, [pc, #12]	; (100080f0 <dcd_edpt0_status_complete+0x30>)
100080e2:	781a      	ldrb	r2, [r3, #0]
100080e4:	4b03      	ldr	r3, [pc, #12]	; (100080f4 <dcd_edpt0_status_complete+0x34>)
100080e6:	601a      	str	r2, [r3, #0]
100080e8:	e7f0      	b.n	100080cc <dcd_edpt0_status_complete+0xc>
100080ea:	46c0      	nop			; (mov r8, r8)
100080ec:	20000fb0 	.word	0x20000fb0
100080f0:	20001662 	.word	0x20001662
100080f4:	50110000 	.word	0x50110000

100080f8 <dcd_edpt_open>:
100080f8:	b5f0      	push	{r4, r5, r6, r7, lr}
100080fa:	4647      	mov	r7, r8
100080fc:	46ce      	mov	lr, r9
100080fe:	b580      	push	{r7, lr}
10008100:	788b      	ldrb	r3, [r1, #2]
10008102:	790a      	ldrb	r2, [r1, #4]
10008104:	469c      	mov	ip, r3
10008106:	2307      	movs	r3, #7
10008108:	7948      	ldrb	r0, [r1, #5]
1000810a:	78c9      	ldrb	r1, [r1, #3]
1000810c:	4003      	ands	r3, r0
1000810e:	0789      	lsls	r1, r1, #30
10008110:	021b      	lsls	r3, r3, #8
10008112:	0f89      	lsrs	r1, r1, #30
10008114:	4313      	orrs	r3, r2
10008116:	b2ca      	uxtb	r2, r1
10008118:	4691      	mov	r9, r2
1000811a:	207f      	movs	r0, #127	; 0x7f
1000811c:	4662      	mov	r2, ip
1000811e:	b083      	sub	sp, #12
10008120:	4010      	ands	r0, r2
10008122:	466c      	mov	r4, sp
10008124:	4662      	mov	r2, ip
10008126:	2768      	movs	r7, #104	; 0x68
10008128:	2607      	movs	r6, #7
1000812a:	71e2      	strb	r2, [r4, #7]
1000812c:	4347      	muls	r7, r0
1000812e:	2234      	movs	r2, #52	; 0x34
10008130:	46b8      	mov	r8, r7
10008132:	4667      	mov	r7, ip
10008134:	57a6      	ldrsb	r6, [r4, r6]
10008136:	4d3b      	ldr	r5, [pc, #236]	; (10008224 <dcd_edpt_open+0x12c>)
10008138:	0ff4      	lsrs	r4, r6, #31
1000813a:	4362      	muls	r2, r4
1000813c:	4442      	add	r2, r8
1000813e:	18aa      	adds	r2, r5, r2
10008140:	7117      	strb	r7, [r2, #4]
10008142:	43f7      	mvns	r7, r6
10008144:	0fff      	lsrs	r7, r7, #31
10008146:	70d7      	strb	r7, [r2, #3]
10008148:	4247      	negs	r7, r0
1000814a:	4147      	adcs	r7, r0
1000814c:	7054      	strb	r4, [r2, #1]
1000814e:	7090      	strb	r0, [r2, #2]
10008150:	7157      	strb	r7, [r2, #5]
10008152:	464a      	mov	r2, r9
10008154:	2a01      	cmp	r2, #1
10008156:	d059      	beq.n	1000820c <dcd_edpt_open+0x114>
10008158:	2b40      	cmp	r3, #64	; 0x40
1000815a:	d85a      	bhi.n	10008212 <dcd_edpt_open+0x11a>
1000815c:	2768      	movs	r7, #104	; 0x68
1000815e:	2234      	movs	r2, #52	; 0x34
10008160:	4347      	muls	r7, r0
10008162:	46bc      	mov	ip, r7
10008164:	4362      	muls	r2, r4
10008166:	4462      	add	r2, ip
10008168:	18aa      	adds	r2, r5, r2
1000816a:	62d3      	str	r3, [r2, #44]	; 0x2c
1000816c:	3230      	adds	r2, #48	; 0x30
1000816e:	7011      	strb	r1, [r2, #0]
10008170:	2e00      	cmp	r6, #0
10008172:	db39      	blt.n	100081e8 <dcd_edpt_open+0xf0>
10008174:	4a2c      	ldr	r2, [pc, #176]	; (10008228 <dcd_edpt_open+0x130>)
10008176:	00c1      	lsls	r1, r0, #3
10008178:	4690      	mov	r8, r2
1000817a:	19ea      	adds	r2, r5, r7
1000817c:	4441      	add	r1, r8
1000817e:	60d1      	str	r1, [r2, #12]
10008180:	2200      	movs	r2, #0
10008182:	600a      	str	r2, [r1, #0]
10008184:	2800      	cmp	r0, #0
10008186:	d039      	beq.n	100081fc <dcd_edpt_open+0x104>
10008188:	4a28      	ldr	r2, [pc, #160]	; (1000822c <dcd_edpt_open+0x134>)
1000818a:	00c1      	lsls	r1, r0, #3
1000818c:	4694      	mov	ip, r2
1000818e:	4461      	add	r1, ip
10008190:	2234      	movs	r2, #52	; 0x34
10008192:	2668      	movs	r6, #104	; 0x68
10008194:	4362      	muls	r2, r4
10008196:	4346      	muls	r6, r0
10008198:	1992      	adds	r2, r2, r6
1000819a:	4e25      	ldr	r6, [pc, #148]	; (10008230 <dcd_edpt_open+0x138>)
1000819c:	18aa      	adds	r2, r5, r2
1000819e:	46b4      	mov	ip, r6
100081a0:	6836      	ldr	r6, [r6, #0]
100081a2:	6091      	str	r1, [r2, #8]
100081a4:	6116      	str	r6, [r2, #16]
100081a6:	2b40      	cmp	r3, #64	; 0x40
100081a8:	d200      	bcs.n	100081ac <dcd_edpt_open+0xb4>
100081aa:	2340      	movs	r3, #64	; 0x40
100081ac:	223f      	movs	r2, #63	; 0x3f
100081ae:	18f3      	adds	r3, r6, r3
100081b0:	4213      	tst	r3, r2
100081b2:	d001      	beq.n	100081b8 <dcd_edpt_open+0xc0>
100081b4:	4393      	bics	r3, r2
100081b6:	3340      	adds	r3, #64	; 0x40
100081b8:	4662      	mov	r2, ip
100081ba:	6013      	str	r3, [r2, #0]
100081bc:	4b1d      	ldr	r3, [pc, #116]	; (10008234 <dcd_edpt_open+0x13c>)
100081be:	464a      	mov	r2, r9
100081c0:	405e      	eors	r6, r3
100081c2:	23a0      	movs	r3, #160	; 0xa0
100081c4:	061b      	lsls	r3, r3, #24
100081c6:	4333      	orrs	r3, r6
100081c8:	0697      	lsls	r7, r2, #26
100081ca:	431f      	orrs	r7, r3
100081cc:	600f      	str	r7, [r1, #0]
100081ce:	2334      	movs	r3, #52	; 0x34
100081d0:	435c      	muls	r4, r3
100081d2:	3334      	adds	r3, #52	; 0x34
100081d4:	4358      	muls	r0, r3
100081d6:	3b67      	subs	r3, #103	; 0x67
100081d8:	1820      	adds	r0, r4, r0
100081da:	542b      	strb	r3, [r5, r0]
100081dc:	2001      	movs	r0, #1
100081de:	b003      	add	sp, #12
100081e0:	bc0c      	pop	{r2, r3}
100081e2:	4690      	mov	r8, r2
100081e4:	4699      	mov	r9, r3
100081e6:	bdf0      	pop	{r4, r5, r6, r7, pc}
100081e8:	4913      	ldr	r1, [pc, #76]	; (10008238 <dcd_edpt_open+0x140>)
100081ea:	00c2      	lsls	r2, r0, #3
100081ec:	4688      	mov	r8, r1
100081ee:	19e9      	adds	r1, r5, r7
100081f0:	4442      	add	r2, r8
100081f2:	640a      	str	r2, [r1, #64]	; 0x40
100081f4:	2100      	movs	r1, #0
100081f6:	6011      	str	r1, [r2, #0]
100081f8:	2800      	cmp	r0, #0
100081fa:	d10e      	bne.n	1000821a <dcd_edpt_open+0x122>
100081fc:	2334      	movs	r3, #52	; 0x34
100081fe:	2200      	movs	r2, #0
10008200:	4363      	muls	r3, r4
10008202:	18eb      	adds	r3, r5, r3
10008204:	609a      	str	r2, [r3, #8]
10008206:	4a0d      	ldr	r2, [pc, #52]	; (1000823c <dcd_edpt_open+0x144>)
10008208:	611a      	str	r2, [r3, #16]
1000820a:	e7e0      	b.n	100081ce <dcd_edpt_open+0xd6>
1000820c:	4a0c      	ldr	r2, [pc, #48]	; (10008240 <dcd_edpt_open+0x148>)
1000820e:	4293      	cmp	r3, r2
10008210:	d9a4      	bls.n	1000815c <dcd_edpt_open+0x64>
10008212:	0019      	movs	r1, r3
10008214:	480b      	ldr	r0, [pc, #44]	; (10008244 <dcd_edpt_open+0x14c>)
10008216:	f7fc fbc7 	bl	100049a8 <panic>
1000821a:	4a06      	ldr	r2, [pc, #24]	; (10008234 <dcd_edpt_open+0x13c>)
1000821c:	00c1      	lsls	r1, r0, #3
1000821e:	4694      	mov	ip, r2
10008220:	4461      	add	r1, ip
10008222:	e7b5      	b.n	10008190 <dcd_edpt_open+0x98>
10008224:	20000fb0 	.word	0x20000fb0
10008228:	50100084 	.word	0x50100084
1000822c:	50100004 	.word	0x50100004
10008230:	20001634 	.word	0x20001634
10008234:	50100000 	.word	0x50100000
10008238:	50100080 	.word	0x50100080
1000823c:	50100100 	.word	0x50100100
10008240:	000003ff 	.word	0x000003ff
10008244:	1000b9a8 	.word	0x1000b9a8

10008248 <dcd_edpt_xfer>:
10008248:	b510      	push	{r4, lr}
1000824a:	000c      	movs	r4, r1
1000824c:	2034      	movs	r0, #52	; 0x34
1000824e:	0011      	movs	r1, r2
10008250:	001a      	movs	r2, r3
10008252:	09e3      	lsrs	r3, r4, #7
10008254:	4358      	muls	r0, r3
10008256:	237f      	movs	r3, #127	; 0x7f
10008258:	401c      	ands	r4, r3
1000825a:	3b17      	subs	r3, #23
1000825c:	4363      	muls	r3, r4
1000825e:	18c0      	adds	r0, r0, r3
10008260:	4b03      	ldr	r3, [pc, #12]	; (10008270 <dcd_edpt_xfer+0x28>)
10008262:	1818      	adds	r0, r3, r0
10008264:	2301      	movs	r3, #1
10008266:	f000 f941 	bl	100084ec <_hw_endpoint_xfer>
1000826a:	2001      	movs	r0, #1
1000826c:	bd10      	pop	{r4, pc}
1000826e:	46c0      	nop			; (mov r8, r8)
10008270:	20000fb0 	.word	0x20000fb0

10008274 <dcd_edpt_stall>:
10008274:	b570      	push	{r4, r5, r6, lr}
10008276:	257f      	movs	r5, #127	; 0x7f
10008278:	2034      	movs	r0, #52	; 0x34
1000827a:	2368      	movs	r3, #104	; 0x68
1000827c:	400d      	ands	r5, r1
1000827e:	09ce      	lsrs	r6, r1, #7
10008280:	436b      	muls	r3, r5
10008282:	4370      	muls	r0, r6
10008284:	4c0c      	ldr	r4, [pc, #48]	; (100082b8 <dcd_edpt_stall+0x44>)
10008286:	18c0      	adds	r0, r0, r3
10008288:	1820      	adds	r0, r4, r0
1000828a:	7883      	ldrb	r3, [r0, #2]
1000828c:	2b00      	cmp	r3, #0
1000828e:	d105      	bne.n	1000829c <dcd_edpt_stall+0x28>
10008290:	7843      	ldrb	r3, [r0, #1]
10008292:	425a      	negs	r2, r3
10008294:	4153      	adcs	r3, r2
10008296:	4a09      	ldr	r2, [pc, #36]	; (100082bc <dcd_edpt_stall+0x48>)
10008298:	3301      	adds	r3, #1
1000829a:	6693      	str	r3, [r2, #104]	; 0x68
1000829c:	2280      	movs	r2, #128	; 0x80
1000829e:	4908      	ldr	r1, [pc, #32]	; (100082c0 <dcd_edpt_stall+0x4c>)
100082a0:	0112      	lsls	r2, r2, #4
100082a2:	f000 f869 	bl	10008378 <_hw_endpoint_buffer_control_update32>
100082a6:	2368      	movs	r3, #104	; 0x68
100082a8:	2134      	movs	r1, #52	; 0x34
100082aa:	435d      	muls	r5, r3
100082ac:	4371      	muls	r1, r6
100082ae:	1949      	adds	r1, r1, r5
100082b0:	1861      	adds	r1, r4, r1
100082b2:	3b67      	subs	r3, #103	; 0x67
100082b4:	750b      	strb	r3, [r1, #20]
100082b6:	bd70      	pop	{r4, r5, r6, pc}
100082b8:	20000fb0 	.word	0x20000fb0
100082bc:	50112000 	.word	0x50112000
100082c0:	fffff7ff 	.word	0xfffff7ff

100082c4 <dcd_edpt_clear_stall>:
100082c4:	b570      	push	{r4, r5, r6, lr}
100082c6:	257f      	movs	r5, #127	; 0x7f
100082c8:	2034      	movs	r0, #52	; 0x34
100082ca:	2368      	movs	r3, #104	; 0x68
100082cc:	400d      	ands	r5, r1
100082ce:	09ce      	lsrs	r6, r1, #7
100082d0:	436b      	muls	r3, r5
100082d2:	4370      	muls	r0, r6
100082d4:	4c0c      	ldr	r4, [pc, #48]	; (10008308 <dcd_edpt_clear_stall+0x44>)
100082d6:	18c0      	adds	r0, r0, r3
100082d8:	1820      	adds	r0, r4, r0
100082da:	7883      	ldrb	r3, [r0, #2]
100082dc:	2b00      	cmp	r3, #0
100082de:	d105      	bne.n	100082ec <dcd_edpt_clear_stall+0x28>
100082e0:	7843      	ldrb	r3, [r0, #1]
100082e2:	425a      	negs	r2, r3
100082e4:	4153      	adcs	r3, r2
100082e6:	4a09      	ldr	r2, [pc, #36]	; (1000830c <dcd_edpt_clear_stall+0x48>)
100082e8:	3301      	adds	r3, #1
100082ea:	6693      	str	r3, [r2, #104]	; 0x68
100082ec:	2200      	movs	r2, #0
100082ee:	4908      	ldr	r1, [pc, #32]	; (10008310 <dcd_edpt_clear_stall+0x4c>)
100082f0:	f000 f842 	bl	10008378 <_hw_endpoint_buffer_control_update32>
100082f4:	2368      	movs	r3, #104	; 0x68
100082f6:	2134      	movs	r1, #52	; 0x34
100082f8:	435d      	muls	r5, r3
100082fa:	2300      	movs	r3, #0
100082fc:	4371      	muls	r1, r6
100082fe:	1949      	adds	r1, r1, r5
10008300:	1861      	adds	r1, r4, r1
10008302:	750b      	strb	r3, [r1, #20]
10008304:	bd70      	pop	{r4, r5, r6, pc}
10008306:	46c0      	nop			; (mov r8, r8)
10008308:	20000fb0 	.word	0x20000fb0
1000830c:	50113000 	.word	0x50113000
10008310:	fffff7ff 	.word	0xfffff7ff

10008314 <rp2040_usb_init>:
10008314:	2280      	movs	r2, #128	; 0x80
10008316:	4b0e      	ldr	r3, [pc, #56]	; (10008350 <rp2040_usb_init+0x3c>)
10008318:	0452      	lsls	r2, r2, #17
1000831a:	b510      	push	{r4, lr}
1000831c:	601a      	str	r2, [r3, #0]
1000831e:	4b0d      	ldr	r3, [pc, #52]	; (10008354 <rp2040_usb_init+0x40>)
10008320:	490d      	ldr	r1, [pc, #52]	; (10008358 <rp2040_usb_init+0x44>)
10008322:	601a      	str	r2, [r3, #0]
10008324:	0010      	movs	r0, r2
10008326:	688b      	ldr	r3, [r1, #8]
10008328:	4398      	bics	r0, r3
1000832a:	d1fb      	bne.n	10008324 <rp2040_usb_init+0x10>
1000832c:	4c0b      	ldr	r4, [pc, #44]	; (1000835c <rp2040_usb_init+0x48>)
1000832e:	229c      	movs	r2, #156	; 0x9c
10008330:	2100      	movs	r1, #0
10008332:	0020      	movs	r0, r4
10008334:	f7ff fa24 	bl	10007780 <__wrap_memset>
10008338:	2280      	movs	r2, #128	; 0x80
1000833a:	2100      	movs	r1, #0
1000833c:	0152      	lsls	r2, r2, #5
1000833e:	4808      	ldr	r0, [pc, #32]	; (10008360 <rp2040_usb_init+0x4c>)
10008340:	f7ff fa1e 	bl	10007780 <__wrap_memset>
10008344:	2309      	movs	r3, #9
10008346:	6763      	str	r3, [r4, #116]	; 0x74
10008348:	3303      	adds	r3, #3
1000834a:	67a3      	str	r3, [r4, #120]	; 0x78
1000834c:	bd10      	pop	{r4, pc}
1000834e:	46c0      	nop			; (mov r8, r8)
10008350:	4000e000 	.word	0x4000e000
10008354:	4000f000 	.word	0x4000f000
10008358:	4000c000 	.word	0x4000c000
1000835c:	50110000 	.word	0x50110000
10008360:	50100000 	.word	0x50100000

10008364 <hw_endpoint_reset_transfer>:
10008364:	2300      	movs	r3, #0
10008366:	2232      	movs	r2, #50	; 0x32
10008368:	7503      	strb	r3, [r0, #20]
1000836a:	7543      	strb	r3, [r0, #21]
1000836c:	5483      	strb	r3, [r0, r2]
1000836e:	6183      	str	r3, [r0, #24]
10008370:	61c3      	str	r3, [r0, #28]
10008372:	6203      	str	r3, [r0, #32]
10008374:	6283      	str	r3, [r0, #40]	; 0x28
10008376:	4770      	bx	lr

10008378 <_hw_endpoint_buffer_control_update32>:
10008378:	b510      	push	{r4, lr}
1000837a:	68c3      	ldr	r3, [r0, #12]
1000837c:	2900      	cmp	r1, #0
1000837e:	d001      	beq.n	10008384 <_hw_endpoint_buffer_control_update32+0xc>
10008380:	681c      	ldr	r4, [r3, #0]
10008382:	4021      	ands	r1, r4
10008384:	2a00      	cmp	r2, #0
10008386:	d011      	beq.n	100083ac <_hw_endpoint_buffer_control_update32+0x34>
10008388:	2480      	movs	r4, #128	; 0x80
1000838a:	00e4      	lsls	r4, r4, #3
1000838c:	4311      	orrs	r1, r2
1000838e:	4222      	tst	r2, r4
10008390:	d00c      	beq.n	100083ac <_hw_endpoint_buffer_control_update32+0x34>
10008392:	681a      	ldr	r2, [r3, #0]
10008394:	4222      	tst	r2, r4
10008396:	d10b      	bne.n	100083b0 <_hw_endpoint_buffer_control_update32+0x38>
10008398:	4a09      	ldr	r2, [pc, #36]	; (100083c0 <_hw_endpoint_buffer_control_update32+0x48>)
1000839a:	400a      	ands	r2, r1
1000839c:	601a      	str	r2, [r3, #0]
1000839e:	e7ff      	b.n	100083a0 <_hw_endpoint_buffer_control_update32+0x28>
100083a0:	e7ff      	b.n	100083a2 <_hw_endpoint_buffer_control_update32+0x2a>
100083a2:	e7ff      	b.n	100083a4 <_hw_endpoint_buffer_control_update32+0x2c>
100083a4:	e7ff      	b.n	100083a6 <_hw_endpoint_buffer_control_update32+0x2e>
100083a6:	e7ff      	b.n	100083a8 <_hw_endpoint_buffer_control_update32+0x30>
100083a8:	e7ff      	b.n	100083aa <_hw_endpoint_buffer_control_update32+0x32>
100083aa:	68c3      	ldr	r3, [r0, #12]
100083ac:	6019      	str	r1, [r3, #0]
100083ae:	bd10      	pop	{r4, pc}
100083b0:	7843      	ldrb	r3, [r0, #1]
100083b2:	4a04      	ldr	r2, [pc, #16]	; (100083c4 <_hw_endpoint_buffer_control_update32+0x4c>)
100083b4:	009b      	lsls	r3, r3, #2
100083b6:	7881      	ldrb	r1, [r0, #2]
100083b8:	589a      	ldr	r2, [r3, r2]
100083ba:	4803      	ldr	r0, [pc, #12]	; (100083c8 <_hw_endpoint_buffer_control_update32+0x50>)
100083bc:	f7fc faf4 	bl	100049a8 <panic>
100083c0:	fffffbff 	.word	0xfffffbff
100083c4:	200002d4 	.word	0x200002d4
100083c8:	1000b9e4 	.word	0x1000b9e4

100083cc <_hw_endpoint_xfer_continue>:
100083cc:	b5f0      	push	{r4, r5, r6, r7, lr}
100083ce:	46c6      	mov	lr, r8
100083d0:	b500      	push	{lr}
100083d2:	7d43      	ldrb	r3, [r0, #21]
100083d4:	b082      	sub	sp, #8
100083d6:	0004      	movs	r4, r0
100083d8:	4698      	mov	r8, r3
100083da:	2b00      	cmp	r3, #0
100083dc:	d100      	bne.n	100083e0 <_hw_endpoint_xfer_continue+0x14>
100083de:	e06e      	b.n	100084be <_hw_endpoint_xfer_continue+0xf2>
100083e0:	68c3      	ldr	r3, [r0, #12]
100083e2:	78c0      	ldrb	r0, [r0, #3]
100083e4:	681d      	ldr	r5, [r3, #0]
100083e6:	05ad      	lsls	r5, r5, #22
100083e8:	0dad      	lsrs	r5, r5, #22
100083ea:	2800      	cmp	r0, #0
100083ec:	d13d      	bne.n	1000846a <_hw_endpoint_xfer_continue+0x9e>
100083ee:	69e3      	ldr	r3, [r4, #28]
100083f0:	18e9      	adds	r1, r5, r3
100083f2:	61e1      	str	r1, [r4, #28]
100083f4:	69a2      	ldr	r2, [r4, #24]
100083f6:	1a55      	subs	r5, r2, r1
100083f8:	2d40      	cmp	r5, #64	; 0x40
100083fa:	d834      	bhi.n	10008466 <_hw_endpoint_xfer_continue+0x9a>
100083fc:	186b      	adds	r3, r5, r1
100083fe:	1a9b      	subs	r3, r3, r2
10008400:	425e      	negs	r6, r3
10008402:	415e      	adcs	r6, r3
10008404:	1c33      	adds	r3, r6, #0
10008406:	466e      	mov	r6, sp
10008408:	2724      	movs	r7, #36	; 0x24
1000840a:	71f3      	strb	r3, [r6, #7]
1000840c:	79f3      	ldrb	r3, [r6, #7]
1000840e:	6225      	str	r5, [r4, #32]
10008410:	55e3      	strb	r3, [r4, r7]
10008412:	428a      	cmp	r2, r1
10008414:	d350      	bcc.n	100084b8 <_hw_endpoint_xfer_continue+0xec>
10008416:	d04d      	beq.n	100084b4 <_hw_endpoint_xfer_continue+0xe8>
10008418:	2800      	cmp	r0, #0
1000841a:	d03f      	beq.n	1000849c <_hw_endpoint_xfer_continue+0xd0>
1000841c:	2280      	movs	r2, #128	; 0x80
1000841e:	00d2      	lsls	r2, r2, #3
10008420:	4315      	orrs	r5, r2
10008422:	7962      	ldrb	r2, [r4, #5]
10008424:	0011      	movs	r1, r2
10008426:	1e48      	subs	r0, r1, #1
10008428:	4181      	sbcs	r1, r0
1000842a:	0349      	lsls	r1, r1, #13
1000842c:	430d      	orrs	r5, r1
1000842e:	2101      	movs	r1, #1
10008430:	404a      	eors	r2, r1
10008432:	7162      	strb	r2, [r4, #5]
10008434:	2b00      	cmp	r3, #0
10008436:	d002      	beq.n	1000843e <_hw_endpoint_xfer_continue+0x72>
10008438:	2380      	movs	r3, #128	; 0x80
1000843a:	01db      	lsls	r3, r3, #7
1000843c:	431d      	orrs	r5, r3
1000843e:	68e2      	ldr	r2, [r4, #12]
10008440:	6813      	ldr	r3, [r2, #0]
10008442:	055b      	lsls	r3, r3, #21
10008444:	d440      	bmi.n	100084c8 <_hw_endpoint_xfer_continue+0xfc>
10008446:	4b24      	ldr	r3, [pc, #144]	; (100084d8 <_hw_endpoint_xfer_continue+0x10c>)
10008448:	402b      	ands	r3, r5
1000844a:	6013      	str	r3, [r2, #0]
1000844c:	e7ff      	b.n	1000844e <_hw_endpoint_xfer_continue+0x82>
1000844e:	e7ff      	b.n	10008450 <_hw_endpoint_xfer_continue+0x84>
10008450:	e7ff      	b.n	10008452 <_hw_endpoint_xfer_continue+0x86>
10008452:	e7ff      	b.n	10008454 <_hw_endpoint_xfer_continue+0x88>
10008454:	e7ff      	b.n	10008456 <_hw_endpoint_xfer_continue+0x8a>
10008456:	e7ff      	b.n	10008458 <_hw_endpoint_xfer_continue+0x8c>
10008458:	2000      	movs	r0, #0
1000845a:	68e3      	ldr	r3, [r4, #12]
1000845c:	601d      	str	r5, [r3, #0]
1000845e:	b002      	add	sp, #8
10008460:	bc04      	pop	{r2}
10008462:	4690      	mov	r8, r2
10008464:	bdf0      	pop	{r4, r5, r6, r7, pc}
10008466:	2540      	movs	r5, #64	; 0x40
10008468:	e7c8      	b.n	100083fc <_hw_endpoint_xfer_continue+0x30>
1000846a:	69e2      	ldr	r2, [r4, #28]
1000846c:	6aa3      	ldr	r3, [r4, #40]	; 0x28
1000846e:	4694      	mov	ip, r2
10008470:	4463      	add	r3, ip
10008472:	0018      	movs	r0, r3
10008474:	6921      	ldr	r1, [r4, #16]
10008476:	002a      	movs	r2, r5
10008478:	f7ff f988 	bl	1000778c <__wrap___aeabi_memcpy>
1000847c:	69e3      	ldr	r3, [r4, #28]
1000847e:	78e0      	ldrb	r0, [r4, #3]
10008480:	18e9      	adds	r1, r5, r3
10008482:	61e1      	str	r1, [r4, #28]
10008484:	2800      	cmp	r0, #0
10008486:	d0b5      	beq.n	100083f4 <_hw_endpoint_xfer_continue+0x28>
10008488:	6a23      	ldr	r3, [r4, #32]
1000848a:	429d      	cmp	r5, r3
1000848c:	d2b2      	bcs.n	100083f4 <_hw_endpoint_xfer_continue+0x28>
1000848e:	2300      	movs	r3, #0
10008490:	2201      	movs	r2, #1
10008492:	6223      	str	r3, [r4, #32]
10008494:	3324      	adds	r3, #36	; 0x24
10008496:	61a1      	str	r1, [r4, #24]
10008498:	54e2      	strb	r2, [r4, r3]
1000849a:	e7e0      	b.n	1000845e <_hw_endpoint_xfer_continue+0x92>
1000849c:	6aa3      	ldr	r3, [r4, #40]	; 0x28
1000849e:	002a      	movs	r2, r5
100084a0:	469c      	mov	ip, r3
100084a2:	6920      	ldr	r0, [r4, #16]
100084a4:	4461      	add	r1, ip
100084a6:	f7ff f971 	bl	1000778c <__wrap___aeabi_memcpy>
100084aa:	2384      	movs	r3, #132	; 0x84
100084ac:	021b      	lsls	r3, r3, #8
100084ae:	431d      	orrs	r5, r3
100084b0:	5de3      	ldrb	r3, [r4, r7]
100084b2:	e7b6      	b.n	10008422 <_hw_endpoint_xfer_continue+0x56>
100084b4:	4640      	mov	r0, r8
100084b6:	e7d2      	b.n	1000845e <_hw_endpoint_xfer_continue+0x92>
100084b8:	4808      	ldr	r0, [pc, #32]	; (100084dc <_hw_endpoint_xfer_continue+0x110>)
100084ba:	f7fc fa75 	bl	100049a8 <panic>
100084be:	7881      	ldrb	r1, [r0, #2]
100084c0:	4a07      	ldr	r2, [pc, #28]	; (100084e0 <_hw_endpoint_xfer_continue+0x114>)
100084c2:	4808      	ldr	r0, [pc, #32]	; (100084e4 <_hw_endpoint_xfer_continue+0x118>)
100084c4:	f7fc fa70 	bl	100049a8 <panic>
100084c8:	7863      	ldrb	r3, [r4, #1]
100084ca:	4a05      	ldr	r2, [pc, #20]	; (100084e0 <_hw_endpoint_xfer_continue+0x114>)
100084cc:	009b      	lsls	r3, r3, #2
100084ce:	78a1      	ldrb	r1, [r4, #2]
100084d0:	589a      	ldr	r2, [r3, r2]
100084d2:	4805      	ldr	r0, [pc, #20]	; (100084e8 <_hw_endpoint_xfer_continue+0x11c>)
100084d4:	f7fc fa68 	bl	100049a8 <panic>
100084d8:	fffffbff 	.word	0xfffffbff
100084dc:	1000ba30 	.word	0x1000ba30
100084e0:	200002d4 	.word	0x200002d4
100084e4:	1000ba04 	.word	0x1000ba04
100084e8:	1000b9e4 	.word	0x1000b9e4

100084ec <_hw_endpoint_xfer>:
100084ec:	b5f8      	push	{r3, r4, r5, r6, r7, lr}
100084ee:	001f      	movs	r7, r3
100084f0:	0004      	movs	r4, r0
100084f2:	7d43      	ldrb	r3, [r0, #21]
100084f4:	2f00      	cmp	r7, #0
100084f6:	d143      	bne.n	10008580 <_hw_endpoint_xfer+0x94>
100084f8:	2b00      	cmp	r3, #0
100084fa:	d100      	bne.n	100084fe <_hw_endpoint_xfer+0x12>
100084fc:	e0c3      	b.n	10008686 <_hw_endpoint_xfer+0x19a>
100084fe:	68c3      	ldr	r3, [r0, #12]
10008500:	78c2      	ldrb	r2, [r0, #3]
10008502:	681e      	ldr	r6, [r3, #0]
10008504:	05b6      	lsls	r6, r6, #22
10008506:	0db6      	lsrs	r6, r6, #22
10008508:	2a00      	cmp	r2, #0
1000850a:	d000      	beq.n	1000850e <_hw_endpoint_xfer+0x22>
1000850c:	e081      	b.n	10008612 <_hw_endpoint_xfer+0x126>
1000850e:	69c3      	ldr	r3, [r0, #28]
10008510:	18f1      	adds	r1, r6, r3
10008512:	61c1      	str	r1, [r0, #28]
10008514:	69a0      	ldr	r0, [r4, #24]
10008516:	1a45      	subs	r5, r0, r1
10008518:	2d40      	cmp	r5, #64	; 0x40
1000851a:	d900      	bls.n	1000851e <_hw_endpoint_xfer+0x32>
1000851c:	e077      	b.n	1000860e <_hw_endpoint_xfer+0x122>
1000851e:	186b      	adds	r3, r5, r1
10008520:	1a1b      	subs	r3, r3, r0
10008522:	425f      	negs	r7, r3
10008524:	415f      	adcs	r7, r3
10008526:	2624      	movs	r6, #36	; 0x24
10008528:	b2fb      	uxtb	r3, r7
1000852a:	6225      	str	r5, [r4, #32]
1000852c:	55a3      	strb	r3, [r4, r6]
1000852e:	4288      	cmp	r0, r1
10008530:	d200      	bcs.n	10008534 <_hw_endpoint_xfer+0x48>
10008532:	e09d      	b.n	10008670 <_hw_endpoint_xfer+0x184>
10008534:	d023      	beq.n	1000857e <_hw_endpoint_xfer+0x92>
10008536:	2a00      	cmp	r2, #0
10008538:	d100      	bne.n	1000853c <_hw_endpoint_xfer+0x50>
1000853a:	e08d      	b.n	10008658 <_hw_endpoint_xfer+0x16c>
1000853c:	2280      	movs	r2, #128	; 0x80
1000853e:	00d2      	lsls	r2, r2, #3
10008540:	4315      	orrs	r5, r2
10008542:	7962      	ldrb	r2, [r4, #5]
10008544:	0011      	movs	r1, r2
10008546:	1e48      	subs	r0, r1, #1
10008548:	4181      	sbcs	r1, r0
1000854a:	0349      	lsls	r1, r1, #13
1000854c:	430d      	orrs	r5, r1
1000854e:	2101      	movs	r1, #1
10008550:	404a      	eors	r2, r1
10008552:	7162      	strb	r2, [r4, #5]
10008554:	2b00      	cmp	r3, #0
10008556:	d002      	beq.n	1000855e <_hw_endpoint_xfer+0x72>
10008558:	2380      	movs	r3, #128	; 0x80
1000855a:	01db      	lsls	r3, r3, #7
1000855c:	431d      	orrs	r5, r3
1000855e:	68e2      	ldr	r2, [r4, #12]
10008560:	6813      	ldr	r3, [r2, #0]
10008562:	055b      	lsls	r3, r3, #21
10008564:	d500      	bpl.n	10008568 <_hw_endpoint_xfer+0x7c>
10008566:	e086      	b.n	10008676 <_hw_endpoint_xfer+0x18a>
10008568:	4b49      	ldr	r3, [pc, #292]	; (10008690 <_hw_endpoint_xfer+0x1a4>)
1000856a:	402b      	ands	r3, r5
1000856c:	6013      	str	r3, [r2, #0]
1000856e:	e7ff      	b.n	10008570 <_hw_endpoint_xfer+0x84>
10008570:	e7ff      	b.n	10008572 <_hw_endpoint_xfer+0x86>
10008572:	e7ff      	b.n	10008574 <_hw_endpoint_xfer+0x88>
10008574:	e7ff      	b.n	10008576 <_hw_endpoint_xfer+0x8a>
10008576:	e7ff      	b.n	10008578 <_hw_endpoint_xfer+0x8c>
10008578:	e7ff      	b.n	1000857a <_hw_endpoint_xfer+0x8e>
1000857a:	68e3      	ldr	r3, [r4, #12]
1000857c:	601d      	str	r5, [r3, #0]
1000857e:	bdf8      	pop	{r3, r4, r5, r6, r7, pc}
10008580:	2b00      	cmp	r3, #0
10008582:	d132      	bne.n	100085ea <_hw_endpoint_xfer+0xfe>
10008584:	2300      	movs	r3, #0
10008586:	0015      	movs	r5, r2
10008588:	61a2      	str	r2, [r4, #24]
1000858a:	61e3      	str	r3, [r4, #28]
1000858c:	2a40      	cmp	r2, #64	; 0x40
1000858e:	d836      	bhi.n	100085fe <_hw_endpoint_xfer+0x112>
10008590:	2380      	movs	r3, #128	; 0x80
10008592:	00db      	lsls	r3, r3, #3
10008594:	4313      	orrs	r3, r2
10008596:	2201      	movs	r2, #1
10008598:	2624      	movs	r6, #36	; 0x24
1000859a:	2000      	movs	r0, #0
1000859c:	7562      	strb	r2, [r4, #21]
1000859e:	3224      	adds	r2, #36	; 0x24
100085a0:	6225      	str	r5, [r4, #32]
100085a2:	62a1      	str	r1, [r4, #40]	; 0x28
100085a4:	55a7      	strb	r7, [r4, r6]
100085a6:	54a0      	strb	r0, [r4, r2]
100085a8:	78e2      	ldrb	r2, [r4, #3]
100085aa:	2a00      	cmp	r2, #0
100085ac:	d04b      	beq.n	10008646 <_hw_endpoint_xfer+0x15a>
100085ae:	7962      	ldrb	r2, [r4, #5]
100085b0:	0011      	movs	r1, r2
100085b2:	1e48      	subs	r0, r1, #1
100085b4:	4181      	sbcs	r1, r0
100085b6:	0349      	lsls	r1, r1, #13
100085b8:	430b      	orrs	r3, r1
100085ba:	2101      	movs	r1, #1
100085bc:	404a      	eors	r2, r1
100085be:	7162      	strb	r2, [r4, #5]
100085c0:	2f00      	cmp	r7, #0
100085c2:	d002      	beq.n	100085ca <_hw_endpoint_xfer+0xde>
100085c4:	2280      	movs	r2, #128	; 0x80
100085c6:	01d2      	lsls	r2, r2, #7
100085c8:	4313      	orrs	r3, r2
100085ca:	68e1      	ldr	r1, [r4, #12]
100085cc:	680a      	ldr	r2, [r1, #0]
100085ce:	0552      	lsls	r2, r2, #21
100085d0:	d451      	bmi.n	10008676 <_hw_endpoint_xfer+0x18a>
100085d2:	4a2f      	ldr	r2, [pc, #188]	; (10008690 <_hw_endpoint_xfer+0x1a4>)
100085d4:	401a      	ands	r2, r3
100085d6:	600a      	str	r2, [r1, #0]
100085d8:	e7ff      	b.n	100085da <_hw_endpoint_xfer+0xee>
100085da:	e7ff      	b.n	100085dc <_hw_endpoint_xfer+0xf0>
100085dc:	e7ff      	b.n	100085de <_hw_endpoint_xfer+0xf2>
100085de:	e7ff      	b.n	100085e0 <_hw_endpoint_xfer+0xf4>
100085e0:	e7ff      	b.n	100085e2 <_hw_endpoint_xfer+0xf6>
100085e2:	e7ff      	b.n	100085e4 <_hw_endpoint_xfer+0xf8>
100085e4:	68e2      	ldr	r2, [r4, #12]
100085e6:	6013      	str	r3, [r2, #0]
100085e8:	e7c9      	b.n	1000857e <_hw_endpoint_xfer+0x92>
100085ea:	2300      	movs	r3, #0
100085ec:	7503      	strb	r3, [r0, #20]
100085ee:	2032      	movs	r0, #50	; 0x32
100085f0:	5423      	strb	r3, [r4, r0]
100085f2:	2300      	movs	r3, #0
100085f4:	0015      	movs	r5, r2
100085f6:	61a2      	str	r2, [r4, #24]
100085f8:	61e3      	str	r3, [r4, #28]
100085fa:	2a40      	cmp	r2, #64	; 0x40
100085fc:	d9c8      	bls.n	10008590 <_hw_endpoint_xfer+0xa4>
100085fe:	3d40      	subs	r5, #64	; 0x40
10008600:	426f      	negs	r7, r5
10008602:	416f      	adcs	r7, r5
10008604:	2388      	movs	r3, #136	; 0x88
10008606:	b2ff      	uxtb	r7, r7
10008608:	00db      	lsls	r3, r3, #3
1000860a:	2540      	movs	r5, #64	; 0x40
1000860c:	e7c3      	b.n	10008596 <_hw_endpoint_xfer+0xaa>
1000860e:	2540      	movs	r5, #64	; 0x40
10008610:	e785      	b.n	1000851e <_hw_endpoint_xfer+0x32>
10008612:	69c2      	ldr	r2, [r0, #28]
10008614:	6a83      	ldr	r3, [r0, #40]	; 0x28
10008616:	4694      	mov	ip, r2
10008618:	4463      	add	r3, ip
1000861a:	0018      	movs	r0, r3
1000861c:	0032      	movs	r2, r6
1000861e:	6921      	ldr	r1, [r4, #16]
10008620:	f7ff f8b4 	bl	1000778c <__wrap___aeabi_memcpy>
10008624:	69e3      	ldr	r3, [r4, #28]
10008626:	78e2      	ldrb	r2, [r4, #3]
10008628:	18f1      	adds	r1, r6, r3
1000862a:	61e1      	str	r1, [r4, #28]
1000862c:	2a00      	cmp	r2, #0
1000862e:	d100      	bne.n	10008632 <_hw_endpoint_xfer+0x146>
10008630:	e770      	b.n	10008514 <_hw_endpoint_xfer+0x28>
10008632:	6a23      	ldr	r3, [r4, #32]
10008634:	429e      	cmp	r6, r3
10008636:	d300      	bcc.n	1000863a <_hw_endpoint_xfer+0x14e>
10008638:	e76c      	b.n	10008514 <_hw_endpoint_xfer+0x28>
1000863a:	2201      	movs	r2, #1
1000863c:	2324      	movs	r3, #36	; 0x24
1000863e:	61a1      	str	r1, [r4, #24]
10008640:	6227      	str	r7, [r4, #32]
10008642:	54e2      	strb	r2, [r4, r3]
10008644:	e79b      	b.n	1000857e <_hw_endpoint_xfer+0x92>
10008646:	002a      	movs	r2, r5
10008648:	6920      	ldr	r0, [r4, #16]
1000864a:	f7ff f89f 	bl	1000778c <__wrap___aeabi_memcpy>
1000864e:	2384      	movs	r3, #132	; 0x84
10008650:	021b      	lsls	r3, r3, #8
10008652:	432b      	orrs	r3, r5
10008654:	5da7      	ldrb	r7, [r4, r6]
10008656:	e7aa      	b.n	100085ae <_hw_endpoint_xfer+0xc2>
10008658:	6aa3      	ldr	r3, [r4, #40]	; 0x28
1000865a:	002a      	movs	r2, r5
1000865c:	469c      	mov	ip, r3
1000865e:	6920      	ldr	r0, [r4, #16]
10008660:	4461      	add	r1, ip
10008662:	f7ff f893 	bl	1000778c <__wrap___aeabi_memcpy>
10008666:	2384      	movs	r3, #132	; 0x84
10008668:	021b      	lsls	r3, r3, #8
1000866a:	431d      	orrs	r5, r3
1000866c:	5da3      	ldrb	r3, [r4, r6]
1000866e:	e768      	b.n	10008542 <_hw_endpoint_xfer+0x56>
10008670:	4808      	ldr	r0, [pc, #32]	; (10008694 <_hw_endpoint_xfer+0x1a8>)
10008672:	f7fc f999 	bl	100049a8 <panic>
10008676:	7863      	ldrb	r3, [r4, #1]
10008678:	4a07      	ldr	r2, [pc, #28]	; (10008698 <_hw_endpoint_xfer+0x1ac>)
1000867a:	009b      	lsls	r3, r3, #2
1000867c:	78a1      	ldrb	r1, [r4, #2]
1000867e:	589a      	ldr	r2, [r3, r2]
10008680:	4806      	ldr	r0, [pc, #24]	; (1000869c <_hw_endpoint_xfer+0x1b0>)
10008682:	f7fc f991 	bl	100049a8 <panic>
10008686:	7881      	ldrb	r1, [r0, #2]
10008688:	4a03      	ldr	r2, [pc, #12]	; (10008698 <_hw_endpoint_xfer+0x1ac>)
1000868a:	4805      	ldr	r0, [pc, #20]	; (100086a0 <_hw_endpoint_xfer+0x1b4>)
1000868c:	f7fc f98c 	bl	100049a8 <panic>
10008690:	fffffbff 	.word	0xfffffbff
10008694:	1000ba30 	.word	0x1000ba30
10008698:	200002d4 	.word	0x200002d4
1000869c:	1000b9e4 	.word	0x1000b9e4
100086a0:	1000ba04 	.word	0x1000ba04

100086a4 <tud_mounted>:
100086a4:	4b02      	ldr	r3, [pc, #8]	; (100086b0 <tud_mounted+0xc>)
100086a6:	7858      	ldrb	r0, [r3, #1]
100086a8:	1e43      	subs	r3, r0, #1
100086aa:	4198      	sbcs	r0, r3
100086ac:	b2c0      	uxtb	r0, r0
100086ae:	4770      	bx	lr
100086b0:	20000ef0 	.word	0x20000ef0

100086b4 <tud_suspended>:
100086b4:	4b02      	ldr	r3, [pc, #8]	; (100086c0 <tud_suspended+0xc>)
100086b6:	7818      	ldrb	r0, [r3, #0]
100086b8:	0740      	lsls	r0, r0, #29
100086ba:	0fc0      	lsrs	r0, r0, #31
100086bc:	4770      	bx	lr
100086be:	46c0      	nop			; (mov r8, r8)
100086c0:	20000ef0 	.word	0x20000ef0

100086c4 <tud_init>:
100086c4:	b5f8      	push	{r3, r4, r5, r6, r7, lr}
100086c6:	2237      	movs	r2, #55	; 0x37
100086c8:	2100      	movs	r1, #0
100086ca:	4823      	ldr	r0, [pc, #140]	; (10008758 <tud_init+0x94>)
100086cc:	f7ff f858 	bl	10007780 <__wrap_memset>
100086d0:	4c22      	ldr	r4, [pc, #136]	; (1000875c <tud_init+0x98>)
100086d2:	0020      	movs	r0, r4
100086d4:	f7fb fdec 	bl	100042b0 <mutex_init>
100086d8:	4b21      	ldr	r3, [pc, #132]	; (10008760 <tud_init+0x9c>)
100086da:	601c      	str	r4, [r3, #0]
100086dc:	4c21      	ldr	r4, [pc, #132]	; (10008764 <tud_init+0xa0>)
100086de:	0020      	movs	r0, r4
100086e0:	3018      	adds	r0, #24
100086e2:	f7fb fdf3 	bl	100042cc <critical_section_init>
100086e6:	0020      	movs	r0, r4
100086e8:	f001 fbe4 	bl	10009eb4 <tu_fifo_clear>
100086ec:	4b1e      	ldr	r3, [pc, #120]	; (10008768 <tud_init+0xa4>)
100086ee:	601c      	str	r4, [r3, #0]
100086f0:	4b1e      	ldr	r3, [pc, #120]	; (1000876c <tud_init+0xa8>)
100086f2:	2b00      	cmp	r3, #0
100086f4:	d026      	beq.n	10008744 <tud_init+0x80>
100086f6:	4d1e      	ldr	r5, [pc, #120]	; (10008770 <tud_init+0xac>)
100086f8:	2400      	movs	r4, #0
100086fa:	0028      	movs	r0, r5
100086fc:	e000      	b.n	10008700 <tud_init+0x3c>
100086fe:	bf00      	nop
10008700:	4e1c      	ldr	r6, [pc, #112]	; (10008774 <tud_init+0xb0>)
10008702:	782b      	ldrb	r3, [r5, #0]
10008704:	6030      	str	r0, [r6, #0]
10008706:	4f1c      	ldr	r7, [pc, #112]	; (10008778 <tud_init+0xb4>)
10008708:	e00a      	b.n	10008720 <tud_init+0x5c>
1000870a:	00e3      	lsls	r3, r4, #3
1000870c:	1b1b      	subs	r3, r3, r4
1000870e:	6832      	ldr	r2, [r6, #0]
10008710:	009b      	lsls	r3, r3, #2
10008712:	589b      	ldr	r3, [r3, r2]
10008714:	4798      	blx	r3
10008716:	3401      	adds	r4, #1
10008718:	782b      	ldrb	r3, [r5, #0]
1000871a:	b2e4      	uxtb	r4, r4
1000871c:	42a3      	cmp	r3, r4
1000871e:	db09      	blt.n	10008734 <tud_init+0x70>
10008720:	429c      	cmp	r4, r3
10008722:	d3f2      	bcc.n	1000870a <tud_init+0x46>
10008724:	d114      	bne.n	10008750 <tud_init+0x8c>
10008726:	003b      	movs	r3, r7
10008728:	4798      	blx	r3
1000872a:	3401      	adds	r4, #1
1000872c:	782b      	ldrb	r3, [r5, #0]
1000872e:	b2e4      	uxtb	r4, r4
10008730:	42a3      	cmp	r3, r4
10008732:	daf5      	bge.n	10008720 <tud_init+0x5c>
10008734:	2000      	movs	r0, #0
10008736:	f7ff fc6d 	bl	10008014 <dcd_init>
1000873a:	2000      	movs	r0, #0
1000873c:	f7ff fc44 	bl	10007fc8 <dcd_int_enable>
10008740:	2001      	movs	r0, #1
10008742:	bdf8      	pop	{r3, r4, r5, r6, r7, pc}
10008744:	f000 ffd4 	bl	100096f0 <cdcd_init>
10008748:	4b09      	ldr	r3, [pc, #36]	; (10008770 <tud_init+0xac>)
1000874a:	781b      	ldrb	r3, [r3, #0]
1000874c:	2b00      	cmp	r3, #0
1000874e:	d0f1      	beq.n	10008734 <tud_init+0x70>
10008750:	2300      	movs	r3, #0
10008752:	681b      	ldr	r3, [r3, #0]
10008754:	deff      	udf	#255	; 0xff
10008756:	46c0      	nop			; (mov r8, r8)
10008758:	20000ef0 	.word	0x20000ef0
1000875c:	20000ea8 	.word	0x20000ea8
10008760:	20000f28 	.word	0x20000f28
10008764:	200002dc 	.word	0x200002dc
10008768:	20000f2c 	.word	0x20000f2c
1000876c:	00000000 	.word	0x00000000
10008770:	20001660 	.word	0x20001660
10008774:	20000bb8 	.word	0x20000bb8
10008778:	100096f1 	.word	0x100096f1

1000877c <tud_task>:
1000877c:	b5f0      	push	{r4, r5, r6, r7, lr}
1000877e:	46de      	mov	lr, fp
10008780:	4657      	mov	r7, sl
10008782:	464e      	mov	r6, r9
10008784:	4645      	mov	r5, r8
10008786:	b5e0      	push	{r5, r6, r7, lr}
10008788:	b08b      	sub	sp, #44	; 0x2c
1000878a:	f001 f989 	bl	10009aa0 <tusb_inited>
1000878e:	2800      	cmp	r0, #0
10008790:	d100      	bne.n	10008794 <tud_task+0x18>
10008792:	e171      	b.n	10008a78 <tud_task+0x2fc>
10008794:	4bcd      	ldr	r3, [pc, #820]	; (10008acc <tud_task+0x350>)
10008796:	ac07      	add	r4, sp, #28
10008798:	469b      	mov	fp, r3
1000879a:	465b      	mov	r3, fp
1000879c:	681e      	ldr	r6, [r3, #0]
1000879e:	69b2      	ldr	r2, [r6, #24]
100087a0:	f3ef 8110 	mrs	r1, PRIMASK
100087a4:	b672      	cpsid	i
100087a6:	6813      	ldr	r3, [r2, #0]
100087a8:	2b00      	cmp	r3, #0
100087aa:	d0fc      	beq.n	100087a6 <tud_task+0x2a>
100087ac:	f3bf 8f5f 	dmb	sy
100087b0:	61f1      	str	r1, [r6, #28]
100087b2:	0030      	movs	r0, r6
100087b4:	0021      	movs	r1, r4
100087b6:	f001 f9d7 	bl	10009b68 <tu_fifo_read>
100087ba:	69b2      	ldr	r2, [r6, #24]
100087bc:	0005      	movs	r5, r0
100087be:	69f3      	ldr	r3, [r6, #28]
100087c0:	f3bf 8f5f 	dmb	sy
100087c4:	2100      	movs	r1, #0
100087c6:	6011      	str	r1, [r2, #0]
100087c8:	f383 8810 	msr	PRIMASK, r3
100087cc:	2800      	cmp	r0, #0
100087ce:	d100      	bne.n	100087d2 <tud_task+0x56>
100087d0:	e152      	b.n	10008a78 <tud_task+0x2fc>
100087d2:	7863      	ldrb	r3, [r4, #1]
100087d4:	2b08      	cmp	r3, #8
100087d6:	d8e0      	bhi.n	1000879a <tud_task+0x1e>
100087d8:	4abd      	ldr	r2, [pc, #756]	; (10008ad0 <tud_task+0x354>)
100087da:	009b      	lsls	r3, r3, #2
100087dc:	58d3      	ldr	r3, [r2, r3]
100087de:	469f      	mov	pc, r3
100087e0:	6863      	ldr	r3, [r4, #4]
100087e2:	2b00      	cmp	r3, #0
100087e4:	d0d9      	beq.n	1000879a <tud_task+0x1e>
100087e6:	68a0      	ldr	r0, [r4, #8]
100087e8:	4798      	blx	r3
100087ea:	e7d6      	b.n	1000879a <tud_task+0x1e>
100087ec:	227f      	movs	r2, #127	; 0x7f
100087ee:	7921      	ldrb	r1, [r4, #4]
100087f0:	4bb8      	ldr	r3, [pc, #736]	; (10008ad4 <tud_task+0x358>)
100087f2:	400a      	ands	r2, r1
100087f4:	0055      	lsls	r5, r2, #1
100087f6:	09c8      	lsrs	r0, r1, #7
100087f8:	195b      	adds	r3, r3, r5
100087fa:	181b      	adds	r3, r3, r0
100087fc:	0018      	movs	r0, r3
100087fe:	2601      	movs	r6, #1
10008800:	3020      	adds	r0, #32
10008802:	7945      	ldrb	r5, [r0, #5]
10008804:	43b5      	bics	r5, r6
10008806:	7145      	strb	r5, [r0, #5]
10008808:	7945      	ldrb	r5, [r0, #5]
1000880a:	3603      	adds	r6, #3
1000880c:	43b5      	bics	r5, r6
1000880e:	7145      	strb	r5, [r0, #5]
10008810:	2a00      	cmp	r2, #0
10008812:	d100      	bne.n	10008816 <tud_task+0x9a>
10008814:	e17b      	b.n	10008b0e <tud_task+0x392>
10008816:	4ab0      	ldr	r2, [pc, #704]	; (10008ad8 <tud_task+0x35c>)
10008818:	7cdb      	ldrb	r3, [r3, #19]
1000881a:	2a00      	cmp	r2, #0
1000881c:	d100      	bne.n	10008820 <tud_task+0xa4>
1000881e:	e134      	b.n	10008a8a <tud_task+0x30e>
10008820:	4aae      	ldr	r2, [pc, #696]	; (10008adc <tud_task+0x360>)
10008822:	7812      	ldrb	r2, [r2, #0]
10008824:	4293      	cmp	r3, r2
10008826:	d300      	bcc.n	1000882a <tud_task+0xae>
10008828:	e12d      	b.n	10008a86 <tud_task+0x30a>
1000882a:	00da      	lsls	r2, r3, #3
1000882c:	1ad3      	subs	r3, r2, r3
1000882e:	4aac      	ldr	r2, [pc, #688]	; (10008ae0 <tud_task+0x364>)
10008830:	009b      	lsls	r3, r3, #2
10008832:	6812      	ldr	r2, [r2, #0]
10008834:	18d3      	adds	r3, r2, r3
10008836:	2b00      	cmp	r3, #0
10008838:	d100      	bne.n	1000883c <tud_task+0xc0>
1000883a:	e11d      	b.n	10008a78 <tud_task+0x2fc>
1000883c:	695d      	ldr	r5, [r3, #20]
1000883e:	e127      	b.n	10008a90 <tud_task+0x314>
10008840:	2201      	movs	r2, #1
10008842:	4ea4      	ldr	r6, [pc, #656]	; (10008ad4 <tud_task+0x358>)
10008844:	2000      	movs	r0, #0
10008846:	7833      	ldrb	r3, [r6, #0]
10008848:	4313      	orrs	r3, r2
1000884a:	7033      	strb	r3, [r6, #0]
1000884c:	7823      	ldrb	r3, [r4, #0]
1000884e:	469a      	mov	sl, r3
10008850:	f000 fdbc 	bl	100093cc <usbd_control_set_complete_callback>
10008854:	7927      	ldrb	r7, [r4, #4]
10008856:	067b      	lsls	r3, r7, #25
10008858:	0f9b      	lsrs	r3, r3, #30
1000885a:	2b03      	cmp	r3, #3
1000885c:	d100      	bne.n	10008860 <tud_task+0xe4>
1000885e:	e12b      	b.n	10008ab8 <tud_task+0x33c>
10008860:	2360      	movs	r3, #96	; 0x60
10008862:	403b      	ands	r3, r7
10008864:	2b40      	cmp	r3, #64	; 0x40
10008866:	d100      	bne.n	1000886a <tud_task+0xee>
10008868:	e157      	b.n	10008b1a <tud_task+0x39e>
1000886a:	06ff      	lsls	r7, r7, #27
1000886c:	0eff      	lsrs	r7, r7, #27
1000886e:	2f01      	cmp	r7, #1
10008870:	d100      	bne.n	10008874 <tud_task+0xf8>
10008872:	e163      	b.n	10008b3c <tud_task+0x3c0>
10008874:	2f00      	cmp	r7, #0
10008876:	d100      	bne.n	1000887a <tud_task+0xfe>
10008878:	e18e      	b.n	10008b98 <tud_task+0x41c>
1000887a:	2f02      	cmp	r7, #2
1000887c:	d000      	beq.n	10008880 <tud_task+0x104>
1000887e:	e11b      	b.n	10008ab8 <tud_task+0x33c>
10008880:	227f      	movs	r2, #127	; 0x7f
10008882:	7a21      	ldrb	r1, [r4, #8]
10008884:	400a      	ands	r2, r1
10008886:	4690      	mov	r8, r2
10008888:	2a08      	cmp	r2, #8
1000888a:	d900      	bls.n	1000888e <tud_task+0x112>
1000888c:	e114      	b.n	10008ab8 <tud_task+0x33c>
1000888e:	09ca      	lsrs	r2, r1, #7
10008890:	4691      	mov	r9, r2
10008892:	2b00      	cmp	r3, #0
10008894:	d100      	bne.n	10008898 <tud_task+0x11c>
10008896:	e193      	b.n	10008bc0 <tud_task+0x444>
10008898:	4643      	mov	r3, r8
1000889a:	005b      	lsls	r3, r3, #1
1000889c:	2500      	movs	r5, #0
1000889e:	4698      	mov	r8, r3
100088a0:	4446      	add	r6, r8
100088a2:	4a8d      	ldr	r2, [pc, #564]	; (10008ad8 <tud_task+0x35c>)
100088a4:	444e      	add	r6, r9
100088a6:	7cf3      	ldrb	r3, [r6, #19]
100088a8:	2a00      	cmp	r2, #0
100088aa:	d100      	bne.n	100088ae <tud_task+0x132>
100088ac:	e22b      	b.n	10008d06 <tud_task+0x58a>
100088ae:	4a8b      	ldr	r2, [pc, #556]	; (10008adc <tud_task+0x360>)
100088b0:	7812      	ldrb	r2, [r2, #0]
100088b2:	4293      	cmp	r3, r2
100088b4:	d300      	bcc.n	100088b8 <tud_task+0x13c>
100088b6:	e224      	b.n	10008d02 <tud_task+0x586>
100088b8:	4a89      	ldr	r2, [pc, #548]	; (10008ae0 <tud_task+0x364>)
100088ba:	00de      	lsls	r6, r3, #3
100088bc:	1af3      	subs	r3, r6, r3
100088be:	6816      	ldr	r6, [r2, #0]
100088c0:	009b      	lsls	r3, r3, #2
100088c2:	18f6      	adds	r6, r6, r3
100088c4:	2e00      	cmp	r6, #0
100088c6:	d100      	bne.n	100088ca <tud_task+0x14e>
100088c8:	e212      	b.n	10008cf0 <tud_task+0x574>
100088ca:	6930      	ldr	r0, [r6, #16]
100088cc:	f000 fd7e 	bl	100093cc <usbd_control_set_complete_callback>
100088d0:	68f3      	ldr	r3, [r6, #12]
100088d2:	a908      	add	r1, sp, #32
100088d4:	4650      	mov	r0, sl
100088d6:	4798      	blx	r3
100088d8:	2800      	cmp	r0, #0
100088da:	d100      	bne.n	100088de <tud_task+0x162>
100088dc:	e208      	b.n	10008cf0 <tud_task+0x574>
100088de:	2260      	movs	r2, #96	; 0x60
100088e0:	7923      	ldrb	r3, [r4, #4]
100088e2:	421a      	tst	r2, r3
100088e4:	d000      	beq.n	100088e8 <tud_task+0x16c>
100088e6:	e758      	b.n	1000879a <tud_task+0x1e>
100088e8:	2000      	movs	r0, #0
100088ea:	f000 fd6f 	bl	100093cc <usbd_control_set_complete_callback>
100088ee:	e754      	b.n	1000879a <tud_task+0x1e>
100088f0:	4b7c      	ldr	r3, [pc, #496]	; (10008ae4 <tud_task+0x368>)
100088f2:	2b00      	cmp	r3, #0
100088f4:	d100      	bne.n	100088f8 <tud_task+0x17c>
100088f6:	e750      	b.n	1000879a <tud_task+0x1e>
100088f8:	e000      	b.n	100088fc <tud_task+0x180>
100088fa:	bf00      	nop
100088fc:	e74d      	b.n	1000879a <tud_task+0x1e>
100088fe:	4b7a      	ldr	r3, [pc, #488]	; (10008ae8 <tud_task+0x36c>)
10008900:	2b00      	cmp	r3, #0
10008902:	d100      	bne.n	10008906 <tud_task+0x18a>
10008904:	e749      	b.n	1000879a <tud_task+0x1e>
10008906:	4b73      	ldr	r3, [pc, #460]	; (10008ad4 <tud_task+0x358>)
10008908:	7818      	ldrb	r0, [r3, #0]
1000890a:	0700      	lsls	r0, r0, #28
1000890c:	0fc0      	lsrs	r0, r0, #31
1000890e:	e000      	b.n	10008912 <tud_task+0x196>
10008910:	bf00      	nop
10008912:	e742      	b.n	1000879a <tud_task+0x1e>
10008914:	4f71      	ldr	r7, [pc, #452]	; (10008adc <tud_task+0x360>)
10008916:	4b70      	ldr	r3, [pc, #448]	; (10008ad8 <tud_task+0x35c>)
10008918:	783a      	ldrb	r2, [r7, #0]
1000891a:	2500      	movs	r5, #0
1000891c:	2b00      	cmp	r3, #0
1000891e:	d100      	bne.n	10008922 <tud_task+0x1a6>
10008920:	e0a4      	b.n	10008a6c <tud_task+0x2f0>
10008922:	4e6f      	ldr	r6, [pc, #444]	; (10008ae0 <tud_task+0x364>)
10008924:	e007      	b.n	10008936 <tud_task+0x1ba>
10008926:	42aa      	cmp	r2, r5
10008928:	d000      	beq.n	1000892c <tud_task+0x1b0>
1000892a:	e0a2      	b.n	10008a72 <tud_task+0x2f6>
1000892c:	3501      	adds	r5, #1
1000892e:	b2ed      	uxtb	r5, r5
10008930:	42aa      	cmp	r2, r5
10008932:	da00      	bge.n	10008936 <tud_task+0x1ba>
10008934:	e731      	b.n	1000879a <tud_task+0x1e>
10008936:	42aa      	cmp	r2, r5
10008938:	d9f5      	bls.n	10008926 <tud_task+0x1aa>
1000893a:	6831      	ldr	r1, [r6, #0]
1000893c:	00eb      	lsls	r3, r5, #3
1000893e:	468c      	mov	ip, r1
10008940:	1b5b      	subs	r3, r3, r5
10008942:	009b      	lsls	r3, r3, #2
10008944:	4463      	add	r3, ip
10008946:	699b      	ldr	r3, [r3, #24]
10008948:	2b00      	cmp	r3, #0
1000894a:	d0ef      	beq.n	1000892c <tud_task+0x1b0>
1000894c:	7820      	ldrb	r0, [r4, #0]
1000894e:	4798      	blx	r3
10008950:	783a      	ldrb	r2, [r7, #0]
10008952:	e7eb      	b.n	1000892c <tud_task+0x1b0>
10008954:	4d5f      	ldr	r5, [pc, #380]	; (10008ad4 <tud_task+0x358>)
10008956:	2237      	movs	r2, #55	; 0x37
10008958:	2100      	movs	r1, #0
1000895a:	0028      	movs	r0, r5
1000895c:	7826      	ldrb	r6, [r4, #0]
1000895e:	f7fe ff0f 	bl	10007780 <__wrap_memset>
10008962:	1ce8      	adds	r0, r5, #3
10008964:	2210      	movs	r2, #16
10008966:	21ff      	movs	r1, #255	; 0xff
10008968:	f7fe ff0a 	bl	10007780 <__wrap_memset>
1000896c:	0028      	movs	r0, r5
1000896e:	2212      	movs	r2, #18
10008970:	21ff      	movs	r1, #255	; 0xff
10008972:	3013      	adds	r0, #19
10008974:	f7fe ff04 	bl	10007780 <__wrap_memset>
10008978:	f000 fd1e 	bl	100093b8 <usbd_control_reset>
1000897c:	4f57      	ldr	r7, [pc, #348]	; (10008adc <tud_task+0x360>)
1000897e:	4a56      	ldr	r2, [pc, #344]	; (10008ad8 <tud_task+0x35c>)
10008980:	783b      	ldrb	r3, [r7, #0]
10008982:	2500      	movs	r5, #0
10008984:	2a00      	cmp	r2, #0
10008986:	d068      	beq.n	10008a5a <tud_task+0x2de>
10008988:	4a55      	ldr	r2, [pc, #340]	; (10008ae0 <tud_task+0x364>)
1000898a:	4690      	mov	r8, r2
1000898c:	4a57      	ldr	r2, [pc, #348]	; (10008aec <tud_task+0x370>)
1000898e:	4691      	mov	r9, r2
10008990:	e00e      	b.n	100089b0 <tud_task+0x234>
10008992:	4642      	mov	r2, r8
10008994:	6812      	ldr	r2, [r2, #0]
10008996:	00eb      	lsls	r3, r5, #3
10008998:	4694      	mov	ip, r2
1000899a:	1b5b      	subs	r3, r3, r5
1000899c:	009b      	lsls	r3, r3, #2
1000899e:	4463      	add	r3, ip
100089a0:	685b      	ldr	r3, [r3, #4]
100089a2:	0030      	movs	r0, r6
100089a4:	4798      	blx	r3
100089a6:	3501      	adds	r5, #1
100089a8:	783b      	ldrb	r3, [r7, #0]
100089aa:	b2ed      	uxtb	r5, r5
100089ac:	42ab      	cmp	r3, r5
100089ae:	db0a      	blt.n	100089c6 <tud_task+0x24a>
100089b0:	42ab      	cmp	r3, r5
100089b2:	d8ee      	bhi.n	10008992 <tud_task+0x216>
100089b4:	d157      	bne.n	10008a66 <tud_task+0x2ea>
100089b6:	464b      	mov	r3, r9
100089b8:	0030      	movs	r0, r6
100089ba:	4798      	blx	r3
100089bc:	3501      	adds	r5, #1
100089be:	783b      	ldrb	r3, [r7, #0]
100089c0:	b2ed      	uxtb	r5, r5
100089c2:	42ab      	cmp	r3, r5
100089c4:	daf4      	bge.n	100089b0 <tud_task+0x234>
100089c6:	4b4a      	ldr	r3, [pc, #296]	; (10008af0 <tud_task+0x374>)
100089c8:	2b00      	cmp	r3, #0
100089ca:	d100      	bne.n	100089ce <tud_task+0x252>
100089cc:	e6e5      	b.n	1000879a <tud_task+0x1e>
100089ce:	e000      	b.n	100089d2 <tud_task+0x256>
100089d0:	bf00      	nop
100089d2:	e6e2      	b.n	1000879a <tud_task+0x1e>
100089d4:	4e3f      	ldr	r6, [pc, #252]	; (10008ad4 <tud_task+0x358>)
100089d6:	7823      	ldrb	r3, [r4, #0]
100089d8:	2237      	movs	r2, #55	; 0x37
100089da:	2100      	movs	r1, #0
100089dc:	0030      	movs	r0, r6
100089de:	4698      	mov	r8, r3
100089e0:	f7fe fece 	bl	10007780 <__wrap_memset>
100089e4:	2210      	movs	r2, #16
100089e6:	21ff      	movs	r1, #255	; 0xff
100089e8:	1cf0      	adds	r0, r6, #3
100089ea:	f7fe fec9 	bl	10007780 <__wrap_memset>
100089ee:	0030      	movs	r0, r6
100089f0:	2212      	movs	r2, #18
100089f2:	21ff      	movs	r1, #255	; 0xff
100089f4:	3013      	adds	r0, #19
100089f6:	f7fe fec3 	bl	10007780 <__wrap_memset>
100089fa:	f000 fcdd 	bl	100093b8 <usbd_control_reset>
100089fe:	4f37      	ldr	r7, [pc, #220]	; (10008adc <tud_task+0x360>)
10008a00:	4a35      	ldr	r2, [pc, #212]	; (10008ad8 <tud_task+0x35c>)
10008a02:	783b      	ldrb	r3, [r7, #0]
10008a04:	2500      	movs	r5, #0
10008a06:	2a00      	cmp	r2, #0
10008a08:	d100      	bne.n	10008a0c <tud_task+0x290>
10008a0a:	e077      	b.n	10008afc <tud_task+0x380>
10008a0c:	4a34      	ldr	r2, [pc, #208]	; (10008ae0 <tud_task+0x364>)
10008a0e:	4691      	mov	r9, r2
10008a10:	4a36      	ldr	r2, [pc, #216]	; (10008aec <tud_task+0x370>)
10008a12:	4692      	mov	sl, r2
10008a14:	0032      	movs	r2, r6
10008a16:	003e      	movs	r6, r7
10008a18:	4647      	mov	r7, r8
10008a1a:	4690      	mov	r8, r2
10008a1c:	e00e      	b.n	10008a3c <tud_task+0x2c0>
10008a1e:	464a      	mov	r2, r9
10008a20:	6812      	ldr	r2, [r2, #0]
10008a22:	00eb      	lsls	r3, r5, #3
10008a24:	4694      	mov	ip, r2
10008a26:	1b5b      	subs	r3, r3, r5
10008a28:	009b      	lsls	r3, r3, #2
10008a2a:	4463      	add	r3, ip
10008a2c:	685b      	ldr	r3, [r3, #4]
10008a2e:	0038      	movs	r0, r7
10008a30:	4798      	blx	r3
10008a32:	3501      	adds	r5, #1
10008a34:	7833      	ldrb	r3, [r6, #0]
10008a36:	b2ed      	uxtb	r5, r5
10008a38:	42ab      	cmp	r3, r5
10008a3a:	db0a      	blt.n	10008a52 <tud_task+0x2d6>
10008a3c:	42ab      	cmp	r3, r5
10008a3e:	d8ee      	bhi.n	10008a1e <tud_task+0x2a2>
10008a40:	d111      	bne.n	10008a66 <tud_task+0x2ea>
10008a42:	4653      	mov	r3, sl
10008a44:	0038      	movs	r0, r7
10008a46:	4798      	blx	r3
10008a48:	3501      	adds	r5, #1
10008a4a:	7833      	ldrb	r3, [r6, #0]
10008a4c:	b2ed      	uxtb	r5, r5
10008a4e:	42ab      	cmp	r3, r5
10008a50:	daf4      	bge.n	10008a3c <tud_task+0x2c0>
10008a52:	4646      	mov	r6, r8
10008a54:	7923      	ldrb	r3, [r4, #4]
10008a56:	70b3      	strb	r3, [r6, #2]
10008a58:	e69f      	b.n	1000879a <tud_task+0x1e>
10008a5a:	0030      	movs	r0, r6
10008a5c:	f000 fe84 	bl	10009768 <cdcd_reset>
10008a60:	783b      	ldrb	r3, [r7, #0]
10008a62:	2b00      	cmp	r3, #0
10008a64:	d0af      	beq.n	100089c6 <tud_task+0x24a>
10008a66:	2300      	movs	r3, #0
10008a68:	685b      	ldr	r3, [r3, #4]
10008a6a:	deff      	udf	#255	; 0xff
10008a6c:	2a00      	cmp	r2, #0
10008a6e:	d100      	bne.n	10008a72 <tud_task+0x2f6>
10008a70:	e693      	b.n	1000879a <tud_task+0x1e>
10008a72:	2300      	movs	r3, #0
10008a74:	699b      	ldr	r3, [r3, #24]
10008a76:	deff      	udf	#255	; 0xff
10008a78:	b00b      	add	sp, #44	; 0x2c
10008a7a:	bc3c      	pop	{r2, r3, r4, r5}
10008a7c:	4690      	mov	r8, r2
10008a7e:	4699      	mov	r9, r3
10008a80:	46a2      	mov	sl, r4
10008a82:	46ab      	mov	fp, r5
10008a84:	bdf0      	pop	{r4, r5, r6, r7, pc}
10008a86:	1a9b      	subs	r3, r3, r2
10008a88:	b2db      	uxtb	r3, r3
10008a8a:	2b00      	cmp	r3, #0
10008a8c:	d1f4      	bne.n	10008a78 <tud_task+0x2fc>
10008a8e:	4d19      	ldr	r5, [pc, #100]	; (10008af4 <tud_task+0x378>)
10008a90:	7962      	ldrb	r2, [r4, #5]
10008a92:	7820      	ldrb	r0, [r4, #0]
10008a94:	68a3      	ldr	r3, [r4, #8]
10008a96:	47a8      	blx	r5
10008a98:	e67f      	b.n	1000879a <tud_task+0x1e>
10008a9a:	4b17      	ldr	r3, [pc, #92]	; (10008af8 <tud_task+0x37c>)
10008a9c:	2b00      	cmp	r3, #0
10008a9e:	d00b      	beq.n	10008ab8 <tud_task+0x33c>
10008aa0:	e000      	b.n	10008aa4 <tud_task+0x328>
10008aa2:	bf00      	nop
10008aa4:	1e02      	subs	r2, r0, #0
10008aa6:	d007      	beq.n	10008ab8 <tud_task+0x33c>
10008aa8:	7813      	ldrb	r3, [r2, #0]
10008aaa:	a908      	add	r1, sp, #32
10008aac:	4650      	mov	r0, sl
10008aae:	f000 fc2d 	bl	1000930c <tud_control_xfer>
10008ab2:	2800      	cmp	r0, #0
10008ab4:	d000      	beq.n	10008ab8 <tud_task+0x33c>
10008ab6:	e670      	b.n	1000879a <tud_task+0x1e>
10008ab8:	7820      	ldrb	r0, [r4, #0]
10008aba:	2100      	movs	r1, #0
10008abc:	f7ff fbda 	bl	10008274 <dcd_edpt_stall>
10008ac0:	7820      	ldrb	r0, [r4, #0]
10008ac2:	2180      	movs	r1, #128	; 0x80
10008ac4:	f7ff fbd6 	bl	10008274 <dcd_edpt_stall>
10008ac8:	e667      	b.n	1000879a <tud_task+0x1e>
10008aca:	46c0      	nop			; (mov r8, r8)
10008acc:	20000f2c 	.word	0x20000f2c
10008ad0:	1000ba5c 	.word	0x1000ba5c
10008ad4:	20000ef0 	.word	0x20000ef0
10008ad8:	00000000 	.word	0x00000000
10008adc:	20001660 	.word	0x20001660
10008ae0:	20000bb8 	.word	0x20000bb8
	...
10008aec:	10009769 	.word	0x10009769
10008af0:	00000000 	.word	0x00000000
10008af4:	1000993d 	.word	0x1000993d
10008af8:	00000000 	.word	0x00000000
10008afc:	4640      	mov	r0, r8
10008afe:	f000 fe33 	bl	10009768 <cdcd_reset>
10008b02:	783b      	ldrb	r3, [r7, #0]
10008b04:	2b00      	cmp	r3, #0
10008b06:	d0a5      	beq.n	10008a54 <tud_task+0x2d8>
10008b08:	2300      	movs	r3, #0
10008b0a:	685b      	ldr	r3, [r3, #4]
10008b0c:	deff      	udf	#255	; 0xff
10008b0e:	7962      	ldrb	r2, [r4, #5]
10008b10:	7820      	ldrb	r0, [r4, #0]
10008b12:	68a3      	ldr	r3, [r4, #8]
10008b14:	f000 fc6e 	bl	100093f4 <usbd_control_xfer_cb>
10008b18:	e63f      	b.n	1000879a <tud_task+0x1e>
10008b1a:	4bc7      	ldr	r3, [pc, #796]	; (10008e38 <tud_task+0x6bc>)
10008b1c:	2b00      	cmp	r3, #0
10008b1e:	d0cb      	beq.n	10008ab8 <tud_task+0x33c>
10008b20:	48c6      	ldr	r0, [pc, #792]	; (10008e3c <tud_task+0x6c0>)
10008b22:	2800      	cmp	r0, #0
10008b24:	d001      	beq.n	10008b2a <tud_task+0x3ae>
10008b26:	f000 fc51 	bl	100093cc <usbd_control_set_complete_callback>
10008b2a:	a908      	add	r1, sp, #32
10008b2c:	4650      	mov	r0, sl
10008b2e:	e000      	b.n	10008b32 <tud_task+0x3b6>
10008b30:	bf00      	nop
10008b32:	0005      	movs	r5, r0
10008b34:	2d00      	cmp	r5, #0
10008b36:	d000      	beq.n	10008b3a <tud_task+0x3be>
10008b38:	e62f      	b.n	1000879a <tud_task+0x1e>
10008b3a:	e7bd      	b.n	10008ab8 <tud_task+0x33c>
10008b3c:	7a23      	ldrb	r3, [r4, #8]
10008b3e:	2b0f      	cmp	r3, #15
10008b40:	d8ba      	bhi.n	10008ab8 <tud_task+0x33c>
10008b42:	4abf      	ldr	r2, [pc, #764]	; (10008e40 <tud_task+0x6c4>)
10008b44:	18f6      	adds	r6, r6, r3
10008b46:	78f3      	ldrb	r3, [r6, #3]
10008b48:	2a00      	cmp	r2, #0
10008b4a:	d033      	beq.n	10008bb4 <tud_task+0x438>
10008b4c:	4abd      	ldr	r2, [pc, #756]	; (10008e44 <tud_task+0x6c8>)
10008b4e:	7812      	ldrb	r2, [r2, #0]
10008b50:	4293      	cmp	r3, r2
10008b52:	d22d      	bcs.n	10008bb0 <tud_task+0x434>
10008b54:	4abc      	ldr	r2, [pc, #752]	; (10008e48 <tud_task+0x6cc>)
10008b56:	00dd      	lsls	r5, r3, #3
10008b58:	1aeb      	subs	r3, r5, r3
10008b5a:	6815      	ldr	r5, [r2, #0]
10008b5c:	009b      	lsls	r3, r3, #2
10008b5e:	18ed      	adds	r5, r5, r3
10008b60:	2d00      	cmp	r5, #0
10008b62:	d0a9      	beq.n	10008ab8 <tud_task+0x33c>
10008b64:	6928      	ldr	r0, [r5, #16]
10008b66:	f000 fc31 	bl	100093cc <usbd_control_set_complete_callback>
10008b6a:	68eb      	ldr	r3, [r5, #12]
10008b6c:	a908      	add	r1, sp, #32
10008b6e:	4650      	mov	r0, sl
10008b70:	4798      	blx	r3
10008b72:	2800      	cmp	r0, #0
10008b74:	d000      	beq.n	10008b78 <tud_task+0x3fc>
10008b76:	e610      	b.n	1000879a <tud_task+0x1e>
10008b78:	2360      	movs	r3, #96	; 0x60
10008b7a:	7922      	ldrb	r2, [r4, #4]
10008b7c:	4013      	ands	r3, r2
10008b7e:	d19b      	bne.n	10008ab8 <tud_task+0x33c>
10008b80:	7962      	ldrb	r2, [r4, #5]
10008b82:	2a0a      	cmp	r2, #10
10008b84:	d198      	bne.n	10008ab8 <tud_task+0x33c>
10008b86:	aa06      	add	r2, sp, #24
10008b88:	3202      	adds	r2, #2
10008b8a:	7013      	strb	r3, [r2, #0]
10008b8c:	a908      	add	r1, sp, #32
10008b8e:	3301      	adds	r3, #1
10008b90:	4650      	mov	r0, sl
10008b92:	f000 fbbb 	bl	1000930c <tud_control_xfer>
10008b96:	e600      	b.n	1000879a <tud_task+0x1e>
10008b98:	2b20      	cmp	r3, #32
10008b9a:	d100      	bne.n	10008b9e <tud_task+0x422>
10008b9c:	e0b8      	b.n	10008d10 <tud_task+0x594>
10008b9e:	2b00      	cmp	r3, #0
10008ba0:	d18a      	bne.n	10008ab8 <tud_task+0x33c>
10008ba2:	7963      	ldrb	r3, [r4, #5]
10008ba4:	2b09      	cmp	r3, #9
10008ba6:	d887      	bhi.n	10008ab8 <tud_task+0x33c>
10008ba8:	4aa8      	ldr	r2, [pc, #672]	; (10008e4c <tud_task+0x6d0>)
10008baa:	009b      	lsls	r3, r3, #2
10008bac:	58d3      	ldr	r3, [r2, r3]
10008bae:	469f      	mov	pc, r3
10008bb0:	1a9b      	subs	r3, r3, r2
10008bb2:	b2db      	uxtb	r3, r3
10008bb4:	2b00      	cmp	r3, #0
10008bb6:	d000      	beq.n	10008bba <tud_task+0x43e>
10008bb8:	e77e      	b.n	10008ab8 <tud_task+0x33c>
10008bba:	48a5      	ldr	r0, [pc, #660]	; (10008e50 <tud_task+0x6d4>)
10008bbc:	4da5      	ldr	r5, [pc, #660]	; (10008e54 <tud_task+0x6d8>)
10008bbe:	e7d2      	b.n	10008b66 <tud_task+0x3ea>
10008bc0:	7963      	ldrb	r3, [r4, #5]
10008bc2:	9300      	str	r3, [sp, #0]
10008bc4:	2b01      	cmp	r3, #1
10008bc6:	d100      	bne.n	10008bca <tud_task+0x44e>
10008bc8:	e0db      	b.n	10008d82 <tud_task+0x606>
10008bca:	2b00      	cmp	r3, #0
10008bcc:	d100      	bne.n	10008bd0 <tud_task+0x454>
10008bce:	e0c6      	b.n	10008d5e <tud_task+0x5e2>
10008bd0:	2b03      	cmp	r3, #3
10008bd2:	d000      	beq.n	10008bd6 <tud_task+0x45a>
10008bd4:	e770      	b.n	10008ab8 <tud_task+0x33c>
10008bd6:	88e3      	ldrh	r3, [r4, #6]
10008bd8:	2b00      	cmp	r3, #0
10008bda:	d100      	bne.n	10008bde <tud_task+0x462>
10008bdc:	e16a      	b.n	10008eb4 <tud_task+0x738>
10008bde:	4643      	mov	r3, r8
10008be0:	005b      	lsls	r3, r3, #1
10008be2:	4698      	mov	r8, r3
10008be4:	a908      	add	r1, sp, #32
10008be6:	4650      	mov	r0, sl
10008be8:	f000 fb78 	bl	100092dc <tud_control_status>
10008bec:	e658      	b.n	100088a0 <tud_task+0x124>
10008bee:	79a3      	ldrb	r3, [r4, #6]
10008bf0:	9304      	str	r3, [sp, #16]
10008bf2:	001a      	movs	r2, r3
10008bf4:	7873      	ldrb	r3, [r6, #1]
10008bf6:	2b00      	cmp	r3, #0
10008bf8:	d102      	bne.n	10008c00 <tud_task+0x484>
10008bfa:	2a00      	cmp	r2, #0
10008bfc:	d000      	beq.n	10008c00 <tud_task+0x484>
10008bfe:	e0d5      	b.n	10008dac <tud_task+0x630>
10008c00:	466b      	mov	r3, sp
10008c02:	7c1b      	ldrb	r3, [r3, #16]
10008c04:	a908      	add	r1, sp, #32
10008c06:	4650      	mov	r0, sl
10008c08:	7073      	strb	r3, [r6, #1]
10008c0a:	f000 fb67 	bl	100092dc <tud_control_status>
10008c0e:	e5c4      	b.n	1000879a <tud_task+0x1e>
10008c10:	7873      	ldrb	r3, [r6, #1]
10008c12:	aa06      	add	r2, sp, #24
10008c14:	3202      	adds	r2, #2
10008c16:	7013      	strb	r3, [r2, #0]
10008c18:	a908      	add	r1, sp, #32
10008c1a:	2301      	movs	r3, #1
10008c1c:	4650      	mov	r0, sl
10008c1e:	f000 fb75 	bl	1000930c <tud_control_xfer>
10008c22:	e5ba      	b.n	1000879a <tud_task+0x1e>
10008c24:	88e3      	ldrh	r3, [r4, #6]
10008c26:	b2d8      	uxtb	r0, r3
10008c28:	0a1b      	lsrs	r3, r3, #8
10008c2a:	2b0f      	cmp	r3, #15
10008c2c:	d900      	bls.n	10008c30 <tud_task+0x4b4>
10008c2e:	e743      	b.n	10008ab8 <tud_task+0x33c>
10008c30:	4a89      	ldr	r2, [pc, #548]	; (10008e58 <tud_task+0x6dc>)
10008c32:	009b      	lsls	r3, r3, #2
10008c34:	58d3      	ldr	r3, [r2, r3]
10008c36:	469f      	mov	pc, r3
10008c38:	a808      	add	r0, sp, #32
10008c3a:	f000 fbcd 	bl	100093d8 <usbd_control_set_request>
10008c3e:	79a1      	ldrb	r1, [r4, #6]
10008c40:	4650      	mov	r0, sl
10008c42:	f7ff f9c7 	bl	10007fd4 <dcd_set_address>
10008c46:	2202      	movs	r2, #2
10008c48:	7833      	ldrb	r3, [r6, #0]
10008c4a:	4313      	orrs	r3, r2
10008c4c:	7033      	strb	r3, [r6, #0]
10008c4e:	e5a4      	b.n	1000879a <tud_task+0x1e>
10008c50:	88e3      	ldrh	r3, [r4, #6]
10008c52:	2b01      	cmp	r3, #1
10008c54:	d000      	beq.n	10008c58 <tud_task+0x4dc>
10008c56:	e72f      	b.n	10008ab8 <tud_task+0x33c>
10008c58:	2208      	movs	r2, #8
10008c5a:	7833      	ldrb	r3, [r6, #0]
10008c5c:	a908      	add	r1, sp, #32
10008c5e:	4313      	orrs	r3, r2
10008c60:	4650      	mov	r0, sl
10008c62:	7033      	strb	r3, [r6, #0]
10008c64:	f000 fb3a 	bl	100092dc <tud_control_status>
10008c68:	e597      	b.n	1000879a <tud_task+0x1e>
10008c6a:	88e3      	ldrh	r3, [r4, #6]
10008c6c:	2b01      	cmp	r3, #1
10008c6e:	d000      	beq.n	10008c72 <tud_task+0x4f6>
10008c70:	e722      	b.n	10008ab8 <tud_task+0x33c>
10008c72:	2208      	movs	r2, #8
10008c74:	7833      	ldrb	r3, [r6, #0]
10008c76:	a908      	add	r1, sp, #32
10008c78:	4393      	bics	r3, r2
10008c7a:	4650      	mov	r0, sl
10008c7c:	7033      	strb	r3, [r6, #0]
10008c7e:	f000 fb2d 	bl	100092dc <tud_control_status>
10008c82:	e58a      	b.n	1000879a <tud_task+0x1e>
10008c84:	7833      	ldrb	r3, [r6, #0]
10008c86:	aa06      	add	r2, sp, #24
10008c88:	0699      	lsls	r1, r3, #26
10008c8a:	071b      	lsls	r3, r3, #28
10008c8c:	0fdb      	lsrs	r3, r3, #31
10008c8e:	0fc9      	lsrs	r1, r1, #31
10008c90:	005b      	lsls	r3, r3, #1
10008c92:	430b      	orrs	r3, r1
10008c94:	3202      	adds	r2, #2
10008c96:	8013      	strh	r3, [r2, #0]
10008c98:	a908      	add	r1, sp, #32
10008c9a:	2302      	movs	r3, #2
10008c9c:	4650      	mov	r0, sl
10008c9e:	f000 fb35 	bl	1000930c <tud_control_xfer>
10008ca2:	e57a      	b.n	1000879a <tud_task+0x1e>
10008ca4:	8921      	ldrh	r1, [r4, #8]
10008ca6:	f7ff f8c7 	bl	10007e38 <tud_descriptor_string_cb>
10008caa:	1e02      	subs	r2, r0, #0
10008cac:	d000      	beq.n	10008cb0 <tud_task+0x534>
10008cae:	e6fb      	b.n	10008aa8 <tud_task+0x32c>
10008cb0:	e702      	b.n	10008ab8 <tud_task+0x33c>
10008cb2:	f7ff f8bd 	bl	10007e30 <tud_descriptor_configuration_cb>
10008cb6:	1e05      	subs	r5, r0, #0
10008cb8:	d100      	bne.n	10008cbc <tud_task+0x540>
10008cba:	e6fd      	b.n	10008ab8 <tud_task+0x33c>
10008cbc:	ab06      	add	r3, sp, #24
10008cbe:	1c9e      	adds	r6, r3, #2
10008cc0:	1c81      	adds	r1, r0, #2
10008cc2:	2202      	movs	r2, #2
10008cc4:	0030      	movs	r0, r6
10008cc6:	f7fe fd61 	bl	1000778c <__wrap___aeabi_memcpy>
10008cca:	8833      	ldrh	r3, [r6, #0]
10008ccc:	002a      	movs	r2, r5
10008cce:	a908      	add	r1, sp, #32
10008cd0:	4650      	mov	r0, sl
10008cd2:	f000 fb1b 	bl	1000930c <tud_control_xfer>
10008cd6:	2800      	cmp	r0, #0
10008cd8:	d000      	beq.n	10008cdc <tud_task+0x560>
10008cda:	e55e      	b.n	1000879a <tud_task+0x1e>
10008cdc:	e6ec      	b.n	10008ab8 <tud_task+0x33c>
10008cde:	f7ff f8a3 	bl	10007e28 <tud_descriptor_device_cb>
10008ce2:	2312      	movs	r3, #18
10008ce4:	0002      	movs	r2, r0
10008ce6:	a908      	add	r1, sp, #32
10008ce8:	4650      	mov	r0, sl
10008cea:	f000 fb0f 	bl	1000930c <tud_control_xfer>
10008cee:	e7f2      	b.n	10008cd6 <tud_task+0x55a>
10008cf0:	2260      	movs	r2, #96	; 0x60
10008cf2:	7923      	ldrb	r3, [r4, #4]
10008cf4:	421a      	tst	r2, r3
10008cf6:	d000      	beq.n	10008cfa <tud_task+0x57e>
10008cf8:	e71c      	b.n	10008b34 <tud_task+0x3b8>
10008cfa:	2000      	movs	r0, #0
10008cfc:	f000 fb66 	bl	100093cc <usbd_control_set_complete_callback>
10008d00:	e718      	b.n	10008b34 <tud_task+0x3b8>
10008d02:	1a9b      	subs	r3, r3, r2
10008d04:	b2db      	uxtb	r3, r3
10008d06:	2b00      	cmp	r3, #0
10008d08:	d1f2      	bne.n	10008cf0 <tud_task+0x574>
10008d0a:	4851      	ldr	r0, [pc, #324]	; (10008e50 <tud_task+0x6d4>)
10008d0c:	4e51      	ldr	r6, [pc, #324]	; (10008e54 <tud_task+0x6d8>)
10008d0e:	e5dd      	b.n	100088cc <tud_task+0x150>
10008d10:	7a23      	ldrb	r3, [r4, #8]
10008d12:	2b0f      	cmp	r3, #15
10008d14:	d900      	bls.n	10008d18 <tud_task+0x59c>
10008d16:	e6cf      	b.n	10008ab8 <tud_task+0x33c>
10008d18:	4a49      	ldr	r2, [pc, #292]	; (10008e40 <tud_task+0x6c4>)
10008d1a:	18f6      	adds	r6, r6, r3
10008d1c:	78f3      	ldrb	r3, [r6, #3]
10008d1e:	2a00      	cmp	r2, #0
10008d20:	d017      	beq.n	10008d52 <tud_task+0x5d6>
10008d22:	4a48      	ldr	r2, [pc, #288]	; (10008e44 <tud_task+0x6c8>)
10008d24:	7812      	ldrb	r2, [r2, #0]
10008d26:	4293      	cmp	r3, r2
10008d28:	d211      	bcs.n	10008d4e <tud_task+0x5d2>
10008d2a:	4a47      	ldr	r2, [pc, #284]	; (10008e48 <tud_task+0x6cc>)
10008d2c:	00dd      	lsls	r5, r3, #3
10008d2e:	1aeb      	subs	r3, r5, r3
10008d30:	6815      	ldr	r5, [r2, #0]
10008d32:	009b      	lsls	r3, r3, #2
10008d34:	18ed      	adds	r5, r5, r3
10008d36:	2d00      	cmp	r5, #0
10008d38:	d100      	bne.n	10008d3c <tud_task+0x5c0>
10008d3a:	e6bd      	b.n	10008ab8 <tud_task+0x33c>
10008d3c:	6928      	ldr	r0, [r5, #16]
10008d3e:	f000 fb45 	bl	100093cc <usbd_control_set_complete_callback>
10008d42:	68eb      	ldr	r3, [r5, #12]
10008d44:	a908      	add	r1, sp, #32
10008d46:	4650      	mov	r0, sl
10008d48:	4798      	blx	r3
10008d4a:	0005      	movs	r5, r0
10008d4c:	e6f2      	b.n	10008b34 <tud_task+0x3b8>
10008d4e:	1a9b      	subs	r3, r3, r2
10008d50:	b2db      	uxtb	r3, r3
10008d52:	2b00      	cmp	r3, #0
10008d54:	d000      	beq.n	10008d58 <tud_task+0x5dc>
10008d56:	e6af      	b.n	10008ab8 <tud_task+0x33c>
10008d58:	483d      	ldr	r0, [pc, #244]	; (10008e50 <tud_task+0x6d4>)
10008d5a:	4d3e      	ldr	r5, [pc, #248]	; (10008e54 <tud_task+0x6d8>)
10008d5c:	e7ef      	b.n	10008d3e <tud_task+0x5c2>
10008d5e:	4643      	mov	r3, r8
10008d60:	005b      	lsls	r3, r3, #1
10008d62:	4698      	mov	r8, r3
10008d64:	18f3      	adds	r3, r6, r3
10008d66:	444b      	add	r3, r9
10008d68:	3320      	adds	r3, #32
10008d6a:	795b      	ldrb	r3, [r3, #5]
10008d6c:	aa06      	add	r2, sp, #24
10008d6e:	079b      	lsls	r3, r3, #30
10008d70:	0fdb      	lsrs	r3, r3, #31
10008d72:	3202      	adds	r2, #2
10008d74:	8013      	strh	r3, [r2, #0]
10008d76:	a908      	add	r1, sp, #32
10008d78:	2302      	movs	r3, #2
10008d7a:	4650      	mov	r0, sl
10008d7c:	f000 fac6 	bl	1000930c <tud_control_xfer>
10008d80:	e58e      	b.n	100088a0 <tud_task+0x124>
10008d82:	88e3      	ldrh	r3, [r4, #6]
10008d84:	2b00      	cmp	r3, #0
10008d86:	d000      	beq.n	10008d8a <tud_task+0x60e>
10008d88:	e729      	b.n	10008bde <tud_task+0x462>
10008d8a:	4650      	mov	r0, sl
10008d8c:	f7ff fa9a 	bl	100082c4 <dcd_edpt_clear_stall>
10008d90:	4643      	mov	r3, r8
10008d92:	005b      	lsls	r3, r3, #1
10008d94:	4698      	mov	r8, r3
10008d96:	18f3      	adds	r3, r6, r3
10008d98:	444b      	add	r3, r9
10008d9a:	3320      	adds	r3, #32
10008d9c:	795a      	ldrb	r2, [r3, #5]
10008d9e:	9900      	ldr	r1, [sp, #0]
10008da0:	43ba      	bics	r2, r7
10008da2:	715a      	strb	r2, [r3, #5]
10008da4:	795a      	ldrb	r2, [r3, #5]
10008da6:	438a      	bics	r2, r1
10008da8:	715a      	strb	r2, [r3, #5]
10008daa:	e71b      	b.n	10008be4 <tud_task+0x468>
10008dac:	1e50      	subs	r0, r2, #1
10008dae:	b2c0      	uxtb	r0, r0
10008db0:	f7ff f83e 	bl	10007e30 <tud_descriptor_configuration_cb>
10008db4:	2800      	cmp	r0, #0
10008db6:	d100      	bne.n	10008dba <tud_task+0x63e>
10008db8:	e67e      	b.n	10008ab8 <tud_task+0x33c>
10008dba:	7843      	ldrb	r3, [r0, #1]
10008dbc:	2b02      	cmp	r3, #2
10008dbe:	d000      	beq.n	10008dc2 <tud_task+0x646>
10008dc0:	e67a      	b.n	10008ab8 <tud_task+0x33c>
10008dc2:	2201      	movs	r2, #1
10008dc4:	79c1      	ldrb	r1, [r0, #7]
10008dc6:	2710      	movs	r7, #16
10008dc8:	094b      	lsrs	r3, r1, #5
10008dca:	0989      	lsrs	r1, r1, #6
10008dcc:	4013      	ands	r3, r2
10008dce:	400a      	ands	r2, r1
10008dd0:	2120      	movs	r1, #32
10008dd2:	011d      	lsls	r5, r3, #4
10008dd4:	7833      	ldrb	r3, [r6, #0]
10008dd6:	0152      	lsls	r2, r2, #5
10008dd8:	43bb      	bics	r3, r7
10008dda:	432b      	orrs	r3, r5
10008ddc:	438b      	bics	r3, r1
10008dde:	4313      	orrs	r3, r2
10008de0:	7033      	strb	r3, [r6, #0]
10008de2:	2309      	movs	r3, #9
10008de4:	4698      	mov	r8, r3
10008de6:	78c3      	ldrb	r3, [r0, #3]
10008de8:	7882      	ldrb	r2, [r0, #2]
10008dea:	021b      	lsls	r3, r3, #8
10008dec:	4313      	orrs	r3, r2
10008dee:	18c3      	adds	r3, r0, r3
10008df0:	4480      	add	r8, r0
10008df2:	9305      	str	r3, [sp, #20]
10008df4:	4598      	cmp	r8, r3
10008df6:	d300      	bcc.n	10008dfa <tud_task+0x67e>
10008df8:	e0bb      	b.n	10008f72 <tud_task+0x7f6>
10008dfa:	4b12      	ldr	r3, [pc, #72]	; (10008e44 <tud_task+0x6c8>)
10008dfc:	4647      	mov	r7, r8
10008dfe:	4699      	mov	r9, r3
10008e00:	46b0      	mov	r8, r6
10008e02:	2300      	movs	r3, #0
10008e04:	787a      	ldrb	r2, [r7, #1]
10008e06:	9302      	str	r3, [sp, #8]
10008e08:	2a0b      	cmp	r2, #11
10008e0a:	d104      	bne.n	10008e16 <tud_task+0x69a>
10008e0c:	783b      	ldrb	r3, [r7, #0]
10008e0e:	9702      	str	r7, [sp, #8]
10008e10:	18fb      	adds	r3, r7, r3
10008e12:	001f      	movs	r7, r3
10008e14:	785a      	ldrb	r2, [r3, #1]
10008e16:	2a04      	cmp	r2, #4
10008e18:	d000      	beq.n	10008e1c <tud_task+0x6a0>
10008e1a:	e64d      	b.n	10008ab8 <tud_task+0x33c>
10008e1c:	9b05      	ldr	r3, [sp, #20]
10008e1e:	4a08      	ldr	r2, [pc, #32]	; (10008e40 <tud_task+0x6c4>)
10008e20:	1bdb      	subs	r3, r3, r7
10008e22:	b29b      	uxth	r3, r3
10008e24:	9300      	str	r3, [sp, #0]
10008e26:	464b      	mov	r3, r9
10008e28:	781b      	ldrb	r3, [r3, #0]
10008e2a:	2a00      	cmp	r2, #0
10008e2c:	d032      	beq.n	10008e94 <tud_task+0x718>
10008e2e:	2200      	movs	r2, #0
10008e30:	2500      	movs	r5, #0
10008e32:	9201      	str	r2, [sp, #4]
10008e34:	4656      	mov	r6, sl
10008e36:	e028      	b.n	10008e8a <tud_task+0x70e>
	...
10008e44:	20001660 	.word	0x20001660
10008e48:	20000bb8 	.word	0x20000bb8
10008e4c:	1000ba80 	.word	0x1000ba80
10008e50:	10009879 	.word	0x10009879
10008e54:	1000bae8 	.word	0x1000bae8
10008e58:	1000baa8 	.word	0x1000baa8
10008e5c:	4a55      	ldr	r2, [pc, #340]	; (10008fb4 <tud_task+0x838>)
10008e5e:	00eb      	lsls	r3, r5, #3
10008e60:	6812      	ldr	r2, [r2, #0]
10008e62:	1b5b      	subs	r3, r3, r5
10008e64:	4694      	mov	ip, r2
10008e66:	009b      	lsls	r3, r3, #2
10008e68:	4463      	add	r3, ip
10008e6a:	689b      	ldr	r3, [r3, #8]
10008e6c:	9203      	str	r2, [sp, #12]
10008e6e:	9a00      	ldr	r2, [sp, #0]
10008e70:	0039      	movs	r1, r7
10008e72:	0030      	movs	r0, r6
10008e74:	4798      	blx	r3
10008e76:	2800      	cmp	r0, #0
10008e78:	d12e      	bne.n	10008ed8 <tud_task+0x75c>
10008e7a:	464b      	mov	r3, r9
10008e7c:	3501      	adds	r5, #1
10008e7e:	781b      	ldrb	r3, [r3, #0]
10008e80:	b2ed      	uxtb	r5, r5
10008e82:	9501      	str	r5, [sp, #4]
10008e84:	42ab      	cmp	r3, r5
10008e86:	da00      	bge.n	10008e8a <tud_task+0x70e>
10008e88:	e616      	b.n	10008ab8 <tud_task+0x33c>
10008e8a:	42ab      	cmp	r3, r5
10008e8c:	d8e6      	bhi.n	10008e5c <tud_task+0x6e0>
10008e8e:	d10e      	bne.n	10008eae <tud_task+0x732>
10008e90:	4b49      	ldr	r3, [pc, #292]	; (10008fb8 <tud_task+0x83c>)
10008e92:	e7ec      	b.n	10008e6e <tud_task+0x6f2>
10008e94:	9a00      	ldr	r2, [sp, #0]
10008e96:	0039      	movs	r1, r7
10008e98:	4650      	mov	r0, sl
10008e9a:	f000 fc77 	bl	1000978c <cdcd_open>
10008e9e:	1e06      	subs	r6, r0, #0
10008ea0:	d000      	beq.n	10008ea4 <tud_task+0x728>
10008ea2:	e082      	b.n	10008faa <tud_task+0x82e>
10008ea4:	464b      	mov	r3, r9
10008ea6:	781b      	ldrb	r3, [r3, #0]
10008ea8:	2b00      	cmp	r3, #0
10008eaa:	d100      	bne.n	10008eae <tud_task+0x732>
10008eac:	e604      	b.n	10008ab8 <tud_task+0x33c>
10008eae:	2300      	movs	r3, #0
10008eb0:	689b      	ldr	r3, [r3, #8]
10008eb2:	deff      	udf	#255	; 0xff
10008eb4:	4650      	mov	r0, sl
10008eb6:	f7ff f9dd 	bl	10008274 <dcd_edpt_stall>
10008eba:	4643      	mov	r3, r8
10008ebc:	2102      	movs	r1, #2
10008ebe:	005b      	lsls	r3, r3, #1
10008ec0:	4698      	mov	r8, r3
10008ec2:	18f3      	adds	r3, r6, r3
10008ec4:	444b      	add	r3, r9
10008ec6:	3320      	adds	r3, #32
10008ec8:	795a      	ldrb	r2, [r3, #5]
10008eca:	430a      	orrs	r2, r1
10008ecc:	2101      	movs	r1, #1
10008ece:	715a      	strb	r2, [r3, #5]
10008ed0:	795a      	ldrb	r2, [r3, #5]
10008ed2:	430a      	orrs	r2, r1
10008ed4:	715a      	strb	r2, [r3, #5]
10008ed6:	e685      	b.n	10008be4 <tud_task+0x468>
10008ed8:	46b2      	mov	sl, r6
10008eda:	0006      	movs	r6, r0
10008edc:	2e08      	cmp	r6, #8
10008ede:	d800      	bhi.n	10008ee2 <tud_task+0x766>
10008ee0:	e5ea      	b.n	10008ab8 <tud_task+0x33c>
10008ee2:	9b00      	ldr	r3, [sp, #0]
10008ee4:	42b3      	cmp	r3, r6
10008ee6:	d200      	bcs.n	10008eea <tud_task+0x76e>
10008ee8:	e5e6      	b.n	10008ab8 <tud_task+0x33c>
10008eea:	4642      	mov	r2, r8
10008eec:	78bb      	ldrb	r3, [r7, #2]
10008eee:	18d2      	adds	r2, r2, r3
10008ef0:	78d1      	ldrb	r1, [r2, #3]
10008ef2:	29ff      	cmp	r1, #255	; 0xff
10008ef4:	d000      	beq.n	10008ef8 <tud_task+0x77c>
10008ef6:	e5df      	b.n	10008ab8 <tud_task+0x33c>
10008ef8:	70d5      	strb	r5, [r2, #3]
10008efa:	9a02      	ldr	r2, [sp, #8]
10008efc:	2a00      	cmp	r2, #0
10008efe:	d015      	beq.n	10008f2c <tud_task+0x7b0>
10008f00:	7891      	ldrb	r1, [r2, #2]
10008f02:	0010      	movs	r0, r2
10008f04:	4299      	cmp	r1, r3
10008f06:	d000      	beq.n	10008f0a <tud_task+0x78e>
10008f08:	e5d6      	b.n	10008ab8 <tud_task+0x33c>
10008f0a:	7912      	ldrb	r2, [r2, #4]
10008f0c:	797b      	ldrb	r3, [r7, #5]
10008f0e:	429a      	cmp	r2, r3
10008f10:	d000      	beq.n	10008f14 <tud_task+0x798>
10008f12:	e5d1      	b.n	10008ab8 <tud_task+0x33c>
10008f14:	78c2      	ldrb	r2, [r0, #3]
10008f16:	2a01      	cmp	r2, #1
10008f18:	d908      	bls.n	10008f2c <tud_task+0x7b0>
10008f1a:	3a02      	subs	r2, #2
10008f1c:	3104      	adds	r1, #4
10008f1e:	4441      	add	r1, r8
10008f20:	b2d2      	uxtb	r2, r2
10008f22:	0008      	movs	r0, r1
10008f24:	3201      	adds	r2, #1
10008f26:	0029      	movs	r1, r5
10008f28:	f7fe fc2a 	bl	10007780 <__wrap_memset>
10008f2c:	003a      	movs	r2, r7
10008f2e:	2300      	movs	r3, #0
10008f30:	e005      	b.n	10008f3e <tud_task+0x7c2>
10008f32:	7811      	ldrb	r1, [r2, #0]
10008f34:	185b      	adds	r3, r3, r1
10008f36:	b29b      	uxth	r3, r3
10008f38:	1852      	adds	r2, r2, r1
10008f3a:	42b3      	cmp	r3, r6
10008f3c:	d20d      	bcs.n	10008f5a <tud_task+0x7de>
10008f3e:	7851      	ldrb	r1, [r2, #1]
10008f40:	2905      	cmp	r1, #5
10008f42:	d1f6      	bne.n	10008f32 <tud_task+0x7b6>
10008f44:	7891      	ldrb	r1, [r2, #2]
10008f46:	207f      	movs	r0, #127	; 0x7f
10008f48:	468c      	mov	ip, r1
10008f4a:	4001      	ands	r1, r0
10008f4c:	4660      	mov	r0, ip
10008f4e:	0049      	lsls	r1, r1, #1
10008f50:	4441      	add	r1, r8
10008f52:	3113      	adds	r1, #19
10008f54:	09c0      	lsrs	r0, r0, #7
10008f56:	540d      	strb	r5, [r1, r0]
10008f58:	e7eb      	b.n	10008f32 <tud_task+0x7b6>
10008f5a:	464b      	mov	r3, r9
10008f5c:	9a01      	ldr	r2, [sp, #4]
10008f5e:	781b      	ldrb	r3, [r3, #0]
10008f60:	19bf      	adds	r7, r7, r6
10008f62:	4293      	cmp	r3, r2
10008f64:	da00      	bge.n	10008f68 <tud_task+0x7ec>
10008f66:	e5a7      	b.n	10008ab8 <tud_task+0x33c>
10008f68:	9b05      	ldr	r3, [sp, #20]
10008f6a:	42bb      	cmp	r3, r7
10008f6c:	d900      	bls.n	10008f70 <tud_task+0x7f4>
10008f6e:	e748      	b.n	10008e02 <tud_task+0x686>
10008f70:	4646      	mov	r6, r8
10008f72:	4b12      	ldr	r3, [pc, #72]	; (10008fbc <tud_task+0x840>)
10008f74:	2b00      	cmp	r3, #0
10008f76:	d100      	bne.n	10008f7a <tud_task+0x7fe>
10008f78:	e642      	b.n	10008c00 <tud_task+0x484>
10008f7a:	e000      	b.n	10008f7e <tud_task+0x802>
10008f7c:	bf00      	nop
10008f7e:	e63f      	b.n	10008c00 <tud_task+0x484>
10008f80:	4b0f      	ldr	r3, [pc, #60]	; (10008fc0 <tud_task+0x844>)
10008f82:	2b00      	cmp	r3, #0
10008f84:	d100      	bne.n	10008f88 <tud_task+0x80c>
10008f86:	e597      	b.n	10008ab8 <tud_task+0x33c>
10008f88:	e000      	b.n	10008f8c <tud_task+0x810>
10008f8a:	bf00      	nop
10008f8c:	0005      	movs	r5, r0
10008f8e:	ab06      	add	r3, sp, #24
10008f90:	1c9e      	adds	r6, r3, #2
10008f92:	1c81      	adds	r1, r0, #2
10008f94:	2202      	movs	r2, #2
10008f96:	0030      	movs	r0, r6
10008f98:	f7fe fbf8 	bl	1000778c <__wrap___aeabi_memcpy>
10008f9c:	8833      	ldrh	r3, [r6, #0]
10008f9e:	002a      	movs	r2, r5
10008fa0:	a908      	add	r1, sp, #32
10008fa2:	4650      	mov	r0, sl
10008fa4:	f000 f9b2 	bl	1000930c <tud_control_xfer>
10008fa8:	e583      	b.n	10008ab2 <tud_task+0x336>
10008faa:	2300      	movs	r3, #0
10008fac:	2500      	movs	r5, #0
10008fae:	9301      	str	r3, [sp, #4]
10008fb0:	e794      	b.n	10008edc <tud_task+0x760>
10008fb2:	46c0      	nop			; (mov r8, r8)
10008fb4:	20000bb8 	.word	0x20000bb8
10008fb8:	1000978d 	.word	0x1000978d
	...

10008fc4 <dcd_event_bus_signal>:
10008fc4:	b570      	push	{r4, r5, r6, lr}
10008fc6:	0006      	movs	r6, r0
10008fc8:	000c      	movs	r4, r1
10008fca:	b084      	sub	sp, #16
10008fcc:	ad01      	add	r5, sp, #4
10008fce:	220c      	movs	r2, #12
10008fd0:	2100      	movs	r1, #0
10008fd2:	0028      	movs	r0, r5
10008fd4:	f7fe fbd4 	bl	10007780 <__wrap_memset>
10008fd8:	702e      	strb	r6, [r5, #0]
10008fda:	706c      	strb	r4, [r5, #1]
10008fdc:	2c03      	cmp	r4, #3
10008fde:	d008      	beq.n	10008ff2 <dcd_event_bus_signal+0x2e>
10008fe0:	d91b      	bls.n	1000901a <dcd_event_bus_signal+0x56>
10008fe2:	2c04      	cmp	r4, #4
10008fe4:	d007      	beq.n	10008ff6 <dcd_event_bus_signal+0x32>
10008fe6:	2c05      	cmp	r4, #5
10008fe8:	d140      	bne.n	1000906c <dcd_event_bus_signal+0xa8>
10008fea:	4b2c      	ldr	r3, [pc, #176]	; (1000909c <dcd_event_bus_signal+0xd8>)
10008fec:	781a      	ldrb	r2, [r3, #0]
10008fee:	07d2      	lsls	r2, r2, #31
10008ff0:	d446      	bmi.n	10009080 <dcd_event_bus_signal+0xbc>
10008ff2:	b004      	add	sp, #16
10008ff4:	bd70      	pop	{r4, r5, r6, pc}
10008ff6:	4b29      	ldr	r3, [pc, #164]	; (1000909c <dcd_event_bus_signal+0xd8>)
10008ff8:	781a      	ldrb	r2, [r3, #0]
10008ffa:	07d2      	lsls	r2, r2, #31
10008ffc:	d5f9      	bpl.n	10008ff2 <dcd_event_bus_signal+0x2e>
10008ffe:	2104      	movs	r1, #4
10009000:	781a      	ldrb	r2, [r3, #0]
10009002:	430a      	orrs	r2, r1
10009004:	701a      	strb	r2, [r3, #0]
10009006:	4b26      	ldr	r3, [pc, #152]	; (100090a0 <dcd_event_bus_signal+0xdc>)
10009008:	681c      	ldr	r4, [r3, #0]
1000900a:	69a2      	ldr	r2, [r4, #24]
1000900c:	f3ef 8110 	mrs	r1, PRIMASK
10009010:	b672      	cpsid	i
10009012:	6813      	ldr	r3, [r2, #0]
10009014:	2b00      	cmp	r3, #0
10009016:	d119      	bne.n	1000904c <dcd_event_bus_signal+0x88>
10009018:	e7fb      	b.n	10009012 <dcd_event_bus_signal+0x4e>
1000901a:	2c02      	cmp	r4, #2
1000901c:	d126      	bne.n	1000906c <dcd_event_bus_signal+0xa8>
1000901e:	2101      	movs	r1, #1
10009020:	4b1e      	ldr	r3, [pc, #120]	; (1000909c <dcd_event_bus_signal+0xd8>)
10009022:	781a      	ldrb	r2, [r3, #0]
10009024:	438a      	bics	r2, r1
10009026:	701a      	strb	r2, [r3, #0]
10009028:	781a      	ldrb	r2, [r3, #0]
1000902a:	3103      	adds	r1, #3
1000902c:	43a2      	bics	r2, r4
1000902e:	701a      	strb	r2, [r3, #0]
10009030:	2200      	movs	r2, #0
10009032:	705a      	strb	r2, [r3, #1]
10009034:	781a      	ldrb	r2, [r3, #0]
10009036:	438a      	bics	r2, r1
10009038:	701a      	strb	r2, [r3, #0]
1000903a:	4b19      	ldr	r3, [pc, #100]	; (100090a0 <dcd_event_bus_signal+0xdc>)
1000903c:	681c      	ldr	r4, [r3, #0]
1000903e:	69a2      	ldr	r2, [r4, #24]
10009040:	f3ef 8110 	mrs	r1, PRIMASK
10009044:	b672      	cpsid	i
10009046:	6813      	ldr	r3, [r2, #0]
10009048:	2b00      	cmp	r3, #0
1000904a:	d0fc      	beq.n	10009046 <dcd_event_bus_signal+0x82>
1000904c:	f3bf 8f5f 	dmb	sy
10009050:	61e1      	str	r1, [r4, #28]
10009052:	0020      	movs	r0, r4
10009054:	0029      	movs	r1, r5
10009056:	f000 fe67 	bl	10009d28 <tu_fifo_write>
1000905a:	69a2      	ldr	r2, [r4, #24]
1000905c:	69e3      	ldr	r3, [r4, #28]
1000905e:	f3bf 8f5f 	dmb	sy
10009062:	2100      	movs	r1, #0
10009064:	6011      	str	r1, [r2, #0]
10009066:	f383 8810 	msr	PRIMASK, r3
1000906a:	e7c2      	b.n	10008ff2 <dcd_event_bus_signal+0x2e>
1000906c:	4b0c      	ldr	r3, [pc, #48]	; (100090a0 <dcd_event_bus_signal+0xdc>)
1000906e:	681c      	ldr	r4, [r3, #0]
10009070:	69a2      	ldr	r2, [r4, #24]
10009072:	f3ef 8110 	mrs	r1, PRIMASK
10009076:	b672      	cpsid	i
10009078:	6813      	ldr	r3, [r2, #0]
1000907a:	2b00      	cmp	r3, #0
1000907c:	d1e6      	bne.n	1000904c <dcd_event_bus_signal+0x88>
1000907e:	e7fb      	b.n	10009078 <dcd_event_bus_signal+0xb4>
10009080:	2104      	movs	r1, #4
10009082:	781a      	ldrb	r2, [r3, #0]
10009084:	438a      	bics	r2, r1
10009086:	701a      	strb	r2, [r3, #0]
10009088:	4b05      	ldr	r3, [pc, #20]	; (100090a0 <dcd_event_bus_signal+0xdc>)
1000908a:	681c      	ldr	r4, [r3, #0]
1000908c:	69a2      	ldr	r2, [r4, #24]
1000908e:	f3ef 8110 	mrs	r1, PRIMASK
10009092:	b672      	cpsid	i
10009094:	6813      	ldr	r3, [r2, #0]
10009096:	2b00      	cmp	r3, #0
10009098:	d1d8      	bne.n	1000904c <dcd_event_bus_signal+0x88>
1000909a:	e7fb      	b.n	10009094 <dcd_event_bus_signal+0xd0>
1000909c:	20000ef0 	.word	0x20000ef0
100090a0:	20000f2c 	.word	0x20000f2c

100090a4 <dcd_event_setup_received>:
100090a4:	b570      	push	{r4, r5, r6, lr}
100090a6:	b084      	sub	sp, #16
100090a8:	ad01      	add	r5, sp, #4
100090aa:	0006      	movs	r6, r0
100090ac:	000c      	movs	r4, r1
100090ae:	220c      	movs	r2, #12
100090b0:	2100      	movs	r1, #0
100090b2:	0028      	movs	r0, r5
100090b4:	f7fe fb64 	bl	10007780 <__wrap_memset>
100090b8:	2306      	movs	r3, #6
100090ba:	0021      	movs	r1, r4
100090bc:	2208      	movs	r2, #8
100090be:	a802      	add	r0, sp, #8
100090c0:	706b      	strb	r3, [r5, #1]
100090c2:	702e      	strb	r6, [r5, #0]
100090c4:	f7fe fb62 	bl	1000778c <__wrap___aeabi_memcpy>
100090c8:	4b0c      	ldr	r3, [pc, #48]	; (100090fc <dcd_event_setup_received+0x58>)
100090ca:	681c      	ldr	r4, [r3, #0]
100090cc:	69a2      	ldr	r2, [r4, #24]
100090ce:	f3ef 8310 	mrs	r3, PRIMASK
100090d2:	b672      	cpsid	i
100090d4:	6811      	ldr	r1, [r2, #0]
100090d6:	2900      	cmp	r1, #0
100090d8:	d0fc      	beq.n	100090d4 <dcd_event_setup_received+0x30>
100090da:	f3bf 8f5f 	dmb	sy
100090de:	61e3      	str	r3, [r4, #28]
100090e0:	0029      	movs	r1, r5
100090e2:	0020      	movs	r0, r4
100090e4:	f000 fe20 	bl	10009d28 <tu_fifo_write>
100090e8:	69a2      	ldr	r2, [r4, #24]
100090ea:	69e3      	ldr	r3, [r4, #28]
100090ec:	f3bf 8f5f 	dmb	sy
100090f0:	2100      	movs	r1, #0
100090f2:	6011      	str	r1, [r2, #0]
100090f4:	f383 8810 	msr	PRIMASK, r3
100090f8:	b004      	add	sp, #16
100090fa:	bd70      	pop	{r4, r5, r6, pc}
100090fc:	20000f2c 	.word	0x20000f2c

10009100 <dcd_event_xfer_complete>:
10009100:	b5f0      	push	{r4, r5, r6, r7, lr}
10009102:	46c6      	mov	lr, r8
10009104:	4680      	mov	r8, r0
10009106:	b500      	push	{lr}
10009108:	b084      	sub	sp, #16
1000910a:	ac01      	add	r4, sp, #4
1000910c:	000f      	movs	r7, r1
1000910e:	0016      	movs	r6, r2
10009110:	2100      	movs	r1, #0
10009112:	220c      	movs	r2, #12
10009114:	0020      	movs	r0, r4
10009116:	001d      	movs	r5, r3
10009118:	f7fe fb32 	bl	10007780 <__wrap_memset>
1000911c:	4643      	mov	r3, r8
1000911e:	7023      	strb	r3, [r4, #0]
10009120:	2307      	movs	r3, #7
10009122:	7063      	strb	r3, [r4, #1]
10009124:	4b0f      	ldr	r3, [pc, #60]	; (10009164 <dcd_event_xfer_complete+0x64>)
10009126:	7165      	strb	r5, [r4, #5]
10009128:	681d      	ldr	r5, [r3, #0]
1000912a:	7127      	strb	r7, [r4, #4]
1000912c:	60a6      	str	r6, [r4, #8]
1000912e:	69aa      	ldr	r2, [r5, #24]
10009130:	f3ef 8310 	mrs	r3, PRIMASK
10009134:	b672      	cpsid	i
10009136:	6811      	ldr	r1, [r2, #0]
10009138:	2900      	cmp	r1, #0
1000913a:	d0fc      	beq.n	10009136 <dcd_event_xfer_complete+0x36>
1000913c:	f3bf 8f5f 	dmb	sy
10009140:	61eb      	str	r3, [r5, #28]
10009142:	0021      	movs	r1, r4
10009144:	0028      	movs	r0, r5
10009146:	f000 fdef 	bl	10009d28 <tu_fifo_write>
1000914a:	69aa      	ldr	r2, [r5, #24]
1000914c:	69eb      	ldr	r3, [r5, #28]
1000914e:	f3bf 8f5f 	dmb	sy
10009152:	2100      	movs	r1, #0
10009154:	6011      	str	r1, [r2, #0]
10009156:	f383 8810 	msr	PRIMASK, r3
1000915a:	b004      	add	sp, #16
1000915c:	bc04      	pop	{r2}
1000915e:	4690      	mov	r8, r2
10009160:	bdf0      	pop	{r4, r5, r6, r7, pc}
10009162:	46c0      	nop			; (mov r8, r8)
10009164:	20000f2c 	.word	0x20000f2c

10009168 <usbd_open_edpt_pair>:
10009168:	b5f8      	push	{r3, r4, r5, r6, r7, lr}
1000916a:	46d6      	mov	lr, sl
1000916c:	4647      	mov	r7, r8
1000916e:	4690      	mov	r8, r2
10009170:	b580      	push	{r7, lr}
10009172:	9a08      	ldr	r2, [sp, #32]
10009174:	0006      	movs	r6, r0
10009176:	4692      	mov	sl, r2
10009178:	4642      	mov	r2, r8
1000917a:	000c      	movs	r4, r1
1000917c:	2a00      	cmp	r2, #0
1000917e:	d029      	beq.n	100091d4 <usbd_open_edpt_pair+0x6c>
10009180:	784a      	ldrb	r2, [r1, #1]
10009182:	2a05      	cmp	r2, #5
10009184:	d128      	bne.n	100091d8 <usbd_open_edpt_pair+0x70>
10009186:	78cf      	ldrb	r7, [r1, #3]
10009188:	07bf      	lsls	r7, r7, #30
1000918a:	0fbf      	lsrs	r7, r7, #30
1000918c:	42bb      	cmp	r3, r7
1000918e:	d123      	bne.n	100091d8 <usbd_open_edpt_pair+0x70>
10009190:	2500      	movs	r5, #0
10009192:	e00e      	b.n	100091b2 <usbd_open_edpt_pair+0x4a>
10009194:	4652      	mov	r2, sl
10009196:	7013      	strb	r3, [r2, #0]
10009198:	7823      	ldrb	r3, [r4, #0]
1000919a:	3501      	adds	r5, #1
1000919c:	18e4      	adds	r4, r4, r3
1000919e:	4545      	cmp	r5, r8
100091a0:	da18      	bge.n	100091d4 <usbd_open_edpt_pair+0x6c>
100091a2:	7863      	ldrb	r3, [r4, #1]
100091a4:	2b05      	cmp	r3, #5
100091a6:	d117      	bne.n	100091d8 <usbd_open_edpt_pair+0x70>
100091a8:	78e3      	ldrb	r3, [r4, #3]
100091aa:	079b      	lsls	r3, r3, #30
100091ac:	0f9b      	lsrs	r3, r3, #30
100091ae:	42bb      	cmp	r3, r7
100091b0:	d112      	bne.n	100091d8 <usbd_open_edpt_pair+0x70>
100091b2:	0021      	movs	r1, r4
100091b4:	0030      	movs	r0, r6
100091b6:	f7fe ff9f 	bl	100080f8 <dcd_edpt_open>
100091ba:	2800      	cmp	r0, #0
100091bc:	d00c      	beq.n	100091d8 <usbd_open_edpt_pair+0x70>
100091be:	78a3      	ldrb	r3, [r4, #2]
100091c0:	b25a      	sxtb	r2, r3
100091c2:	2a00      	cmp	r2, #0
100091c4:	dae6      	bge.n	10009194 <usbd_open_edpt_pair+0x2c>
100091c6:	9a09      	ldr	r2, [sp, #36]	; 0x24
100091c8:	3501      	adds	r5, #1
100091ca:	7013      	strb	r3, [r2, #0]
100091cc:	7823      	ldrb	r3, [r4, #0]
100091ce:	18e4      	adds	r4, r4, r3
100091d0:	4545      	cmp	r5, r8
100091d2:	dbe6      	blt.n	100091a2 <usbd_open_edpt_pair+0x3a>
100091d4:	2001      	movs	r0, #1
100091d6:	e000      	b.n	100091da <usbd_open_edpt_pair+0x72>
100091d8:	2000      	movs	r0, #0
100091da:	bc0c      	pop	{r2, r3}
100091dc:	4690      	mov	r8, r2
100091de:	469a      	mov	sl, r3
100091e0:	bdf8      	pop	{r3, r4, r5, r6, r7, pc}
100091e2:	46c0      	nop			; (mov r8, r8)

100091e4 <usbd_edpt_open>:
100091e4:	b510      	push	{r4, lr}
100091e6:	f7fe ff87 	bl	100080f8 <dcd_edpt_open>
100091ea:	bd10      	pop	{r4, pc}

100091ec <usbd_edpt_claim>:
100091ec:	237f      	movs	r3, #127	; 0x7f
100091ee:	b570      	push	{r4, r5, r6, lr}
100091f0:	400b      	ands	r3, r1
100091f2:	4c13      	ldr	r4, [pc, #76]	; (10009240 <usbd_edpt_claim+0x54>)
100091f4:	005b      	lsls	r3, r3, #1
100091f6:	09c9      	lsrs	r1, r1, #7
100091f8:	18e4      	adds	r4, r4, r3
100091fa:	1864      	adds	r4, r4, r1
100091fc:	3420      	adds	r4, #32
100091fe:	7960      	ldrb	r0, [r4, #5]
10009200:	07c0      	lsls	r0, r0, #31
10009202:	0fc0      	lsrs	r0, r0, #31
10009204:	d11a      	bne.n	1000923c <usbd_edpt_claim+0x50>
10009206:	7963      	ldrb	r3, [r4, #5]
10009208:	075b      	lsls	r3, r3, #29
1000920a:	d500      	bpl.n	1000920e <usbd_edpt_claim+0x22>
1000920c:	bd70      	pop	{r4, r5, r6, pc}
1000920e:	2101      	movs	r1, #1
10009210:	4e0c      	ldr	r6, [pc, #48]	; (10009244 <usbd_edpt_claim+0x58>)
10009212:	4249      	negs	r1, r1
10009214:	6830      	ldr	r0, [r6, #0]
10009216:	f002 f903 	bl	1000b420 <__mutex_enter_timeout_ms_veneer>
1000921a:	7963      	ldrb	r3, [r4, #5]
1000921c:	2500      	movs	r5, #0
1000921e:	07db      	lsls	r3, r3, #31
10009220:	d407      	bmi.n	10009232 <usbd_edpt_claim+0x46>
10009222:	7963      	ldrb	r3, [r4, #5]
10009224:	075b      	lsls	r3, r3, #29
10009226:	d404      	bmi.n	10009232 <usbd_edpt_claim+0x46>
10009228:	2204      	movs	r2, #4
1000922a:	2501      	movs	r5, #1
1000922c:	7963      	ldrb	r3, [r4, #5]
1000922e:	4313      	orrs	r3, r2
10009230:	7163      	strb	r3, [r4, #5]
10009232:	6830      	ldr	r0, [r6, #0]
10009234:	f002 f8d4 	bl	1000b3e0 <__mutex_exit_veneer>
10009238:	0028      	movs	r0, r5
1000923a:	e7e7      	b.n	1000920c <usbd_edpt_claim+0x20>
1000923c:	2000      	movs	r0, #0
1000923e:	e7e5      	b.n	1000920c <usbd_edpt_claim+0x20>
10009240:	20000ef0 	.word	0x20000ef0
10009244:	20000f28 	.word	0x20000f28

10009248 <usbd_edpt_release>:
10009248:	b570      	push	{r4, r5, r6, lr}
1000924a:	000d      	movs	r5, r1
1000924c:	2101      	movs	r1, #1
1000924e:	4c0f      	ldr	r4, [pc, #60]	; (1000928c <usbd_edpt_release+0x44>)
10009250:	4249      	negs	r1, r1
10009252:	6820      	ldr	r0, [r4, #0]
10009254:	f002 f8e4 	bl	1000b420 <__mutex_enter_timeout_ms_veneer>
10009258:	217f      	movs	r1, #127	; 0x7f
1000925a:	4029      	ands	r1, r5
1000925c:	004b      	lsls	r3, r1, #1
1000925e:	490c      	ldr	r1, [pc, #48]	; (10009290 <usbd_edpt_release+0x48>)
10009260:	09ed      	lsrs	r5, r5, #7
10009262:	18c9      	adds	r1, r1, r3
10009264:	1949      	adds	r1, r1, r5
10009266:	3120      	adds	r1, #32
10009268:	794b      	ldrb	r3, [r1, #5]
1000926a:	2500      	movs	r5, #0
1000926c:	07db      	lsls	r3, r3, #31
1000926e:	d407      	bmi.n	10009280 <usbd_edpt_release+0x38>
10009270:	794b      	ldrb	r3, [r1, #5]
10009272:	075b      	lsls	r3, r3, #29
10009274:	d504      	bpl.n	10009280 <usbd_edpt_release+0x38>
10009276:	2204      	movs	r2, #4
10009278:	794b      	ldrb	r3, [r1, #5]
1000927a:	3501      	adds	r5, #1
1000927c:	4393      	bics	r3, r2
1000927e:	714b      	strb	r3, [r1, #5]
10009280:	6820      	ldr	r0, [r4, #0]
10009282:	f002 f8ad 	bl	1000b3e0 <__mutex_exit_veneer>
10009286:	0028      	movs	r0, r5
10009288:	bd70      	pop	{r4, r5, r6, pc}
1000928a:	46c0      	nop			; (mov r8, r8)
1000928c:	20000f28 	.word	0x20000f28
10009290:	20000ef0 	.word	0x20000ef0

10009294 <usbd_edpt_xfer>:
10009294:	b570      	push	{r4, r5, r6, lr}
10009296:	247f      	movs	r4, #127	; 0x7f
10009298:	400c      	ands	r4, r1
1000929a:	0065      	lsls	r5, r4, #1
1000929c:	4c0e      	ldr	r4, [pc, #56]	; (100092d8 <usbd_edpt_xfer+0x44>)
1000929e:	0006      	movs	r6, r0
100092a0:	1964      	adds	r4, r4, r5
100092a2:	09c8      	lsrs	r0, r1, #7
100092a4:	1824      	adds	r4, r4, r0
100092a6:	3420      	adds	r4, #32
100092a8:	7965      	ldrb	r5, [r4, #5]
100092aa:	2000      	movs	r0, #0
100092ac:	07ed      	lsls	r5, r5, #31
100092ae:	d500      	bpl.n	100092b2 <usbd_edpt_xfer+0x1e>
100092b0:	bd70      	pop	{r4, r5, r6, pc}
100092b2:	2501      	movs	r5, #1
100092b4:	7960      	ldrb	r0, [r4, #5]
100092b6:	4328      	orrs	r0, r5
100092b8:	7160      	strb	r0, [r4, #5]
100092ba:	0030      	movs	r0, r6
100092bc:	f7fe ffc4 	bl	10008248 <dcd_edpt_xfer>
100092c0:	2800      	cmp	r0, #0
100092c2:	d1f5      	bne.n	100092b0 <usbd_edpt_xfer+0x1c>
100092c4:	2201      	movs	r2, #1
100092c6:	7963      	ldrb	r3, [r4, #5]
100092c8:	4393      	bics	r3, r2
100092ca:	7163      	strb	r3, [r4, #5]
100092cc:	7963      	ldrb	r3, [r4, #5]
100092ce:	3203      	adds	r2, #3
100092d0:	4393      	bics	r3, r2
100092d2:	7163      	strb	r3, [r4, #5]
100092d4:	e7ec      	b.n	100092b0 <usbd_edpt_xfer+0x1c>
100092d6:	46c0      	nop			; (mov r8, r8)
100092d8:	20000ef0 	.word	0x20000ef0

100092dc <tud_control_status>:
100092dc:	b570      	push	{r4, r5, r6, lr}
100092de:	4c0a      	ldr	r4, [pc, #40]	; (10009308 <tud_control_status+0x2c>)
100092e0:	0006      	movs	r6, r0
100092e2:	2208      	movs	r2, #8
100092e4:	0020      	movs	r0, r4
100092e6:	000d      	movs	r5, r1
100092e8:	f7fe fa50 	bl	1000778c <__wrap___aeabi_memcpy>
100092ec:	2300      	movs	r3, #0
100092ee:	2100      	movs	r1, #0
100092f0:	60a3      	str	r3, [r4, #8]
100092f2:	81e3      	strh	r3, [r4, #14]
100092f4:	81a3      	strh	r3, [r4, #12]
100092f6:	5669      	ldrsb	r1, [r5, r1]
100092f8:	0030      	movs	r0, r6
100092fa:	43c9      	mvns	r1, r1
100092fc:	0fc9      	lsrs	r1, r1, #31
100092fe:	01c9      	lsls	r1, r1, #7
10009300:	2200      	movs	r2, #0
10009302:	f7fe ffa1 	bl	10008248 <dcd_edpt_xfer>
10009306:	bd70      	pop	{r4, r5, r6, pc}
10009308:	20000e94 	.word	0x20000e94

1000930c <tud_control_xfer>:
1000930c:	b5f0      	push	{r4, r5, r6, r7, lr}
1000930e:	46c6      	mov	lr, r8
10009310:	4690      	mov	r8, r2
10009312:	4c27      	ldr	r4, [pc, #156]	; (100093b0 <tud_control_xfer+0xa4>)
10009314:	2208      	movs	r2, #8
10009316:	b500      	push	{lr}
10009318:	0006      	movs	r6, r0
1000931a:	0020      	movs	r0, r4
1000931c:	000d      	movs	r5, r1
1000931e:	001f      	movs	r7, r3
10009320:	f7fe fa34 	bl	1000778c <__wrap___aeabi_memcpy>
10009324:	4643      	mov	r3, r8
10009326:	60a3      	str	r3, [r4, #8]
10009328:	2300      	movs	r3, #0
1000932a:	81e3      	strh	r3, [r4, #14]
1000932c:	79eb      	ldrb	r3, [r5, #7]
1000932e:	79aa      	ldrb	r2, [r5, #6]
10009330:	021b      	lsls	r3, r3, #8
10009332:	4313      	orrs	r3, r2
10009334:	1c1a      	adds	r2, r3, #0
10009336:	42bb      	cmp	r3, r7
10009338:	d900      	bls.n	1000933c <tud_control_xfer+0x30>
1000933a:	1c3a      	adds	r2, r7, #0
1000933c:	b297      	uxth	r7, r2
1000933e:	81a2      	strh	r2, [r4, #12]
10009340:	2b00      	cmp	r3, #0
10009342:	d012      	beq.n	1000936a <tud_control_xfer+0x5e>
10009344:	2f00      	cmp	r7, #0
10009346:	d01f      	beq.n	10009388 <tud_control_xfer+0x7c>
10009348:	4643      	mov	r3, r8
1000934a:	2b00      	cmp	r3, #0
1000934c:	d02e      	beq.n	100093ac <tud_control_xfer+0xa0>
1000934e:	1c3b      	adds	r3, r7, #0
10009350:	2f40      	cmp	r7, #64	; 0x40
10009352:	d817      	bhi.n	10009384 <tud_control_xfer+0x78>
10009354:	b29f      	uxth	r7, r3
10009356:	7823      	ldrb	r3, [r4, #0]
10009358:	2b7f      	cmp	r3, #127	; 0x7f
1000935a:	d81e      	bhi.n	1000939a <tud_control_xfer+0x8e>
1000935c:	2100      	movs	r1, #0
1000935e:	4a15      	ldr	r2, [pc, #84]	; (100093b4 <tud_control_xfer+0xa8>)
10009360:	003b      	movs	r3, r7
10009362:	0030      	movs	r0, r6
10009364:	f7fe ff70 	bl	10008248 <dcd_edpt_xfer>
10009368:	e009      	b.n	1000937e <tud_control_xfer+0x72>
1000936a:	2100      	movs	r1, #0
1000936c:	5669      	ldrsb	r1, [r5, r1]
1000936e:	2300      	movs	r3, #0
10009370:	43c9      	mvns	r1, r1
10009372:	0fc9      	lsrs	r1, r1, #31
10009374:	01c9      	lsls	r1, r1, #7
10009376:	2200      	movs	r2, #0
10009378:	0030      	movs	r0, r6
1000937a:	f7fe ff65 	bl	10008248 <dcd_edpt_xfer>
1000937e:	bc04      	pop	{r2}
10009380:	4690      	mov	r8, r2
10009382:	bdf0      	pop	{r4, r5, r6, r7, pc}
10009384:	2340      	movs	r3, #64	; 0x40
10009386:	e7e5      	b.n	10009354 <tud_control_xfer+0x48>
10009388:	7823      	ldrb	r3, [r4, #0]
1000938a:	2b7f      	cmp	r3, #127	; 0x7f
1000938c:	d802      	bhi.n	10009394 <tud_control_xfer+0x88>
1000938e:	2100      	movs	r1, #0
10009390:	2200      	movs	r2, #0
10009392:	e7e5      	b.n	10009360 <tud_control_xfer+0x54>
10009394:	2180      	movs	r1, #128	; 0x80
10009396:	2200      	movs	r2, #0
10009398:	e7e2      	b.n	10009360 <tud_control_xfer+0x54>
1000939a:	4c06      	ldr	r4, [pc, #24]	; (100093b4 <tud_control_xfer+0xa8>)
1000939c:	003a      	movs	r2, r7
1000939e:	4641      	mov	r1, r8
100093a0:	0020      	movs	r0, r4
100093a2:	f7fe f9f3 	bl	1000778c <__wrap___aeabi_memcpy>
100093a6:	2180      	movs	r1, #128	; 0x80
100093a8:	0022      	movs	r2, r4
100093aa:	e7d9      	b.n	10009360 <tud_control_xfer+0x54>
100093ac:	2000      	movs	r0, #0
100093ae:	e7e6      	b.n	1000937e <tud_control_xfer+0x72>
100093b0:	20000e94 	.word	0x20000e94
100093b4:	20000eb0 	.word	0x20000eb0

100093b8 <usbd_control_reset>:
100093b8:	b510      	push	{r4, lr}
100093ba:	2214      	movs	r2, #20
100093bc:	2100      	movs	r1, #0
100093be:	4802      	ldr	r0, [pc, #8]	; (100093c8 <usbd_control_reset+0x10>)
100093c0:	f7fe f9de 	bl	10007780 <__wrap_memset>
100093c4:	bd10      	pop	{r4, pc}
100093c6:	46c0      	nop			; (mov r8, r8)
100093c8:	20000e94 	.word	0x20000e94

100093cc <usbd_control_set_complete_callback>:
100093cc:	4b01      	ldr	r3, [pc, #4]	; (100093d4 <usbd_control_set_complete_callback+0x8>)
100093ce:	6118      	str	r0, [r3, #16]
100093d0:	4770      	bx	lr
100093d2:	46c0      	nop			; (mov r8, r8)
100093d4:	20000e94 	.word	0x20000e94

100093d8 <usbd_control_set_request>:
100093d8:	b510      	push	{r4, lr}
100093da:	4c05      	ldr	r4, [pc, #20]	; (100093f0 <usbd_control_set_request+0x18>)
100093dc:	0001      	movs	r1, r0
100093de:	2208      	movs	r2, #8
100093e0:	0020      	movs	r0, r4
100093e2:	f7fe f9d3 	bl	1000778c <__wrap___aeabi_memcpy>
100093e6:	2300      	movs	r3, #0
100093e8:	60a3      	str	r3, [r4, #8]
100093ea:	81e3      	strh	r3, [r4, #14]
100093ec:	81a3      	strh	r3, [r4, #12]
100093ee:	bd10      	pop	{r4, pc}
100093f0:	20000e94 	.word	0x20000e94

100093f4 <usbd_control_xfer_cb>:
100093f4:	b570      	push	{r4, r5, r6, lr}
100093f6:	4c36      	ldr	r4, [pc, #216]	; (100094d0 <usbd_control_xfer_cb+0xdc>)
100093f8:	001d      	movs	r5, r3
100093fa:	7823      	ldrb	r3, [r4, #0]
100093fc:	0006      	movs	r6, r0
100093fe:	09da      	lsrs	r2, r3, #7
10009400:	09c9      	lsrs	r1, r1, #7
10009402:	428a      	cmp	r2, r1
10009404:	d00b      	beq.n	1000941e <usbd_control_xfer_cb+0x2a>
10009406:	2000      	movs	r0, #0
10009408:	2d00      	cmp	r5, #0
1000940a:	d107      	bne.n	1000941c <usbd_control_xfer_cb+0x28>
1000940c:	4b31      	ldr	r3, [pc, #196]	; (100094d4 <usbd_control_xfer_cb+0xe0>)
1000940e:	2b00      	cmp	r3, #0
10009410:	d02d      	beq.n	1000946e <usbd_control_xfer_cb+0x7a>
10009412:	0030      	movs	r0, r6
10009414:	0021      	movs	r1, r4
10009416:	f7fe fe53 	bl	100080c0 <dcd_edpt0_status_complete>
1000941a:	2001      	movs	r0, #1
1000941c:	bd70      	pop	{r4, r5, r6, pc}
1000941e:	2b7f      	cmp	r3, #127	; 0x7f
10009420:	d806      	bhi.n	10009430 <usbd_control_xfer_cb+0x3c>
10009422:	68a0      	ldr	r0, [r4, #8]
10009424:	2800      	cmp	r0, #0
10009426:	d024      	beq.n	10009472 <usbd_control_xfer_cb+0x7e>
10009428:	002a      	movs	r2, r5
1000942a:	492b      	ldr	r1, [pc, #172]	; (100094d8 <usbd_control_xfer_cb+0xe4>)
1000942c:	f7fe f9ae 	bl	1000778c <__wrap___aeabi_memcpy>
10009430:	68a2      	ldr	r2, [r4, #8]
10009432:	89e3      	ldrh	r3, [r4, #14]
10009434:	1951      	adds	r1, r2, r5
10009436:	195b      	adds	r3, r3, r5
10009438:	88e2      	ldrh	r2, [r4, #6]
1000943a:	b29b      	uxth	r3, r3
1000943c:	81e3      	strh	r3, [r4, #14]
1000943e:	60a1      	str	r1, [r4, #8]
10009440:	429a      	cmp	r2, r3
10009442:	d001      	beq.n	10009448 <usbd_control_xfer_cb+0x54>
10009444:	2d3f      	cmp	r5, #63	; 0x3f
10009446:	d816      	bhi.n	10009476 <usbd_control_xfer_cb+0x82>
10009448:	6923      	ldr	r3, [r4, #16]
1000944a:	2b00      	cmp	r3, #0
1000944c:	d004      	beq.n	10009458 <usbd_control_xfer_cb+0x64>
1000944e:	0021      	movs	r1, r4
10009450:	0030      	movs	r0, r6
10009452:	4798      	blx	r3
10009454:	2800      	cmp	r0, #0
10009456:	d024      	beq.n	100094a2 <usbd_control_xfer_cb+0xae>
10009458:	2100      	movs	r1, #0
1000945a:	5661      	ldrsb	r1, [r4, r1]
1000945c:	2300      	movs	r3, #0
1000945e:	43c9      	mvns	r1, r1
10009460:	0fc9      	lsrs	r1, r1, #31
10009462:	01c9      	lsls	r1, r1, #7
10009464:	2200      	movs	r2, #0
10009466:	0030      	movs	r0, r6
10009468:	f7fe feee 	bl	10008248 <dcd_edpt_xfer>
1000946c:	e7d6      	b.n	1000941c <usbd_control_xfer_cb+0x28>
1000946e:	2001      	movs	r0, #1
10009470:	e7d4      	b.n	1000941c <usbd_control_xfer_cb+0x28>
10009472:	2000      	movs	r0, #0
10009474:	e7d2      	b.n	1000941c <usbd_control_xfer_cb+0x28>
10009476:	89a2      	ldrh	r2, [r4, #12]
10009478:	1ad3      	subs	r3, r2, r3
1000947a:	1c1d      	adds	r5, r3, #0
1000947c:	b29b      	uxth	r3, r3
1000947e:	2b40      	cmp	r3, #64	; 0x40
10009480:	d900      	bls.n	10009484 <usbd_control_xfer_cb+0x90>
10009482:	2540      	movs	r5, #64	; 0x40
10009484:	7823      	ldrb	r3, [r4, #0]
10009486:	b2ad      	uxth	r5, r5
10009488:	2b7f      	cmp	r3, #127	; 0x7f
1000948a:	d814      	bhi.n	100094b6 <usbd_control_xfer_cb+0xc2>
1000948c:	2100      	movs	r1, #0
1000948e:	2d00      	cmp	r5, #0
10009490:	d105      	bne.n	1000949e <usbd_control_xfer_cb+0xaa>
10009492:	2200      	movs	r2, #0
10009494:	002b      	movs	r3, r5
10009496:	0030      	movs	r0, r6
10009498:	f7fe fed6 	bl	10008248 <dcd_edpt_xfer>
1000949c:	e7be      	b.n	1000941c <usbd_control_xfer_cb+0x28>
1000949e:	4a0e      	ldr	r2, [pc, #56]	; (100094d8 <usbd_control_xfer_cb+0xe4>)
100094a0:	e7f8      	b.n	10009494 <usbd_control_xfer_cb+0xa0>
100094a2:	2100      	movs	r1, #0
100094a4:	0030      	movs	r0, r6
100094a6:	f7fe fee5 	bl	10008274 <dcd_edpt_stall>
100094aa:	0030      	movs	r0, r6
100094ac:	2180      	movs	r1, #128	; 0x80
100094ae:	f7fe fee1 	bl	10008274 <dcd_edpt_stall>
100094b2:	2001      	movs	r0, #1
100094b4:	e7b2      	b.n	1000941c <usbd_control_xfer_cb+0x28>
100094b6:	2d00      	cmp	r5, #0
100094b8:	d101      	bne.n	100094be <usbd_control_xfer_cb+0xca>
100094ba:	2180      	movs	r1, #128	; 0x80
100094bc:	e7e9      	b.n	10009492 <usbd_control_xfer_cb+0x9e>
100094be:	4c06      	ldr	r4, [pc, #24]	; (100094d8 <usbd_control_xfer_cb+0xe4>)
100094c0:	002a      	movs	r2, r5
100094c2:	0020      	movs	r0, r4
100094c4:	f7fe f962 	bl	1000778c <__wrap___aeabi_memcpy>
100094c8:	2180      	movs	r1, #128	; 0x80
100094ca:	0022      	movs	r2, r4
100094cc:	e7e2      	b.n	10009494 <usbd_control_xfer_cb+0xa0>
100094ce:	46c0      	nop			; (mov r8, r8)
100094d0:	20000e94 	.word	0x20000e94
100094d4:	100080c1 	.word	0x100080c1
100094d8:	20000eb0 	.word	0x20000eb0

100094dc <tud_cdc_n_connected>:
100094dc:	b510      	push	{r4, lr}
100094de:	0004      	movs	r4, r0
100094e0:	f7ff f8e0 	bl	100086a4 <tud_mounted>
100094e4:	2800      	cmp	r0, #0
100094e6:	d101      	bne.n	100094ec <tud_cdc_n_connected+0x10>
100094e8:	2000      	movs	r0, #0
100094ea:	bd10      	pop	{r4, pc}
100094ec:	f7ff f8e2 	bl	100086b4 <tud_suspended>
100094f0:	2800      	cmp	r0, #0
100094f2:	d1f9      	bne.n	100094e8 <tud_cdc_n_connected+0xc>
100094f4:	20b4      	movs	r0, #180	; 0xb4
100094f6:	0080      	lsls	r0, r0, #2
100094f8:	4344      	muls	r4, r0
100094fa:	4803      	ldr	r0, [pc, #12]	; (10009508 <tud_cdc_n_connected+0x2c>)
100094fc:	1900      	adds	r0, r0, r4
100094fe:	7903      	ldrb	r3, [r0, #4]
10009500:	2001      	movs	r0, #1
10009502:	4018      	ands	r0, r3
10009504:	e7f1      	b.n	100094ea <tud_cdc_n_connected+0xe>
10009506:	46c0      	nop			; (mov r8, r8)
10009508:	20000bc4 	.word	0x20000bc4

1000950c <tud_cdc_n_available>:
1000950c:	0003      	movs	r3, r0
1000950e:	20b4      	movs	r0, #180	; 0xb4
10009510:	0080      	lsls	r0, r0, #2
10009512:	4358      	muls	r0, r3
10009514:	b510      	push	{r4, lr}
10009516:	4b03      	ldr	r3, [pc, #12]	; (10009524 <tud_cdc_n_available+0x18>)
10009518:	3010      	adds	r0, #16
1000951a:	1818      	adds	r0, r3, r0
1000951c:	f000 fb06 	bl	10009b2c <tu_fifo_count>
10009520:	bd10      	pop	{r4, pc}
10009522:	46c0      	nop			; (mov r8, r8)
10009524:	20000bc4 	.word	0x20000bc4

10009528 <tud_cdc_n_read>:
10009528:	b5f0      	push	{r4, r5, r6, r7, lr}
1000952a:	25b4      	movs	r5, #180	; 0xb4
1000952c:	00ad      	lsls	r5, r5, #2
1000952e:	4345      	muls	r5, r0
10009530:	002c      	movs	r4, r5
10009532:	46c6      	mov	lr, r8
10009534:	4e17      	ldr	r6, [pc, #92]	; (10009594 <tud_cdc_n_read+0x6c>)
10009536:	3410      	adds	r4, #16
10009538:	1934      	adds	r4, r6, r4
1000953a:	b500      	push	{lr}
1000953c:	b292      	uxth	r2, r2
1000953e:	0020      	movs	r0, r4
10009540:	f000 fb6e 	bl	10009c20 <tu_fifo_read_n>
10009544:	0007      	movs	r7, r0
10009546:	0020      	movs	r0, r4
10009548:	f000 fafe 	bl	10009b48 <tu_fifo_remaining>
1000954c:	283f      	cmp	r0, #63	; 0x3f
1000954e:	d803      	bhi.n	10009558 <tud_cdc_n_read+0x30>
10009550:	0038      	movs	r0, r7
10009552:	bc04      	pop	{r2}
10009554:	4690      	mov	r8, r2
10009556:	bdf0      	pop	{r4, r5, r6, r7, pc}
10009558:	1973      	adds	r3, r6, r5
1000955a:	78d9      	ldrb	r1, [r3, #3]
1000955c:	2000      	movs	r0, #0
1000955e:	4698      	mov	r8, r3
10009560:	f7ff fe44 	bl	100091ec <usbd_edpt_claim>
10009564:	2800      	cmp	r0, #0
10009566:	d0f3      	beq.n	10009550 <tud_cdc_n_read+0x28>
10009568:	0020      	movs	r0, r4
1000956a:	f000 faed 	bl	10009b48 <tu_fifo_remaining>
1000956e:	283f      	cmp	r0, #63	; 0x3f
10009570:	d805      	bhi.n	1000957e <tud_cdc_n_read+0x56>
10009572:	4643      	mov	r3, r8
10009574:	2000      	movs	r0, #0
10009576:	78d9      	ldrb	r1, [r3, #3]
10009578:	f7ff fe66 	bl	10009248 <usbd_edpt_release>
1000957c:	e7e8      	b.n	10009550 <tud_cdc_n_read+0x28>
1000957e:	2394      	movs	r3, #148	; 0x94
10009580:	009b      	lsls	r3, r3, #2
10009582:	18ea      	adds	r2, r5, r3
10009584:	4643      	mov	r3, r8
10009586:	18b2      	adds	r2, r6, r2
10009588:	78d9      	ldrb	r1, [r3, #3]
1000958a:	2000      	movs	r0, #0
1000958c:	2340      	movs	r3, #64	; 0x40
1000958e:	f7ff fe81 	bl	10009294 <usbd_edpt_xfer>
10009592:	e7dd      	b.n	10009550 <tud_cdc_n_read+0x28>
10009594:	20000bc4 	.word	0x20000bc4

10009598 <tud_cdc_n_write>:
10009598:	b5f8      	push	{r3, r4, r5, r6, r7, lr}
1000959a:	25b4      	movs	r5, #180	; 0xb4
1000959c:	00ad      	lsls	r5, r5, #2
1000959e:	4345      	muls	r5, r0
100095a0:	002c      	movs	r4, r5
100095a2:	4647      	mov	r7, r8
100095a4:	46ce      	mov	lr, r9
100095a6:	4e25      	ldr	r6, [pc, #148]	; (1000963c <tud_cdc_n_write+0xa4>)
100095a8:	3428      	adds	r4, #40	; 0x28
100095aa:	1934      	adds	r4, r6, r4
100095ac:	b580      	push	{r7, lr}
100095ae:	b292      	uxth	r2, r2
100095b0:	0007      	movs	r7, r0
100095b2:	0020      	movs	r0, r4
100095b4:	f000 fc00 	bl	10009db8 <tu_fifo_write_n>
100095b8:	4680      	mov	r8, r0
100095ba:	0020      	movs	r0, r4
100095bc:	f000 fab6 	bl	10009b2c <tu_fifo_count>
100095c0:	283f      	cmp	r0, #63	; 0x3f
100095c2:	d804      	bhi.n	100095ce <tud_cdc_n_write+0x36>
100095c4:	4640      	mov	r0, r8
100095c6:	bc0c      	pop	{r2, r3}
100095c8:	4690      	mov	r8, r2
100095ca:	4699      	mov	r9, r3
100095cc:	bdf8      	pop	{r3, r4, r5, r6, r7, pc}
100095ce:	0020      	movs	r0, r4
100095d0:	f000 faac 	bl	10009b2c <tu_fifo_count>
100095d4:	2800      	cmp	r0, #0
100095d6:	d0f5      	beq.n	100095c4 <tud_cdc_n_write+0x2c>
100095d8:	1973      	adds	r3, r6, r5
100095da:	7899      	ldrb	r1, [r3, #2]
100095dc:	2000      	movs	r0, #0
100095de:	4699      	mov	r9, r3
100095e0:	f7ff fe04 	bl	100091ec <usbd_edpt_claim>
100095e4:	2800      	cmp	r0, #0
100095e6:	d0ed      	beq.n	100095c4 <tud_cdc_n_write+0x2c>
100095e8:	23a4      	movs	r3, #164	; 0xa4
100095ea:	009b      	lsls	r3, r3, #2
100095ec:	469c      	mov	ip, r3
100095ee:	4465      	add	r5, ip
100095f0:	1975      	adds	r5, r6, r5
100095f2:	0020      	movs	r0, r4
100095f4:	2240      	movs	r2, #64	; 0x40
100095f6:	0029      	movs	r1, r5
100095f8:	f000 fb12 	bl	10009c20 <tu_fifo_read_n>
100095fc:	1e04      	subs	r4, r0, #0
100095fe:	d013      	beq.n	10009628 <tud_cdc_n_write+0x90>
10009600:	f7ff f850 	bl	100086a4 <tud_mounted>
10009604:	2800      	cmp	r0, #0
10009606:	d00f      	beq.n	10009628 <tud_cdc_n_write+0x90>
10009608:	f7ff f854 	bl	100086b4 <tud_suspended>
1000960c:	2800      	cmp	r0, #0
1000960e:	d10b      	bne.n	10009628 <tud_cdc_n_write+0x90>
10009610:	464b      	mov	r3, r9
10009612:	791b      	ldrb	r3, [r3, #4]
10009614:	07db      	lsls	r3, r3, #31
10009616:	d507      	bpl.n	10009628 <tud_cdc_n_write+0x90>
10009618:	464b      	mov	r3, r9
1000961a:	002a      	movs	r2, r5
1000961c:	7899      	ldrb	r1, [r3, #2]
1000961e:	2000      	movs	r0, #0
10009620:	0023      	movs	r3, r4
10009622:	f7ff fe37 	bl	10009294 <usbd_edpt_xfer>
10009626:	e7cd      	b.n	100095c4 <tud_cdc_n_write+0x2c>
10009628:	23b4      	movs	r3, #180	; 0xb4
1000962a:	009b      	lsls	r3, r3, #2
1000962c:	435f      	muls	r7, r3
1000962e:	19f6      	adds	r6, r6, r7
10009630:	78b1      	ldrb	r1, [r6, #2]
10009632:	2000      	movs	r0, #0
10009634:	f7ff fe08 	bl	10009248 <usbd_edpt_release>
10009638:	e7c4      	b.n	100095c4 <tud_cdc_n_write+0x2c>
1000963a:	46c0      	nop			; (mov r8, r8)
1000963c:	20000bc4 	.word	0x20000bc4

10009640 <tud_cdc_n_write_flush>:
10009640:	b5f0      	push	{r4, r5, r6, r7, lr}
10009642:	24b4      	movs	r4, #180	; 0xb4
10009644:	00a4      	lsls	r4, r4, #2
10009646:	4344      	muls	r4, r0
10009648:	0025      	movs	r5, r4
1000964a:	46c6      	mov	lr, r8
1000964c:	4f20      	ldr	r7, [pc, #128]	; (100096d0 <tud_cdc_n_write_flush+0x90>)
1000964e:	3528      	adds	r5, #40	; 0x28
10009650:	197d      	adds	r5, r7, r5
10009652:	b500      	push	{lr}
10009654:	0006      	movs	r6, r0
10009656:	0028      	movs	r0, r5
10009658:	f000 fa68 	bl	10009b2c <tu_fifo_count>
1000965c:	2800      	cmp	r0, #0
1000965e:	d103      	bne.n	10009668 <tud_cdc_n_write_flush+0x28>
10009660:	2000      	movs	r0, #0
10009662:	bc04      	pop	{r2}
10009664:	4690      	mov	r8, r2
10009666:	bdf0      	pop	{r4, r5, r6, r7, pc}
10009668:	193b      	adds	r3, r7, r4
1000966a:	7899      	ldrb	r1, [r3, #2]
1000966c:	2000      	movs	r0, #0
1000966e:	4698      	mov	r8, r3
10009670:	f7ff fdbc 	bl	100091ec <usbd_edpt_claim>
10009674:	2800      	cmp	r0, #0
10009676:	d0f3      	beq.n	10009660 <tud_cdc_n_write_flush+0x20>
10009678:	23a4      	movs	r3, #164	; 0xa4
1000967a:	009b      	lsls	r3, r3, #2
1000967c:	469c      	mov	ip, r3
1000967e:	4464      	add	r4, ip
10009680:	193c      	adds	r4, r7, r4
10009682:	0028      	movs	r0, r5
10009684:	2240      	movs	r2, #64	; 0x40
10009686:	0021      	movs	r1, r4
10009688:	f000 faca 	bl	10009c20 <tu_fifo_read_n>
1000968c:	1e05      	subs	r5, r0, #0
1000968e:	d003      	beq.n	10009698 <tud_cdc_n_write_flush+0x58>
10009690:	f7ff f808 	bl	100086a4 <tud_mounted>
10009694:	2800      	cmp	r0, #0
10009696:	d108      	bne.n	100096aa <tud_cdc_n_write_flush+0x6a>
10009698:	23b4      	movs	r3, #180	; 0xb4
1000969a:	009b      	lsls	r3, r3, #2
1000969c:	435e      	muls	r6, r3
1000969e:	19bf      	adds	r7, r7, r6
100096a0:	78b9      	ldrb	r1, [r7, #2]
100096a2:	2000      	movs	r0, #0
100096a4:	f7ff fdd0 	bl	10009248 <usbd_edpt_release>
100096a8:	e7da      	b.n	10009660 <tud_cdc_n_write_flush+0x20>
100096aa:	f7ff f803 	bl	100086b4 <tud_suspended>
100096ae:	2800      	cmp	r0, #0
100096b0:	d1f2      	bne.n	10009698 <tud_cdc_n_write_flush+0x58>
100096b2:	4643      	mov	r3, r8
100096b4:	791b      	ldrb	r3, [r3, #4]
100096b6:	07db      	lsls	r3, r3, #31
100096b8:	d5ee      	bpl.n	10009698 <tud_cdc_n_write_flush+0x58>
100096ba:	4643      	mov	r3, r8
100096bc:	0022      	movs	r2, r4
100096be:	7899      	ldrb	r1, [r3, #2]
100096c0:	2000      	movs	r0, #0
100096c2:	002b      	movs	r3, r5
100096c4:	f7ff fde6 	bl	10009294 <usbd_edpt_xfer>
100096c8:	2800      	cmp	r0, #0
100096ca:	d0c9      	beq.n	10009660 <tud_cdc_n_write_flush+0x20>
100096cc:	0028      	movs	r0, r5
100096ce:	e7c8      	b.n	10009662 <tud_cdc_n_write_flush+0x22>
100096d0:	20000bc4 	.word	0x20000bc4

100096d4 <tud_cdc_n_write_available>:
100096d4:	0003      	movs	r3, r0
100096d6:	20b4      	movs	r0, #180	; 0xb4
100096d8:	0080      	lsls	r0, r0, #2
100096da:	4358      	muls	r0, r3
100096dc:	b510      	push	{r4, lr}
100096de:	4b03      	ldr	r3, [pc, #12]	; (100096ec <tud_cdc_n_write_available+0x18>)
100096e0:	3028      	adds	r0, #40	; 0x28
100096e2:	1818      	adds	r0, r3, r0
100096e4:	f000 fa30 	bl	10009b48 <tu_fifo_remaining>
100096e8:	bd10      	pop	{r4, pc}
100096ea:	46c0      	nop			; (mov r8, r8)
100096ec:	20000bc4 	.word	0x20000bc4

100096f0 <cdcd_init>:
100096f0:	22b4      	movs	r2, #180	; 0xb4
100096f2:	b570      	push	{r4, r5, r6, lr}
100096f4:	4c1a      	ldr	r4, [pc, #104]	; (10009760 <cdcd_init+0x70>)
100096f6:	b082      	sub	sp, #8
100096f8:	0092      	lsls	r2, r2, #2
100096fa:	2100      	movs	r1, #0
100096fc:	0020      	movs	r0, r4
100096fe:	f7fe f83f 	bl	10007780 <__wrap_memset>
10009702:	23ff      	movs	r3, #255	; 0xff
10009704:	7163      	strb	r3, [r4, #5]
10009706:	4b17      	ldr	r3, [pc, #92]	; (10009764 <cdcd_init+0x74>)
10009708:	2580      	movs	r5, #128	; 0x80
1000970a:	80e3      	strh	r3, [r4, #6]
1000970c:	2301      	movs	r3, #1
1000970e:	2600      	movs	r6, #0
10009710:	0021      	movs	r1, r4
10009712:	0020      	movs	r0, r4
10009714:	8123      	strh	r3, [r4, #8]
10009716:	006d      	lsls	r5, r5, #1
10009718:	3307      	adds	r3, #7
1000971a:	7323      	strb	r3, [r4, #12]
1000971c:	002a      	movs	r2, r5
1000971e:	3140      	adds	r1, #64	; 0x40
10009720:	9600      	str	r6, [sp, #0]
10009722:	3b07      	subs	r3, #7
10009724:	3010      	adds	r0, #16
10009726:	f000 f9c1 	bl	10009aac <tu_fifo_config>
1000972a:	0021      	movs	r1, r4
1000972c:	0020      	movs	r0, r4
1000972e:	3141      	adds	r1, #65	; 0x41
10009730:	002a      	movs	r2, r5
10009732:	31ff      	adds	r1, #255	; 0xff
10009734:	9600      	str	r6, [sp, #0]
10009736:	2301      	movs	r3, #1
10009738:	3028      	adds	r0, #40	; 0x28
1000973a:	f000 f9b7 	bl	10009aac <tu_fifo_config>
1000973e:	2390      	movs	r3, #144	; 0x90
10009740:	009b      	lsls	r3, r3, #2
10009742:	18e5      	adds	r5, r4, r3
10009744:	0028      	movs	r0, r5
10009746:	f7fa fdb3 	bl	100042b0 <mutex_init>
1000974a:	2392      	movs	r3, #146	; 0x92
1000974c:	009b      	lsls	r3, r3, #2
1000974e:	6265      	str	r5, [r4, #36]	; 0x24
10009750:	18e5      	adds	r5, r4, r3
10009752:	0028      	movs	r0, r5
10009754:	f7fa fdac 	bl	100042b0 <mutex_init>
10009758:	63e5      	str	r5, [r4, #60]	; 0x3c
1000975a:	b002      	add	sp, #8
1000975c:	bd70      	pop	{r4, r5, r6, pc}
1000975e:	46c0      	nop			; (mov r8, r8)
10009760:	20000bc4 	.word	0x20000bc4
10009764:	ffffc200 	.word	0xffffc200

10009768 <cdcd_reset>:
10009768:	b510      	push	{r4, lr}
1000976a:	4c07      	ldr	r4, [pc, #28]	; (10009788 <cdcd_reset+0x20>)
1000976c:	2205      	movs	r2, #5
1000976e:	2100      	movs	r1, #0
10009770:	0020      	movs	r0, r4
10009772:	f7fe f805 	bl	10007780 <__wrap_memset>
10009776:	0020      	movs	r0, r4
10009778:	3010      	adds	r0, #16
1000977a:	f000 fb9b 	bl	10009eb4 <tu_fifo_clear>
1000977e:	0020      	movs	r0, r4
10009780:	3028      	adds	r0, #40	; 0x28
10009782:	f000 fb97 	bl	10009eb4 <tu_fifo_clear>
10009786:	bd10      	pop	{r4, pc}
10009788:	20000bc4 	.word	0x20000bc4

1000978c <cdcd_open>:
1000978c:	b5f0      	push	{r4, r5, r6, r7, lr}
1000978e:	46c6      	mov	lr, r8
10009790:	b500      	push	{lr}
10009792:	794b      	ldrb	r3, [r1, #5]
10009794:	b082      	sub	sp, #8
10009796:	0007      	movs	r7, r0
10009798:	2b02      	cmp	r3, #2
1000979a:	d005      	beq.n	100097a8 <cdcd_open+0x1c>
1000979c:	2500      	movs	r5, #0
1000979e:	0028      	movs	r0, r5
100097a0:	b002      	add	sp, #8
100097a2:	bc04      	pop	{r2}
100097a4:	4690      	mov	r8, r2
100097a6:	bdf0      	pop	{r4, r5, r6, r7, pc}
100097a8:	798b      	ldrb	r3, [r1, #6]
100097aa:	2b02      	cmp	r3, #2
100097ac:	d1f6      	bne.n	1000979c <cdcd_open+0x10>
100097ae:	79cb      	ldrb	r3, [r1, #7]
100097b0:	2b06      	cmp	r3, #6
100097b2:	d8f3      	bhi.n	1000979c <cdcd_open+0x10>
100097b4:	4e2f      	ldr	r6, [pc, #188]	; (10009874 <cdcd_open+0xe8>)
100097b6:	78b3      	ldrb	r3, [r6, #2]
100097b8:	2b00      	cmp	r3, #0
100097ba:	d1ef      	bne.n	1000979c <cdcd_open+0x10>
100097bc:	788b      	ldrb	r3, [r1, #2]
100097be:	2509      	movs	r5, #9
100097c0:	7033      	strb	r3, [r6, #0]
100097c2:	780c      	ldrb	r4, [r1, #0]
100097c4:	190c      	adds	r4, r1, r4
100097c6:	7863      	ldrb	r3, [r4, #1]
100097c8:	2b24      	cmp	r3, #36	; 0x24
100097ca:	d10b      	bne.n	100097e4 <cdcd_open+0x58>
100097cc:	2a08      	cmp	r2, #8
100097ce:	d802      	bhi.n	100097d6 <cdcd_open+0x4a>
100097d0:	e021      	b.n	10009816 <cdcd_open+0x8a>
100097d2:	42aa      	cmp	r2, r5
100097d4:	d31f      	bcc.n	10009816 <cdcd_open+0x8a>
100097d6:	7823      	ldrb	r3, [r4, #0]
100097d8:	18e4      	adds	r4, r4, r3
100097da:	18ed      	adds	r5, r5, r3
100097dc:	7863      	ldrb	r3, [r4, #1]
100097de:	b2ad      	uxth	r5, r5
100097e0:	2b24      	cmp	r3, #36	; 0x24
100097e2:	d0f6      	beq.n	100097d2 <cdcd_open+0x46>
100097e4:	2b05      	cmp	r3, #5
100097e6:	d02d      	beq.n	10009844 <cdcd_open+0xb8>
100097e8:	2b04      	cmp	r3, #4
100097ea:	d114      	bne.n	10009816 <cdcd_open+0x8a>
100097ec:	7963      	ldrb	r3, [r4, #5]
100097ee:	2b0a      	cmp	r3, #10
100097f0:	d111      	bne.n	10009816 <cdcd_open+0x8a>
100097f2:	7823      	ldrb	r3, [r4, #0]
100097f4:	0021      	movs	r1, r4
100097f6:	4698      	mov	r8, r3
100097f8:	1cb3      	adds	r3, r6, #2
100097fa:	9301      	str	r3, [sp, #4]
100097fc:	1cf3      	adds	r3, r6, #3
100097fe:	9300      	str	r3, [sp, #0]
10009800:	4441      	add	r1, r8
10009802:	2302      	movs	r3, #2
10009804:	2202      	movs	r2, #2
10009806:	0038      	movs	r0, r7
10009808:	f7ff fcae 	bl	10009168 <usbd_open_edpt_pair>
1000980c:	2800      	cmp	r0, #0
1000980e:	d0c5      	beq.n	1000979c <cdcd_open+0x10>
10009810:	350e      	adds	r5, #14
10009812:	4445      	add	r5, r8
10009814:	b2ad      	uxth	r5, r5
10009816:	0034      	movs	r4, r6
10009818:	3410      	adds	r4, #16
1000981a:	0020      	movs	r0, r4
1000981c:	f000 f994 	bl	10009b48 <tu_fifo_remaining>
10009820:	283f      	cmp	r0, #63	; 0x3f
10009822:	d9bc      	bls.n	1000979e <cdcd_open+0x12>
10009824:	78f1      	ldrb	r1, [r6, #3]
10009826:	2000      	movs	r0, #0
10009828:	f7ff fce0 	bl	100091ec <usbd_edpt_claim>
1000982c:	2800      	cmp	r0, #0
1000982e:	d0b6      	beq.n	1000979e <cdcd_open+0x12>
10009830:	0020      	movs	r0, r4
10009832:	f000 f989 	bl	10009b48 <tu_fifo_remaining>
10009836:	283f      	cmp	r0, #63	; 0x3f
10009838:	d812      	bhi.n	10009860 <cdcd_open+0xd4>
1000983a:	78f1      	ldrb	r1, [r6, #3]
1000983c:	2000      	movs	r0, #0
1000983e:	f7ff fd03 	bl	10009248 <usbd_edpt_release>
10009842:	e7ac      	b.n	1000979e <cdcd_open+0x12>
10009844:	0021      	movs	r1, r4
10009846:	0038      	movs	r0, r7
10009848:	f7ff fccc 	bl	100091e4 <usbd_edpt_open>
1000984c:	2800      	cmp	r0, #0
1000984e:	d0a5      	beq.n	1000979c <cdcd_open+0x10>
10009850:	78a3      	ldrb	r3, [r4, #2]
10009852:	7073      	strb	r3, [r6, #1]
10009854:	7823      	ldrb	r3, [r4, #0]
10009856:	18ed      	adds	r5, r5, r3
10009858:	18e4      	adds	r4, r4, r3
1000985a:	b2ad      	uxth	r5, r5
1000985c:	7863      	ldrb	r3, [r4, #1]
1000985e:	e7c3      	b.n	100097e8 <cdcd_open+0x5c>
10009860:	2394      	movs	r3, #148	; 0x94
10009862:	009b      	lsls	r3, r3, #2
10009864:	18f2      	adds	r2, r6, r3
10009866:	78f1      	ldrb	r1, [r6, #3]
10009868:	2340      	movs	r3, #64	; 0x40
1000986a:	2000      	movs	r0, #0
1000986c:	f7ff fd12 	bl	10009294 <usbd_edpt_xfer>
10009870:	e795      	b.n	1000979e <cdcd_open+0x12>
10009872:	46c0      	nop			; (mov r8, r8)
10009874:	20000bc4 	.word	0x20000bc4

10009878 <cdcd_control_complete>:
10009878:	2360      	movs	r3, #96	; 0x60
1000987a:	780a      	ldrb	r2, [r1, #0]
1000987c:	b570      	push	{r4, r5, r6, lr}
1000987e:	4013      	ands	r3, r2
10009880:	2400      	movs	r4, #0
10009882:	2b20      	cmp	r3, #32
10009884:	d001      	beq.n	1000988a <cdcd_control_complete+0x12>
10009886:	0020      	movs	r0, r4
10009888:	bd70      	pop	{r4, r5, r6, pc}
1000988a:	4a0a      	ldr	r2, [pc, #40]	; (100098b4 <cdcd_control_complete+0x3c>)
1000988c:	794b      	ldrb	r3, [r1, #5]
1000988e:	790d      	ldrb	r5, [r1, #4]
10009890:	7810      	ldrb	r0, [r2, #0]
10009892:	021b      	lsls	r3, r3, #8
10009894:	432b      	orrs	r3, r5
10009896:	4298      	cmp	r0, r3
10009898:	d1f5      	bne.n	10009886 <cdcd_control_complete+0xe>
1000989a:	784b      	ldrb	r3, [r1, #1]
1000989c:	2401      	movs	r4, #1
1000989e:	2b20      	cmp	r3, #32
100098a0:	d1f1      	bne.n	10009886 <cdcd_control_complete+0xe>
100098a2:	4b05      	ldr	r3, [pc, #20]	; (100098b8 <cdcd_control_complete+0x40>)
100098a4:	2b00      	cmp	r3, #0
100098a6:	d0ee      	beq.n	10009886 <cdcd_control_complete+0xe>
100098a8:	1d91      	adds	r1, r2, #6
100098aa:	2000      	movs	r0, #0
100098ac:	e000      	b.n	100098b0 <cdcd_control_complete+0x38>
100098ae:	bf00      	nop
100098b0:	e7e9      	b.n	10009886 <cdcd_control_complete+0xe>
100098b2:	46c0      	nop			; (mov r8, r8)
100098b4:	20000bc4 	.word	0x20000bc4
100098b8:	00000000 	.word	0x00000000

100098bc <cdcd_control_request>:
100098bc:	2360      	movs	r3, #96	; 0x60
100098be:	780a      	ldrb	r2, [r1, #0]
100098c0:	b570      	push	{r4, r5, r6, lr}
100098c2:	4013      	ands	r3, r2
100098c4:	2600      	movs	r6, #0
100098c6:	2b20      	cmp	r3, #32
100098c8:	d001      	beq.n	100098ce <cdcd_control_request+0x12>
100098ca:	0030      	movs	r0, r6
100098cc:	bd70      	pop	{r4, r5, r6, pc}
100098ce:	4a19      	ldr	r2, [pc, #100]	; (10009934 <cdcd_control_request+0x78>)
100098d0:	794b      	ldrb	r3, [r1, #5]
100098d2:	790d      	ldrb	r5, [r1, #4]
100098d4:	7814      	ldrb	r4, [r2, #0]
100098d6:	021b      	lsls	r3, r3, #8
100098d8:	432b      	orrs	r3, r5
100098da:	429c      	cmp	r4, r3
100098dc:	d1f5      	bne.n	100098ca <cdcd_control_request+0xe>
100098de:	784b      	ldrb	r3, [r1, #1]
100098e0:	2b21      	cmp	r3, #33	; 0x21
100098e2:	d01f      	beq.n	10009924 <cdcd_control_request+0x68>
100098e4:	2b22      	cmp	r3, #34	; 0x22
100098e6:	d007      	beq.n	100098f8 <cdcd_control_request+0x3c>
100098e8:	2b20      	cmp	r3, #32
100098ea:	d1ee      	bne.n	100098ca <cdcd_control_request+0xe>
100098ec:	3206      	adds	r2, #6
100098ee:	3b19      	subs	r3, #25
100098f0:	f7ff fd0c 	bl	1000930c <tud_control_xfer>
100098f4:	2601      	movs	r6, #1
100098f6:	e7e8      	b.n	100098ca <cdcd_control_request+0xe>
100098f8:	78cb      	ldrb	r3, [r1, #3]
100098fa:	788c      	ldrb	r4, [r1, #2]
100098fc:	021b      	lsls	r3, r3, #8
100098fe:	4323      	orrs	r3, r4
10009900:	2401      	movs	r4, #1
10009902:	0025      	movs	r5, r4
10009904:	7113      	strb	r3, [r2, #4]
10009906:	085e      	lsrs	r6, r3, #1
10009908:	401d      	ands	r5, r3
1000990a:	f7ff fce7 	bl	100092dc <tud_control_status>
1000990e:	4b0a      	ldr	r3, [pc, #40]	; (10009938 <cdcd_control_request+0x7c>)
10009910:	4034      	ands	r4, r6
10009912:	2b00      	cmp	r3, #0
10009914:	d00c      	beq.n	10009930 <cdcd_control_request+0x74>
10009916:	0022      	movs	r2, r4
10009918:	0029      	movs	r1, r5
1000991a:	2000      	movs	r0, #0
1000991c:	e000      	b.n	10009920 <cdcd_control_request+0x64>
1000991e:	bf00      	nop
10009920:	2601      	movs	r6, #1
10009922:	e7d2      	b.n	100098ca <cdcd_control_request+0xe>
10009924:	3206      	adds	r2, #6
10009926:	2307      	movs	r3, #7
10009928:	f7ff fcf0 	bl	1000930c <tud_control_xfer>
1000992c:	2601      	movs	r6, #1
1000992e:	e7cc      	b.n	100098ca <cdcd_control_request+0xe>
10009930:	2601      	movs	r6, #1
10009932:	e7ca      	b.n	100098ca <cdcd_control_request+0xe>
10009934:	20000bc4 	.word	0x20000bc4
10009938:	00000000 	.word	0x00000000

1000993c <cdcd_xfer_cb>:
1000993c:	b5f0      	push	{r4, r5, r6, r7, lr}
1000993e:	4646      	mov	r6, r8
10009940:	464f      	mov	r7, r9
10009942:	46d6      	mov	lr, sl
10009944:	b5c0      	push	{r6, r7, lr}
10009946:	4d4a      	ldr	r5, [pc, #296]	; (10009a70 <cdcd_xfer_cb+0x134>)
10009948:	4699      	mov	r9, r3
1000994a:	78eb      	ldrb	r3, [r5, #3]
1000994c:	4680      	mov	r8, r0
1000994e:	000e      	movs	r6, r1
10009950:	428b      	cmp	r3, r1
10009952:	d009      	beq.n	10009968 <cdcd_xfer_cb+0x2c>
10009954:	78ab      	ldrb	r3, [r5, #2]
10009956:	428b      	cmp	r3, r1
10009958:	d044      	beq.n	100099e4 <cdcd_xfer_cb+0xa8>
1000995a:	2400      	movs	r4, #0
1000995c:	0020      	movs	r0, r4
1000995e:	bc1c      	pop	{r2, r3, r4}
10009960:	4690      	mov	r8, r2
10009962:	4699      	mov	r9, r3
10009964:	46a2      	mov	sl, r4
10009966:	bdf0      	pop	{r4, r5, r6, r7, pc}
10009968:	464b      	mov	r3, r9
1000996a:	2b00      	cmp	r3, #0
1000996c:	d018      	beq.n	100099a0 <cdcd_xfer_cb+0x64>
1000996e:	4b41      	ldr	r3, [pc, #260]	; (10009a74 <cdcd_xfer_cb+0x138>)
10009970:	2b00      	cmp	r3, #0
10009972:	d064      	beq.n	10009a3e <cdcd_xfer_cb+0x102>
10009974:	2394      	movs	r3, #148	; 0x94
10009976:	009b      	lsls	r3, r3, #2
10009978:	001f      	movs	r7, r3
1000997a:	18ec      	adds	r4, r5, r3
1000997c:	2310      	movs	r3, #16
1000997e:	469a      	mov	sl, r3
10009980:	444f      	add	r7, r9
10009982:	19ef      	adds	r7, r5, r7
10009984:	44aa      	add	sl, r5
10009986:	0021      	movs	r1, r4
10009988:	4650      	mov	r0, sl
1000998a:	f000 f9cd 	bl	10009d28 <tu_fifo_write>
1000998e:	796b      	ldrb	r3, [r5, #5]
10009990:	2bff      	cmp	r3, #255	; 0xff
10009992:	d002      	beq.n	1000999a <cdcd_xfer_cb+0x5e>
10009994:	7821      	ldrb	r1, [r4, #0]
10009996:	4299      	cmp	r1, r3
10009998:	d049      	beq.n	10009a2e <cdcd_xfer_cb+0xf2>
1000999a:	3401      	adds	r4, #1
1000999c:	42a7      	cmp	r7, r4
1000999e:	d1f2      	bne.n	10009986 <cdcd_xfer_cb+0x4a>
100099a0:	4b35      	ldr	r3, [pc, #212]	; (10009a78 <cdcd_xfer_cb+0x13c>)
100099a2:	2b00      	cmp	r3, #0
100099a4:	d005      	beq.n	100099b2 <cdcd_xfer_cb+0x76>
100099a6:	0028      	movs	r0, r5
100099a8:	3010      	adds	r0, #16
100099aa:	f000 f8bf 	bl	10009b2c <tu_fifo_count>
100099ae:	2800      	cmp	r0, #0
100099b0:	d141      	bne.n	10009a36 <cdcd_xfer_cb+0xfa>
100099b2:	002c      	movs	r4, r5
100099b4:	3410      	adds	r4, #16
100099b6:	0020      	movs	r0, r4
100099b8:	f000 f8c6 	bl	10009b48 <tu_fifo_remaining>
100099bc:	283f      	cmp	r0, #63	; 0x3f
100099be:	d90e      	bls.n	100099de <cdcd_xfer_cb+0xa2>
100099c0:	78e9      	ldrb	r1, [r5, #3]
100099c2:	2000      	movs	r0, #0
100099c4:	f7ff fc12 	bl	100091ec <usbd_edpt_claim>
100099c8:	2800      	cmp	r0, #0
100099ca:	d008      	beq.n	100099de <cdcd_xfer_cb+0xa2>
100099cc:	0020      	movs	r0, r4
100099ce:	f000 f8bb 	bl	10009b48 <tu_fifo_remaining>
100099d2:	283f      	cmp	r0, #63	; 0x3f
100099d4:	d841      	bhi.n	10009a5a <cdcd_xfer_cb+0x11e>
100099d6:	78e9      	ldrb	r1, [r5, #3]
100099d8:	2000      	movs	r0, #0
100099da:	f7ff fc35 	bl	10009248 <usbd_edpt_release>
100099de:	78ab      	ldrb	r3, [r5, #2]
100099e0:	429e      	cmp	r6, r3
100099e2:	d10a      	bne.n	100099fa <cdcd_xfer_cb+0xbe>
100099e4:	4b25      	ldr	r3, [pc, #148]	; (10009a7c <cdcd_xfer_cb+0x140>)
100099e6:	2b00      	cmp	r3, #0
100099e8:	d002      	beq.n	100099f0 <cdcd_xfer_cb+0xb4>
100099ea:	2000      	movs	r0, #0
100099ec:	e000      	b.n	100099f0 <cdcd_xfer_cb+0xb4>
100099ee:	bf00      	nop
100099f0:	2000      	movs	r0, #0
100099f2:	f7ff fe25 	bl	10009640 <tud_cdc_n_write_flush>
100099f6:	2800      	cmp	r0, #0
100099f8:	d001      	beq.n	100099fe <cdcd_xfer_cb+0xc2>
100099fa:	2401      	movs	r4, #1
100099fc:	e7ae      	b.n	1000995c <cdcd_xfer_cb+0x20>
100099fe:	0028      	movs	r0, r5
10009a00:	3028      	adds	r0, #40	; 0x28
10009a02:	f000 f893 	bl	10009b2c <tu_fifo_count>
10009a06:	2800      	cmp	r0, #0
10009a08:	d1f7      	bne.n	100099fa <cdcd_xfer_cb+0xbe>
10009a0a:	464b      	mov	r3, r9
10009a0c:	2b00      	cmp	r3, #0
10009a0e:	d0f4      	beq.n	100099fa <cdcd_xfer_cb+0xbe>
10009a10:	069b      	lsls	r3, r3, #26
10009a12:	d1f2      	bne.n	100099fa <cdcd_xfer_cb+0xbe>
10009a14:	78a9      	ldrb	r1, [r5, #2]
10009a16:	4640      	mov	r0, r8
10009a18:	f7ff fbe8 	bl	100091ec <usbd_edpt_claim>
10009a1c:	1e04      	subs	r4, r0, #0
10009a1e:	d0ec      	beq.n	100099fa <cdcd_xfer_cb+0xbe>
10009a20:	78a9      	ldrb	r1, [r5, #2]
10009a22:	2300      	movs	r3, #0
10009a24:	2200      	movs	r2, #0
10009a26:	4640      	mov	r0, r8
10009a28:	f7ff fc34 	bl	10009294 <usbd_edpt_xfer>
10009a2c:	e796      	b.n	1000995c <cdcd_xfer_cb+0x20>
10009a2e:	2000      	movs	r0, #0
10009a30:	e000      	b.n	10009a34 <cdcd_xfer_cb+0xf8>
10009a32:	bf00      	nop
10009a34:	e7b1      	b.n	1000999a <cdcd_xfer_cb+0x5e>
10009a36:	2000      	movs	r0, #0
10009a38:	e000      	b.n	10009a3c <cdcd_xfer_cb+0x100>
10009a3a:	bf00      	nop
10009a3c:	e7b9      	b.n	100099b2 <cdcd_xfer_cb+0x76>
10009a3e:	002f      	movs	r7, r5
10009a40:	2400      	movs	r4, #0
10009a42:	3710      	adds	r7, #16
10009a44:	2394      	movs	r3, #148	; 0x94
10009a46:	009b      	lsls	r3, r3, #2
10009a48:	18e1      	adds	r1, r4, r3
10009a4a:	1869      	adds	r1, r5, r1
10009a4c:	0038      	movs	r0, r7
10009a4e:	3401      	adds	r4, #1
10009a50:	f000 f96a 	bl	10009d28 <tu_fifo_write>
10009a54:	454c      	cmp	r4, r9
10009a56:	d1f5      	bne.n	10009a44 <cdcd_xfer_cb+0x108>
10009a58:	e7a2      	b.n	100099a0 <cdcd_xfer_cb+0x64>
10009a5a:	2394      	movs	r3, #148	; 0x94
10009a5c:	009b      	lsls	r3, r3, #2
10009a5e:	18ea      	adds	r2, r5, r3
10009a60:	78e9      	ldrb	r1, [r5, #3]
10009a62:	2340      	movs	r3, #64	; 0x40
10009a64:	2000      	movs	r0, #0
10009a66:	f7ff fc15 	bl	10009294 <usbd_edpt_xfer>
10009a6a:	78ab      	ldrb	r3, [r5, #2]
10009a6c:	e7b8      	b.n	100099e0 <cdcd_xfer_cb+0xa4>
10009a6e:	46c0      	nop			; (mov r8, r8)
10009a70:	20000bc4 	.word	0x20000bc4
	...

10009a80 <tusb_init>:
10009a80:	b570      	push	{r4, r5, r6, lr}
10009a82:	4d06      	ldr	r5, [pc, #24]	; (10009a9c <tusb_init+0x1c>)
10009a84:	782c      	ldrb	r4, [r5, #0]
10009a86:	2c00      	cmp	r4, #0
10009a88:	d001      	beq.n	10009a8e <tusb_init+0xe>
10009a8a:	0020      	movs	r0, r4
10009a8c:	bd70      	pop	{r4, r5, r6, pc}
10009a8e:	f7fe fe19 	bl	100086c4 <tud_init>
10009a92:	2800      	cmp	r0, #0
10009a94:	d0f9      	beq.n	10009a8a <tusb_init+0xa>
10009a96:	2301      	movs	r3, #1
10009a98:	702b      	strb	r3, [r5, #0]
10009a9a:	e7f6      	b.n	10009a8a <tusb_init+0xa>
10009a9c:	20001661 	.word	0x20001661

10009aa0 <tusb_inited>:
10009aa0:	4b01      	ldr	r3, [pc, #4]	; (10009aa8 <tusb_inited+0x8>)
10009aa2:	7818      	ldrb	r0, [r3, #0]
10009aa4:	4770      	bx	lr
10009aa6:	46c0      	nop			; (mov r8, r8)
10009aa8:	20001661 	.word	0x20001661

10009aac <tu_fifo_config>:
10009aac:	b5f8      	push	{r3, r4, r5, r6, r7, lr}
10009aae:	4647      	mov	r7, r8
10009ab0:	46ce      	mov	lr, r9
10009ab2:	b580      	push	{r7, lr}
10009ab4:	001f      	movs	r7, r3
10009ab6:	ab08      	add	r3, sp, #32
10009ab8:	781b      	ldrb	r3, [r3, #0]
10009aba:	0005      	movs	r5, r0
10009abc:	4699      	mov	r9, r3
10009abe:	2380      	movs	r3, #128	; 0x80
10009ac0:	4688      	mov	r8, r1
10009ac2:	0014      	movs	r4, r2
10009ac4:	021b      	lsls	r3, r3, #8
10009ac6:	2600      	movs	r6, #0
10009ac8:	429a      	cmp	r2, r3
10009aca:	d81a      	bhi.n	10009b02 <tu_fifo_config+0x56>
10009acc:	6940      	ldr	r0, [r0, #20]
10009ace:	2800      	cmp	r0, #0
10009ad0:	d01c      	beq.n	10009b0c <tu_fifo_config+0x60>
10009ad2:	2101      	movs	r1, #1
10009ad4:	4249      	negs	r1, r1
10009ad6:	f001 fca3 	bl	1000b420 <__mutex_enter_timeout_ms_veneer>
10009ada:	4643      	mov	r3, r8
10009adc:	602b      	str	r3, [r5, #0]
10009ade:	464b      	mov	r3, r9
10009ae0:	80ac      	strh	r4, [r5, #4]
10009ae2:	0064      	lsls	r4, r4, #1
10009ae4:	b2a4      	uxth	r4, r4
10009ae6:	6968      	ldr	r0, [r5, #20]
10009ae8:	722b      	strb	r3, [r5, #8]
10009aea:	1e63      	subs	r3, r4, #1
10009aec:	4264      	negs	r4, r4
10009aee:	81ee      	strh	r6, [r5, #14]
10009af0:	80ef      	strh	r7, [r5, #6]
10009af2:	822e      	strh	r6, [r5, #16]
10009af4:	81ab      	strh	r3, [r5, #12]
10009af6:	816c      	strh	r4, [r5, #10]
10009af8:	3601      	adds	r6, #1
10009afa:	2800      	cmp	r0, #0
10009afc:	d001      	beq.n	10009b02 <tu_fifo_config+0x56>
10009afe:	f001 fc6f 	bl	1000b3e0 <__mutex_exit_veneer>
10009b02:	0030      	movs	r0, r6
10009b04:	bc0c      	pop	{r2, r3}
10009b06:	4690      	mov	r8, r2
10009b08:	4699      	mov	r9, r3
10009b0a:	bdf8      	pop	{r3, r4, r5, r6, r7, pc}
10009b0c:	464b      	mov	r3, r9
10009b0e:	0054      	lsls	r4, r2, #1
10009b10:	b2a4      	uxth	r4, r4
10009b12:	722b      	strb	r3, [r5, #8]
10009b14:	1e63      	subs	r3, r4, #1
10009b16:	4264      	negs	r4, r4
10009b18:	81ee      	strh	r6, [r5, #14]
10009b1a:	6029      	str	r1, [r5, #0]
10009b1c:	822e      	strh	r6, [r5, #16]
10009b1e:	80aa      	strh	r2, [r5, #4]
10009b20:	80ef      	strh	r7, [r5, #6]
10009b22:	81ab      	strh	r3, [r5, #12]
10009b24:	816c      	strh	r4, [r5, #10]
10009b26:	2601      	movs	r6, #1
10009b28:	e7eb      	b.n	10009b02 <tu_fifo_config+0x56>
10009b2a:	46c0      	nop			; (mov r8, r8)

10009b2c <tu_fifo_count>:
10009b2c:	89c1      	ldrh	r1, [r0, #14]
10009b2e:	8a02      	ldrh	r2, [r0, #16]
10009b30:	b289      	uxth	r1, r1
10009b32:	b292      	uxth	r2, r2
10009b34:	1a8b      	subs	r3, r1, r2
10009b36:	b29b      	uxth	r3, r3
10009b38:	4291      	cmp	r1, r2
10009b3a:	d202      	bcs.n	10009b42 <tu_fifo_count+0x16>
10009b3c:	8940      	ldrh	r0, [r0, #10]
10009b3e:	1a1b      	subs	r3, r3, r0
10009b40:	b29b      	uxth	r3, r3
10009b42:	0018      	movs	r0, r3
10009b44:	4770      	bx	lr
10009b46:	46c0      	nop			; (mov r8, r8)

10009b48 <tu_fifo_remaining>:
10009b48:	b510      	push	{r4, lr}
10009b4a:	89c4      	ldrh	r4, [r0, #14]
10009b4c:	8a01      	ldrh	r1, [r0, #16]
10009b4e:	b2a4      	uxth	r4, r4
10009b50:	b289      	uxth	r1, r1
10009b52:	1a63      	subs	r3, r4, r1
10009b54:	8882      	ldrh	r2, [r0, #4]
10009b56:	b29b      	uxth	r3, r3
10009b58:	428c      	cmp	r4, r1
10009b5a:	d202      	bcs.n	10009b62 <tu_fifo_remaining+0x1a>
10009b5c:	8940      	ldrh	r0, [r0, #10]
10009b5e:	1a1b      	subs	r3, r3, r0
10009b60:	b29b      	uxth	r3, r3
10009b62:	1ad0      	subs	r0, r2, r3
10009b64:	b280      	uxth	r0, r0
10009b66:	bd10      	pop	{r4, pc}

10009b68 <tu_fifo_read>:
10009b68:	b570      	push	{r4, r5, r6, lr}
10009b6a:	0004      	movs	r4, r0
10009b6c:	6940      	ldr	r0, [r0, #20]
10009b6e:	000d      	movs	r5, r1
10009b70:	2800      	cmp	r0, #0
10009b72:	d003      	beq.n	10009b7c <tu_fifo_read+0x14>
10009b74:	2101      	movs	r1, #1
10009b76:	4249      	negs	r1, r1
10009b78:	f001 fc52 	bl	1000b420 <__mutex_enter_timeout_ms_veneer>
10009b7c:	89e0      	ldrh	r0, [r4, #14]
10009b7e:	8a21      	ldrh	r1, [r4, #16]
10009b80:	b280      	uxth	r0, r0
10009b82:	b289      	uxth	r1, r1
10009b84:	1a42      	subs	r2, r0, r1
10009b86:	b292      	uxth	r2, r2
10009b88:	4288      	cmp	r0, r1
10009b8a:	d202      	bcs.n	10009b92 <tu_fifo_read+0x2a>
10009b8c:	8963      	ldrh	r3, [r4, #10]
10009b8e:	1ad2      	subs	r2, r2, r3
10009b90:	b292      	uxth	r2, r2
10009b92:	88a3      	ldrh	r3, [r4, #4]
10009b94:	4293      	cmp	r3, r2
10009b96:	d329      	bcc.n	10009bec <tu_fifo_read+0x84>
10009b98:	89a0      	ldrh	r0, [r4, #12]
10009b9a:	2a00      	cmp	r2, #0
10009b9c:	d030      	beq.n	10009c00 <tu_fifo_read+0x98>
10009b9e:	4281      	cmp	r1, r0
10009ba0:	dd06      	ble.n	10009bb0 <tu_fifo_read+0x48>
10009ba2:	8962      	ldrh	r2, [r4, #10]
10009ba4:	1889      	adds	r1, r1, r2
10009ba6:	b289      	uxth	r1, r1
10009ba8:	428b      	cmp	r3, r1
10009baa:	d803      	bhi.n	10009bb4 <tu_fifo_read+0x4c>
10009bac:	1ac9      	subs	r1, r1, r3
10009bae:	b289      	uxth	r1, r1
10009bb0:	428b      	cmp	r3, r1
10009bb2:	d9fb      	bls.n	10009bac <tu_fifo_read+0x44>
10009bb4:	6823      	ldr	r3, [r4, #0]
10009bb6:	88e2      	ldrh	r2, [r4, #6]
10009bb8:	469c      	mov	ip, r3
10009bba:	4351      	muls	r1, r2
10009bbc:	0028      	movs	r0, r5
10009bbe:	4461      	add	r1, ip
10009bc0:	f7fd fde4 	bl	1000778c <__wrap___aeabi_memcpy>
10009bc4:	2201      	movs	r2, #1
10009bc6:	8a23      	ldrh	r3, [r4, #16]
10009bc8:	89a0      	ldrh	r0, [r4, #12]
10009bca:	b29b      	uxth	r3, r3
10009bcc:	1c59      	adds	r1, r3, #1
10009bce:	2501      	movs	r5, #1
10009bd0:	189b      	adds	r3, r3, r2
10009bd2:	4281      	cmp	r1, r0
10009bd4:	dd1c      	ble.n	10009c10 <tu_fifo_read+0xa8>
10009bd6:	8962      	ldrh	r2, [r4, #10]
10009bd8:	189b      	adds	r3, r3, r2
10009bda:	b29b      	uxth	r3, r3
10009bdc:	6960      	ldr	r0, [r4, #20]
10009bde:	8223      	strh	r3, [r4, #16]
10009be0:	2800      	cmp	r0, #0
10009be2:	d001      	beq.n	10009be8 <tu_fifo_read+0x80>
10009be4:	f001 fbfc 	bl	1000b3e0 <__mutex_exit_veneer>
10009be8:	0028      	movs	r0, r5
10009bea:	bd70      	pop	{r4, r5, r6, pc}
10009bec:	1ac2      	subs	r2, r0, r3
10009bee:	4290      	cmp	r0, r2
10009bf0:	da10      	bge.n	10009c14 <tu_fifo_read+0xac>
10009bf2:	89a0      	ldrh	r0, [r4, #12]
10009bf4:	8966      	ldrh	r6, [r4, #10]
10009bf6:	1b92      	subs	r2, r2, r6
10009bf8:	b292      	uxth	r2, r2
10009bfa:	8222      	strh	r2, [r4, #16]
10009bfc:	1e1a      	subs	r2, r3, #0
10009bfe:	d1ce      	bne.n	10009b9e <tu_fifo_read+0x36>
10009c00:	2200      	movs	r2, #0
10009c02:	8a23      	ldrh	r3, [r4, #16]
10009c04:	2500      	movs	r5, #0
10009c06:	b29b      	uxth	r3, r3
10009c08:	0019      	movs	r1, r3
10009c0a:	189b      	adds	r3, r3, r2
10009c0c:	4281      	cmp	r1, r0
10009c0e:	dce2      	bgt.n	10009bd6 <tu_fifo_read+0x6e>
10009c10:	b29b      	uxth	r3, r3
10009c12:	e7e3      	b.n	10009bdc <tu_fifo_read+0x74>
10009c14:	89a0      	ldrh	r0, [r4, #12]
10009c16:	4282      	cmp	r2, r0
10009c18:	dcec      	bgt.n	10009bf4 <tu_fifo_read+0x8c>
10009c1a:	b292      	uxth	r2, r2
10009c1c:	e7ed      	b.n	10009bfa <tu_fifo_read+0x92>
10009c1e:	46c0      	nop			; (mov r8, r8)

10009c20 <tu_fifo_read_n>:
10009c20:	b5f0      	push	{r4, r5, r6, r7, lr}
10009c22:	46c6      	mov	lr, r8
10009c24:	0004      	movs	r4, r0
10009c26:	6940      	ldr	r0, [r0, #20]
10009c28:	b500      	push	{lr}
10009c2a:	4688      	mov	r8, r1
10009c2c:	0015      	movs	r5, r2
10009c2e:	2800      	cmp	r0, #0
10009c30:	d003      	beq.n	10009c3a <tu_fifo_read_n+0x1a>
10009c32:	2101      	movs	r1, #1
10009c34:	4249      	negs	r1, r1
10009c36:	f001 fbf3 	bl	1000b420 <__mutex_enter_timeout_ms_veneer>
10009c3a:	89e3      	ldrh	r3, [r4, #14]
10009c3c:	8a21      	ldrh	r1, [r4, #16]
10009c3e:	b29b      	uxth	r3, r3
10009c40:	b289      	uxth	r1, r1
10009c42:	1a5e      	subs	r6, r3, r1
10009c44:	b2b6      	uxth	r6, r6
10009c46:	428b      	cmp	r3, r1
10009c48:	d202      	bcs.n	10009c50 <tu_fifo_read_n+0x30>
10009c4a:	8962      	ldrh	r2, [r4, #10]
10009c4c:	1ab6      	subs	r6, r6, r2
10009c4e:	b2b6      	uxth	r6, r6
10009c50:	88a7      	ldrh	r7, [r4, #4]
10009c52:	42b7      	cmp	r7, r6
10009c54:	d336      	bcc.n	10009cc4 <tu_fifo_read_n+0xa4>
10009c56:	89a0      	ldrh	r0, [r4, #12]
10009c58:	2e00      	cmp	r6, #0
10009c5a:	d040      	beq.n	10009cde <tu_fifo_read_n+0xbe>
10009c5c:	1c2b      	adds	r3, r5, #0
10009c5e:	42b5      	cmp	r5, r6
10009c60:	d851      	bhi.n	10009d06 <tu_fifo_read_n+0xe6>
10009c62:	b29e      	uxth	r6, r3
10009c64:	4281      	cmp	r1, r0
10009c66:	dd06      	ble.n	10009c76 <tu_fifo_read_n+0x56>
10009c68:	8963      	ldrh	r3, [r4, #10]
10009c6a:	18c9      	adds	r1, r1, r3
10009c6c:	b289      	uxth	r1, r1
10009c6e:	428f      	cmp	r7, r1
10009c70:	d803      	bhi.n	10009c7a <tu_fifo_read_n+0x5a>
10009c72:	1bc9      	subs	r1, r1, r7
10009c74:	b289      	uxth	r1, r1
10009c76:	428f      	cmp	r7, r1
10009c78:	d9fb      	bls.n	10009c72 <tu_fifo_read_n+0x52>
10009c7a:	198b      	adds	r3, r1, r6
10009c7c:	42bb      	cmp	r3, r7
10009c7e:	dd47      	ble.n	10009d10 <tu_fifo_read_n+0xf0>
10009c80:	1a7d      	subs	r5, r7, r1
10009c82:	b2ad      	uxth	r5, r5
10009c84:	002a      	movs	r2, r5
10009c86:	88e3      	ldrh	r3, [r4, #6]
10009c88:	4640      	mov	r0, r8
10009c8a:	435a      	muls	r2, r3
10009c8c:	4359      	muls	r1, r3
10009c8e:	6823      	ldr	r3, [r4, #0]
10009c90:	469c      	mov	ip, r3
10009c92:	4461      	add	r1, ip
10009c94:	f7fd fd7a 	bl	1000778c <__wrap___aeabi_memcpy>
10009c98:	88e3      	ldrh	r3, [r4, #6]
10009c9a:	1b72      	subs	r2, r6, r5
10009c9c:	0018      	movs	r0, r3
10009c9e:	4368      	muls	r0, r5
10009ca0:	435a      	muls	r2, r3
10009ca2:	4440      	add	r0, r8
10009ca4:	6821      	ldr	r1, [r4, #0]
10009ca6:	f7fd fd71 	bl	1000778c <__wrap___aeabi_memcpy>
10009caa:	8a22      	ldrh	r2, [r4, #16]
10009cac:	b292      	uxth	r2, r2
10009cae:	1993      	adds	r3, r2, r6
10009cb0:	0019      	movs	r1, r3
10009cb2:	429a      	cmp	r2, r3
10009cb4:	dc02      	bgt.n	10009cbc <tu_fifo_read_n+0x9c>
10009cb6:	89a0      	ldrh	r0, [r4, #12]
10009cb8:	4281      	cmp	r1, r0
10009cba:	dd15      	ble.n	10009ce8 <tu_fifo_read_n+0xc8>
10009cbc:	8962      	ldrh	r2, [r4, #10]
10009cbe:	189b      	adds	r3, r3, r2
10009cc0:	b29b      	uxth	r3, r3
10009cc2:	e012      	b.n	10009cea <tu_fifo_read_n+0xca>
10009cc4:	1bda      	subs	r2, r3, r7
10009cc6:	89a0      	ldrh	r0, [r4, #12]
10009cc8:	4293      	cmp	r3, r2
10009cca:	da18      	bge.n	10009cfe <tu_fifo_read_n+0xde>
10009ccc:	8963      	ldrh	r3, [r4, #10]
10009cce:	1ad2      	subs	r2, r2, r3
10009cd0:	b292      	uxth	r2, r2
10009cd2:	8222      	strh	r2, [r4, #16]
10009cd4:	8a21      	ldrh	r1, [r4, #16]
10009cd6:	003e      	movs	r6, r7
10009cd8:	b289      	uxth	r1, r1
10009cda:	2e00      	cmp	r6, #0
10009cdc:	d1be      	bne.n	10009c5c <tu_fifo_read_n+0x3c>
10009cde:	8a21      	ldrh	r1, [r4, #16]
10009ce0:	b289      	uxth	r1, r1
10009ce2:	000b      	movs	r3, r1
10009ce4:	4281      	cmp	r1, r0
10009ce6:	dce9      	bgt.n	10009cbc <tu_fifo_read_n+0x9c>
10009ce8:	b29b      	uxth	r3, r3
10009cea:	6960      	ldr	r0, [r4, #20]
10009cec:	8223      	strh	r3, [r4, #16]
10009cee:	2800      	cmp	r0, #0
10009cf0:	d001      	beq.n	10009cf6 <tu_fifo_read_n+0xd6>
10009cf2:	f001 fb75 	bl	1000b3e0 <__mutex_exit_veneer>
10009cf6:	0030      	movs	r0, r6
10009cf8:	bc04      	pop	{r2}
10009cfa:	4690      	mov	r8, r2
10009cfc:	bdf0      	pop	{r4, r5, r6, r7, pc}
10009cfe:	4282      	cmp	r2, r0
10009d00:	dce4      	bgt.n	10009ccc <tu_fifo_read_n+0xac>
10009d02:	b292      	uxth	r2, r2
10009d04:	e7e5      	b.n	10009cd2 <tu_fifo_read_n+0xb2>
10009d06:	1c33      	adds	r3, r6, #0
10009d08:	b29e      	uxth	r6, r3
10009d0a:	4281      	cmp	r1, r0
10009d0c:	ddb3      	ble.n	10009c76 <tu_fifo_read_n+0x56>
10009d0e:	e7ab      	b.n	10009c68 <tu_fifo_read_n+0x48>
10009d10:	88e3      	ldrh	r3, [r4, #6]
10009d12:	4640      	mov	r0, r8
10009d14:	001a      	movs	r2, r3
10009d16:	4359      	muls	r1, r3
10009d18:	6823      	ldr	r3, [r4, #0]
10009d1a:	4372      	muls	r2, r6
10009d1c:	469c      	mov	ip, r3
10009d1e:	4461      	add	r1, ip
10009d20:	f7fd fd34 	bl	1000778c <__wrap___aeabi_memcpy>
10009d24:	e7c1      	b.n	10009caa <tu_fifo_read_n+0x8a>
10009d26:	46c0      	nop			; (mov r8, r8)

10009d28 <tu_fifo_write>:
10009d28:	b570      	push	{r4, r5, r6, lr}
10009d2a:	0004      	movs	r4, r0
10009d2c:	6940      	ldr	r0, [r0, #20]
10009d2e:	000e      	movs	r6, r1
10009d30:	2800      	cmp	r0, #0
10009d32:	d003      	beq.n	10009d3c <tu_fifo_write+0x14>
10009d34:	2101      	movs	r1, #1
10009d36:	4249      	negs	r1, r1
10009d38:	f001 fb72 	bl	1000b420 <__mutex_enter_timeout_ms_veneer>
10009d3c:	89e5      	ldrh	r5, [r4, #14]
10009d3e:	8a23      	ldrh	r3, [r4, #16]
10009d40:	b2ad      	uxth	r5, r5
10009d42:	b29b      	uxth	r3, r3
10009d44:	1aea      	subs	r2, r5, r3
10009d46:	b292      	uxth	r2, r2
10009d48:	429d      	cmp	r5, r3
10009d4a:	d202      	bcs.n	10009d52 <tu_fifo_write+0x2a>
10009d4c:	8963      	ldrh	r3, [r4, #10]
10009d4e:	1ad2      	subs	r2, r2, r3
10009d50:	b292      	uxth	r2, r2
10009d52:	88a3      	ldrh	r3, [r4, #4]
10009d54:	4293      	cmp	r3, r2
10009d56:	d02b      	beq.n	10009db0 <tu_fifo_write+0x88>
10009d58:	89a2      	ldrh	r2, [r4, #12]
10009d5a:	0028      	movs	r0, r5
10009d5c:	4295      	cmp	r5, r2
10009d5e:	dd06      	ble.n	10009d6e <tu_fifo_write+0x46>
10009d60:	8960      	ldrh	r0, [r4, #10]
10009d62:	1828      	adds	r0, r5, r0
10009d64:	b280      	uxth	r0, r0
10009d66:	4283      	cmp	r3, r0
10009d68:	d803      	bhi.n	10009d72 <tu_fifo_write+0x4a>
10009d6a:	1ac0      	subs	r0, r0, r3
10009d6c:	b280      	uxth	r0, r0
10009d6e:	4283      	cmp	r3, r0
10009d70:	d9fb      	bls.n	10009d6a <tu_fifo_write+0x42>
10009d72:	6823      	ldr	r3, [r4, #0]
10009d74:	88e2      	ldrh	r2, [r4, #6]
10009d76:	469c      	mov	ip, r3
10009d78:	4350      	muls	r0, r2
10009d7a:	0031      	movs	r1, r6
10009d7c:	4460      	add	r0, ip
10009d7e:	f7fd fd05 	bl	1000778c <__wrap___aeabi_memcpy>
10009d82:	89a3      	ldrh	r3, [r4, #12]
10009d84:	42ab      	cmp	r3, r5
10009d86:	dd09      	ble.n	10009d9c <tu_fifo_write+0x74>
10009d88:	3501      	adds	r5, #1
10009d8a:	6960      	ldr	r0, [r4, #20]
10009d8c:	b2ad      	uxth	r5, r5
10009d8e:	81e5      	strh	r5, [r4, #14]
10009d90:	2800      	cmp	r0, #0
10009d92:	d00b      	beq.n	10009dac <tu_fifo_write+0x84>
10009d94:	f001 fb24 	bl	1000b3e0 <__mutex_exit_veneer>
10009d98:	2001      	movs	r0, #1
10009d9a:	bd70      	pop	{r4, r5, r6, pc}
10009d9c:	8963      	ldrh	r3, [r4, #10]
10009d9e:	6960      	ldr	r0, [r4, #20]
10009da0:	18ed      	adds	r5, r5, r3
10009da2:	3501      	adds	r5, #1
10009da4:	b2ad      	uxth	r5, r5
10009da6:	81e5      	strh	r5, [r4, #14]
10009da8:	2800      	cmp	r0, #0
10009daa:	d1f3      	bne.n	10009d94 <tu_fifo_write+0x6c>
10009dac:	2001      	movs	r0, #1
10009dae:	e7f4      	b.n	10009d9a <tu_fifo_write+0x72>
10009db0:	7a20      	ldrb	r0, [r4, #8]
10009db2:	2800      	cmp	r0, #0
10009db4:	d1d0      	bne.n	10009d58 <tu_fifo_write+0x30>
10009db6:	e7f0      	b.n	10009d9a <tu_fifo_write+0x72>

10009db8 <tu_fifo_write_n>:
10009db8:	b5f8      	push	{r3, r4, r5, r6, r7, lr}
10009dba:	4647      	mov	r7, r8
10009dbc:	46ce      	mov	lr, r9
10009dbe:	0004      	movs	r4, r0
10009dc0:	b580      	push	{r7, lr}
10009dc2:	4688      	mov	r8, r1
10009dc4:	0015      	movs	r5, r2
10009dc6:	2700      	movs	r7, #0
10009dc8:	2a00      	cmp	r2, #0
10009dca:	d051      	beq.n	10009e70 <tu_fifo_write_n+0xb8>
10009dcc:	6940      	ldr	r0, [r0, #20]
10009dce:	2800      	cmp	r0, #0
10009dd0:	d003      	beq.n	10009dda <tu_fifo_write_n+0x22>
10009dd2:	2101      	movs	r1, #1
10009dd4:	4249      	negs	r1, r1
10009dd6:	f001 fb23 	bl	1000b420 <__mutex_enter_timeout_ms_veneer>
10009dda:	89e6      	ldrh	r6, [r4, #14]
10009ddc:	7a23      	ldrb	r3, [r4, #8]
10009dde:	8a21      	ldrh	r1, [r4, #16]
10009de0:	b2b6      	uxth	r6, r6
10009de2:	b289      	uxth	r1, r1
10009de4:	2b00      	cmp	r3, #0
10009de6:	d148      	bne.n	10009e7a <tu_fifo_write_n+0xc2>
10009de8:	1a72      	subs	r2, r6, r1
10009dea:	88a3      	ldrh	r3, [r4, #4]
10009dec:	b292      	uxth	r2, r2
10009dee:	428e      	cmp	r6, r1
10009df0:	d202      	bcs.n	10009df8 <tu_fifo_write_n+0x40>
10009df2:	8961      	ldrh	r1, [r4, #10]
10009df4:	1a52      	subs	r2, r2, r1
10009df6:	b292      	uxth	r2, r2
10009df8:	1a9a      	subs	r2, r3, r2
10009dfa:	1c17      	adds	r7, r2, #0
10009dfc:	b292      	uxth	r2, r2
10009dfe:	42aa      	cmp	r2, r5
10009e00:	d850      	bhi.n	10009ea4 <tu_fifo_write_n+0xec>
10009e02:	b2bf      	uxth	r7, r7
10009e04:	003d      	movs	r5, r7
10009e06:	88e2      	ldrh	r2, [r4, #6]
10009e08:	89a1      	ldrh	r1, [r4, #12]
10009e0a:	0030      	movs	r0, r6
10009e0c:	428e      	cmp	r6, r1
10009e0e:	dd05      	ble.n	10009e1c <tu_fifo_write_n+0x64>
10009e10:	8960      	ldrh	r0, [r4, #10]
10009e12:	1830      	adds	r0, r6, r0
10009e14:	b280      	uxth	r0, r0
10009e16:	e001      	b.n	10009e1c <tu_fifo_write_n+0x64>
10009e18:	1ac0      	subs	r0, r0, r3
10009e1a:	b280      	uxth	r0, r0
10009e1c:	4298      	cmp	r0, r3
10009e1e:	d2fb      	bcs.n	10009e18 <tu_fifo_write_n+0x60>
10009e20:	1941      	adds	r1, r0, r5
10009e22:	4299      	cmp	r1, r3
10009e24:	dd35      	ble.n	10009e92 <tu_fifo_write_n+0xda>
10009e26:	1a1b      	subs	r3, r3, r0
10009e28:	b29b      	uxth	r3, r3
10009e2a:	4699      	mov	r9, r3
10009e2c:	6823      	ldr	r3, [r4, #0]
10009e2e:	4350      	muls	r0, r2
10009e30:	469c      	mov	ip, r3
10009e32:	464b      	mov	r3, r9
10009e34:	4641      	mov	r1, r8
10009e36:	435a      	muls	r2, r3
10009e38:	4460      	add	r0, ip
10009e3a:	f7fd fca7 	bl	1000778c <__wrap___aeabi_memcpy>
10009e3e:	464b      	mov	r3, r9
10009e40:	88e1      	ldrh	r1, [r4, #6]
10009e42:	1aea      	subs	r2, r5, r3
10009e44:	434a      	muls	r2, r1
10009e46:	4359      	muls	r1, r3
10009e48:	6820      	ldr	r0, [r4, #0]
10009e4a:	4441      	add	r1, r8
10009e4c:	f7fd fc9e 	bl	1000778c <__wrap___aeabi_memcpy>
10009e50:	1975      	adds	r5, r6, r5
10009e52:	42b5      	cmp	r5, r6
10009e54:	db02      	blt.n	10009e5c <tu_fifo_write_n+0xa4>
10009e56:	89a3      	ldrh	r3, [r4, #12]
10009e58:	429d      	cmp	r5, r3
10009e5a:	dd28      	ble.n	10009eae <tu_fifo_write_n+0xf6>
10009e5c:	8963      	ldrh	r3, [r4, #10]
10009e5e:	18f6      	adds	r6, r6, r3
10009e60:	19be      	adds	r6, r7, r6
10009e62:	b2b6      	uxth	r6, r6
10009e64:	6960      	ldr	r0, [r4, #20]
10009e66:	81e6      	strh	r6, [r4, #14]
10009e68:	2800      	cmp	r0, #0
10009e6a:	d001      	beq.n	10009e70 <tu_fifo_write_n+0xb8>
10009e6c:	f001 fab8 	bl	1000b3e0 <__mutex_exit_veneer>
10009e70:	0038      	movs	r0, r7
10009e72:	bc0c      	pop	{r2, r3}
10009e74:	4690      	mov	r8, r2
10009e76:	4699      	mov	r9, r3
10009e78:	bdf8      	pop	{r3, r4, r5, r6, r7, pc}
10009e7a:	88a3      	ldrh	r3, [r4, #4]
10009e7c:	88e2      	ldrh	r2, [r4, #6]
10009e7e:	002f      	movs	r7, r5
10009e80:	429d      	cmp	r5, r3
10009e82:	d9c1      	bls.n	10009e08 <tu_fifo_write_n+0x50>
10009e84:	1aed      	subs	r5, r5, r3
10009e86:	4355      	muls	r5, r2
10009e88:	81e1      	strh	r1, [r4, #14]
10009e8a:	44a8      	add	r8, r5
10009e8c:	001f      	movs	r7, r3
10009e8e:	001d      	movs	r5, r3
10009e90:	e7ba      	b.n	10009e08 <tu_fifo_write_n+0x50>
10009e92:	6823      	ldr	r3, [r4, #0]
10009e94:	4350      	muls	r0, r2
10009e96:	469c      	mov	ip, r3
10009e98:	436a      	muls	r2, r5
10009e9a:	4460      	add	r0, ip
10009e9c:	4641      	mov	r1, r8
10009e9e:	f7fd fc75 	bl	1000778c <__wrap___aeabi_memcpy>
10009ea2:	e7d5      	b.n	10009e50 <tu_fifo_write_n+0x98>
10009ea4:	1c2f      	adds	r7, r5, #0
10009ea6:	b2bf      	uxth	r7, r7
10009ea8:	88e2      	ldrh	r2, [r4, #6]
10009eaa:	003d      	movs	r5, r7
10009eac:	e7ac      	b.n	10009e08 <tu_fifo_write_n+0x50>
10009eae:	19be      	adds	r6, r7, r6
10009eb0:	b2b6      	uxth	r6, r6
10009eb2:	e7d7      	b.n	10009e64 <tu_fifo_write_n+0xac>

10009eb4 <tu_fifo_clear>:
10009eb4:	b510      	push	{r4, lr}
10009eb6:	0004      	movs	r4, r0
10009eb8:	6940      	ldr	r0, [r0, #20]
10009eba:	2800      	cmp	r0, #0
10009ebc:	d00d      	beq.n	10009eda <tu_fifo_clear+0x26>
10009ebe:	2101      	movs	r1, #1
10009ec0:	4249      	negs	r1, r1
10009ec2:	f001 faad 	bl	1000b420 <__mutex_enter_timeout_ms_veneer>
10009ec6:	2300      	movs	r3, #0
10009ec8:	6960      	ldr	r0, [r4, #20]
10009eca:	81e3      	strh	r3, [r4, #14]
10009ecc:	8223      	strh	r3, [r4, #16]
10009ece:	2800      	cmp	r0, #0
10009ed0:	d001      	beq.n	10009ed6 <tu_fifo_clear+0x22>
10009ed2:	f001 fa85 	bl	1000b3e0 <__mutex_exit_veneer>
10009ed6:	2001      	movs	r0, #1
10009ed8:	bd10      	pop	{r4, pc}
10009eda:	81e0      	strh	r0, [r4, #14]
10009edc:	8220      	strh	r0, [r4, #16]
10009ede:	e7fa      	b.n	10009ed6 <tu_fifo_clear+0x22>

10009ee0 <pio_claim_unused_sm>:
10009ee0:	4b0b      	ldr	r3, [pc, #44]	; (10009f10 <pio_claim_unused_sm+0x30>)
10009ee2:	b510      	push	{r4, lr}
10009ee4:	469c      	mov	ip, r3
10009ee6:	4460      	add	r0, ip
10009ee8:	4244      	negs	r4, r0
10009eea:	4144      	adcs	r4, r0
10009eec:	4a09      	ldr	r2, [pc, #36]	; (10009f14 <pio_claim_unused_sm+0x34>)
10009eee:	00a4      	lsls	r4, r4, #2
10009ef0:	b082      	sub	sp, #8
10009ef2:	9200      	str	r2, [sp, #0]
10009ef4:	1ce3      	adds	r3, r4, #3
10009ef6:	0022      	movs	r2, r4
10009ef8:	4807      	ldr	r0, [pc, #28]	; (10009f18 <pio_claim_unused_sm+0x38>)
10009efa:	f7f9 fb83 	bl	10003604 <hw_claim_unused_from_range>
10009efe:	4284      	cmp	r4, r0
10009f00:	d802      	bhi.n	10009f08 <pio_claim_unused_sm+0x28>
10009f02:	1b00      	subs	r0, r0, r4
10009f04:	b002      	add	sp, #8
10009f06:	bd10      	pop	{r4, pc}
10009f08:	2001      	movs	r0, #1
10009f0a:	4240      	negs	r0, r0
10009f0c:	e7fa      	b.n	10009f04 <pio_claim_unused_sm+0x24>
10009f0e:	46c0      	nop			; (mov r8, r8)
10009f10:	afd00000 	.word	0xafd00000
10009f14:	1000bb18 	.word	0x1000bb18
10009f18:	20001664 	.word	0x20001664

10009f1c <pio_add_program>:
10009f1c:	b5f8      	push	{r3, r4, r5, r6, r7, lr}
10009f1e:	4657      	mov	r7, sl
10009f20:	464e      	mov	r6, r9
10009f22:	4645      	mov	r5, r8
10009f24:	46de      	mov	lr, fp
10009f26:	b5e0      	push	{r5, r6, r7, lr}
10009f28:	0007      	movs	r7, r0
10009f2a:	000c      	movs	r4, r1
10009f2c:	f7f9 fb32 	bl	10003594 <hw_claim_lock>
10009f30:	4b2b      	ldr	r3, [pc, #172]	; (10009fe0 <pio_add_program+0xc4>)
10009f32:	7926      	ldrb	r6, [r4, #4]
10009f34:	18fb      	adds	r3, r7, r3
10009f36:	425a      	negs	r2, r3
10009f38:	4153      	adcs	r3, r2
10009f3a:	009b      	lsls	r3, r3, #2
10009f3c:	4698      	mov	r8, r3
10009f3e:	4a29      	ldr	r2, [pc, #164]	; (10009fe4 <pio_add_program+0xc8>)
10009f40:	2505      	movs	r5, #5
10009f42:	0013      	movs	r3, r2
10009f44:	4691      	mov	r9, r2
10009f46:	4642      	mov	r2, r8
10009f48:	589b      	ldr	r3, [r3, r2]
10009f4a:	2201      	movs	r2, #1
10009f4c:	469c      	mov	ip, r3
10009f4e:	40b2      	lsls	r2, r6
10009f50:	2320      	movs	r3, #32
10009f52:	5765      	ldrsb	r5, [r4, r5]
10009f54:	4682      	mov	sl, r0
10009f56:	3a01      	subs	r2, #1
10009f58:	1b9b      	subs	r3, r3, r6
10009f5a:	2d00      	cmp	r5, #0
10009f5c:	db32      	blt.n	10009fc4 <pio_add_program+0xa8>
10009f5e:	429d      	cmp	r5, r3
10009f60:	dc3b      	bgt.n	10009fda <pio_add_program+0xbe>
10009f62:	40aa      	lsls	r2, r5
10009f64:	4663      	mov	r3, ip
10009f66:	4693      	mov	fp, r2
10009f68:	4213      	tst	r3, r2
10009f6a:	d136      	bne.n	10009fda <pio_add_program+0xbe>
10009f6c:	2e00      	cmp	r6, #0
10009f6e:	d019      	beq.n	10009fa4 <pio_add_program+0x88>
10009f70:	7863      	ldrb	r3, [r4, #1]
10009f72:	7821      	ldrb	r1, [r4, #0]
10009f74:	021b      	lsls	r3, r3, #8
10009f76:	430b      	orrs	r3, r1
10009f78:	78a1      	ldrb	r1, [r4, #2]
10009f7a:	19ae      	adds	r6, r5, r6
10009f7c:	0409      	lsls	r1, r1, #16
10009f7e:	430b      	orrs	r3, r1
10009f80:	78e1      	ldrb	r1, [r4, #3]
10009f82:	0609      	lsls	r1, r1, #24
10009f84:	4319      	orrs	r1, r3
10009f86:	002b      	movs	r3, r5
10009f88:	880a      	ldrh	r2, [r1, #0]
10009f8a:	0b50      	lsrs	r0, r2, #13
10009f8c:	18ac      	adds	r4, r5, r2
10009f8e:	2800      	cmp	r0, #0
10009f90:	d000      	beq.n	10009f94 <pio_add_program+0x78>
10009f92:	0014      	movs	r4, r2
10009f94:	001a      	movs	r2, r3
10009f96:	3212      	adds	r2, #18
10009f98:	0092      	lsls	r2, r2, #2
10009f9a:	3301      	adds	r3, #1
10009f9c:	51d4      	str	r4, [r2, r7]
10009f9e:	3102      	adds	r1, #2
10009fa0:	429e      	cmp	r6, r3
10009fa2:	d1f1      	bne.n	10009f88 <pio_add_program+0x6c>
10009fa4:	465b      	mov	r3, fp
10009fa6:	4660      	mov	r0, ip
10009fa8:	4642      	mov	r2, r8
10009faa:	4318      	orrs	r0, r3
10009fac:	464b      	mov	r3, r9
10009fae:	5098      	str	r0, [r3, r2]
10009fb0:	4650      	mov	r0, sl
10009fb2:	f7f9 fafb 	bl	100035ac <hw_claim_unlock>
10009fb6:	0028      	movs	r0, r5
10009fb8:	bc3c      	pop	{r2, r3, r4, r5}
10009fba:	4690      	mov	r8, r2
10009fbc:	4699      	mov	r9, r3
10009fbe:	46a2      	mov	sl, r4
10009fc0:	46ab      	mov	fp, r5
10009fc2:	bdf8      	pop	{r3, r4, r5, r6, r7, pc}
10009fc4:	2b00      	cmp	r3, #0
10009fc6:	db08      	blt.n	10009fda <pio_add_program+0xbe>
10009fc8:	0011      	movs	r1, r2
10009fca:	4660      	mov	r0, ip
10009fcc:	4099      	lsls	r1, r3
10009fce:	001d      	movs	r5, r3
10009fd0:	468b      	mov	fp, r1
10009fd2:	4201      	tst	r1, r0
10009fd4:	d0ca      	beq.n	10009f6c <pio_add_program+0x50>
10009fd6:	3b01      	subs	r3, #1
10009fd8:	d2f6      	bcs.n	10009fc8 <pio_add_program+0xac>
10009fda:	4803      	ldr	r0, [pc, #12]	; (10009fe8 <pio_add_program+0xcc>)
10009fdc:	f7fa fce4 	bl	100049a8 <panic>
10009fe0:	afd00000 	.word	0xafd00000
10009fe4:	20000f30 	.word	0x20000f30
10009fe8:	1000bb04 	.word	0x1000bb04

10009fec <pio_sm_set_pins_with_mask>:
10009fec:	b5f0      	push	{r4, r5, r6, r7, lr}
10009fee:	464e      	mov	r6, r9
10009ff0:	4645      	mov	r5, r8
10009ff2:	46de      	mov	lr, fp
10009ff4:	4657      	mov	r7, sl
10009ff6:	001c      	movs	r4, r3
10009ff8:	004b      	lsls	r3, r1, #1
10009ffa:	b5e0      	push	{r5, r6, r7, lr}
10009ffc:	4689      	mov	r9, r1
10009ffe:	001d      	movs	r5, r3
1000a000:	4684      	mov	ip, r0
1000a002:	444d      	add	r5, r9
1000a004:	00ed      	lsls	r5, r5, #3
1000a006:	4465      	add	r5, ip
1000a008:	002e      	movs	r6, r5
1000a00a:	b085      	sub	sp, #20
1000a00c:	36dc      	adds	r6, #220	; 0xdc
1000a00e:	9303      	str	r3, [sp, #12]
1000a010:	6833      	ldr	r3, [r6, #0]
1000a012:	9002      	str	r0, [sp, #8]
1000a014:	4690      	mov	r8, r2
1000a016:	9301      	str	r3, [sp, #4]
1000a018:	2c00      	cmp	r4, #0
1000a01a:	d017      	beq.n	1000a04c <pio_sm_set_pins_with_mask+0x60>
1000a01c:	2380      	movs	r3, #128	; 0x80
1000a01e:	04db      	lsls	r3, r3, #19
1000a020:	469b      	mov	fp, r3
1000a022:	2301      	movs	r3, #1
1000a024:	27e0      	movs	r7, #224	; 0xe0
1000a026:	469a      	mov	sl, r3
1000a028:	023f      	lsls	r7, r7, #8
1000a02a:	35d8      	adds	r5, #216	; 0xd8
1000a02c:	0020      	movs	r0, r4
1000a02e:	f7fc fc6d 	bl	1000690c <__wrap___ctzsi2>
1000a032:	465a      	mov	r2, fp
1000a034:	0143      	lsls	r3, r0, #5
1000a036:	4313      	orrs	r3, r2
1000a038:	6033      	str	r3, [r6, #0]
1000a03a:	4643      	mov	r3, r8
1000a03c:	4652      	mov	r2, sl
1000a03e:	40c3      	lsrs	r3, r0
1000a040:	4013      	ands	r3, r2
1000a042:	433b      	orrs	r3, r7
1000a044:	602b      	str	r3, [r5, #0]
1000a046:	1e63      	subs	r3, r4, #1
1000a048:	401c      	ands	r4, r3
1000a04a:	d1ef      	bne.n	1000a02c <pio_sm_set_pins_with_mask+0x40>
1000a04c:	9b03      	ldr	r3, [sp, #12]
1000a04e:	444b      	add	r3, r9
1000a050:	00df      	lsls	r7, r3, #3
1000a052:	9b02      	ldr	r3, [sp, #8]
1000a054:	469c      	mov	ip, r3
1000a056:	9b01      	ldr	r3, [sp, #4]
1000a058:	4467      	add	r7, ip
1000a05a:	37dc      	adds	r7, #220	; 0xdc
1000a05c:	603b      	str	r3, [r7, #0]
1000a05e:	b005      	add	sp, #20
1000a060:	bc3c      	pop	{r2, r3, r4, r5}
1000a062:	4690      	mov	r8, r2
1000a064:	4699      	mov	r9, r3
1000a066:	46a2      	mov	sl, r4
1000a068:	46ab      	mov	fp, r5
1000a06a:	bdf0      	pop	{r4, r5, r6, r7, pc}

1000a06c <pio_sm_set_pindirs_with_mask>:
1000a06c:	b5f0      	push	{r4, r5, r6, r7, lr}
1000a06e:	464e      	mov	r6, r9
1000a070:	4645      	mov	r5, r8
1000a072:	46de      	mov	lr, fp
1000a074:	4657      	mov	r7, sl
1000a076:	001c      	movs	r4, r3
1000a078:	004b      	lsls	r3, r1, #1
1000a07a:	b5e0      	push	{r5, r6, r7, lr}
1000a07c:	4689      	mov	r9, r1
1000a07e:	001d      	movs	r5, r3
1000a080:	4684      	mov	ip, r0
1000a082:	444d      	add	r5, r9
1000a084:	00ed      	lsls	r5, r5, #3
1000a086:	4465      	add	r5, ip
1000a088:	002e      	movs	r6, r5
1000a08a:	b085      	sub	sp, #20
1000a08c:	36dc      	adds	r6, #220	; 0xdc
1000a08e:	9303      	str	r3, [sp, #12]
1000a090:	6833      	ldr	r3, [r6, #0]
1000a092:	9002      	str	r0, [sp, #8]
1000a094:	4690      	mov	r8, r2
1000a096:	9301      	str	r3, [sp, #4]
1000a098:	2c00      	cmp	r4, #0
1000a09a:	d016      	beq.n	1000a0ca <pio_sm_set_pindirs_with_mask+0x5e>
1000a09c:	2380      	movs	r3, #128	; 0x80
1000a09e:	04db      	lsls	r3, r3, #19
1000a0a0:	469b      	mov	fp, r3
1000a0a2:	2301      	movs	r3, #1
1000a0a4:	469a      	mov	sl, r3
1000a0a6:	4f11      	ldr	r7, [pc, #68]	; (1000a0ec <pio_sm_set_pindirs_with_mask+0x80>)
1000a0a8:	35d8      	adds	r5, #216	; 0xd8
1000a0aa:	0020      	movs	r0, r4
1000a0ac:	f7fc fc2e 	bl	1000690c <__wrap___ctzsi2>
1000a0b0:	465a      	mov	r2, fp
1000a0b2:	0143      	lsls	r3, r0, #5
1000a0b4:	4313      	orrs	r3, r2
1000a0b6:	6033      	str	r3, [r6, #0]
1000a0b8:	4643      	mov	r3, r8
1000a0ba:	4652      	mov	r2, sl
1000a0bc:	40c3      	lsrs	r3, r0
1000a0be:	4013      	ands	r3, r2
1000a0c0:	433b      	orrs	r3, r7
1000a0c2:	602b      	str	r3, [r5, #0]
1000a0c4:	1e63      	subs	r3, r4, #1
1000a0c6:	401c      	ands	r4, r3
1000a0c8:	d1ef      	bne.n	1000a0aa <pio_sm_set_pindirs_with_mask+0x3e>
1000a0ca:	9b03      	ldr	r3, [sp, #12]
1000a0cc:	444b      	add	r3, r9
1000a0ce:	00df      	lsls	r7, r3, #3
1000a0d0:	9b02      	ldr	r3, [sp, #8]
1000a0d2:	469c      	mov	ip, r3
1000a0d4:	9b01      	ldr	r3, [sp, #4]
1000a0d6:	4467      	add	r7, ip
1000a0d8:	37dc      	adds	r7, #220	; 0xdc
1000a0da:	603b      	str	r3, [r7, #0]
1000a0dc:	b005      	add	sp, #20
1000a0de:	bc3c      	pop	{r2, r3, r4, r5}
1000a0e0:	4690      	mov	r8, r2
1000a0e2:	4699      	mov	r9, r3
1000a0e4:	46a2      	mov	sl, r4
1000a0e6:	46ab      	mov	fp, r5
1000a0e8:	bdf0      	pop	{r4, r5, r6, r7, pc}
1000a0ea:	46c0      	nop			; (mov r8, r8)
1000a0ec:	0000e080 	.word	0x0000e080

1000a0f0 <pio_sm_set_consecutive_pindirs>:
1000a0f0:	b5f0      	push	{r4, r5, r6, r7, lr}
1000a0f2:	4645      	mov	r5, r8
1000a0f4:	46de      	mov	lr, fp
1000a0f6:	464e      	mov	r6, r9
1000a0f8:	4657      	mov	r7, sl
1000a0fa:	b5e0      	push	{r5, r6, r7, lr}
1000a0fc:	468b      	mov	fp, r1
1000a0fe:	ac09      	add	r4, sp, #36	; 0x24
1000a100:	0049      	lsls	r1, r1, #1
1000a102:	7825      	ldrb	r5, [r4, #0]
1000a104:	000c      	movs	r4, r1
1000a106:	4681      	mov	r9, r0
1000a108:	445c      	add	r4, fp
1000a10a:	00e4      	lsls	r4, r4, #3
1000a10c:	444c      	add	r4, r9
1000a10e:	34dc      	adds	r4, #220	; 0xdc
1000a110:	4688      	mov	r8, r1
1000a112:	6821      	ldr	r1, [r4, #0]
1000a114:	468c      	mov	ip, r1
1000a116:	2d00      	cmp	r5, #0
1000a118:	d02c      	beq.n	1000a174 <pio_sm_set_consecutive_pindirs+0x84>
1000a11a:	4e17      	ldr	r6, [pc, #92]	; (1000a178 <pio_sm_set_consecutive_pindirs+0x88>)
1000a11c:	2b05      	cmp	r3, #5
1000a11e:	d914      	bls.n	1000a14a <pio_sm_set_consecutive_pindirs+0x5a>
1000a120:	4645      	mov	r5, r8
1000a122:	21a0      	movs	r1, #160	; 0xa0
1000a124:	445d      	add	r5, fp
1000a126:	00ed      	lsls	r5, r5, #3
1000a128:	444d      	add	r5, r9
1000a12a:	0028      	movs	r0, r5
1000a12c:	0549      	lsls	r1, r1, #21
1000a12e:	468a      	mov	sl, r1
1000a130:	271f      	movs	r7, #31
1000a132:	30dc      	adds	r0, #220	; 0xdc
1000a134:	35d8      	adds	r5, #216	; 0xd8
1000a136:	4651      	mov	r1, sl
1000a138:	0154      	lsls	r4, r2, #5
1000a13a:	430c      	orrs	r4, r1
1000a13c:	3205      	adds	r2, #5
1000a13e:	3b05      	subs	r3, #5
1000a140:	6004      	str	r4, [r0, #0]
1000a142:	403a      	ands	r2, r7
1000a144:	602e      	str	r6, [r5, #0]
1000a146:	2b05      	cmp	r3, #5
1000a148:	d8f5      	bhi.n	1000a136 <pio_sm_set_consecutive_pindirs+0x46>
1000a14a:	4659      	mov	r1, fp
1000a14c:	4441      	add	r1, r8
1000a14e:	00c9      	lsls	r1, r1, #3
1000a150:	4449      	add	r1, r9
1000a152:	069b      	lsls	r3, r3, #26
1000a154:	0152      	lsls	r2, r2, #5
1000a156:	431a      	orrs	r2, r3
1000a158:	000b      	movs	r3, r1
1000a15a:	0008      	movs	r0, r1
1000a15c:	33dc      	adds	r3, #220	; 0xdc
1000a15e:	601a      	str	r2, [r3, #0]
1000a160:	4662      	mov	r2, ip
1000a162:	30d8      	adds	r0, #216	; 0xd8
1000a164:	6006      	str	r6, [r0, #0]
1000a166:	601a      	str	r2, [r3, #0]
1000a168:	bc3c      	pop	{r2, r3, r4, r5}
1000a16a:	4690      	mov	r8, r2
1000a16c:	4699      	mov	r9, r3
1000a16e:	46a2      	mov	sl, r4
1000a170:	46ab      	mov	fp, r5
1000a172:	bdf0      	pop	{r4, r5, r6, r7, pc}
1000a174:	4e01      	ldr	r6, [pc, #4]	; (1000a17c <pio_sm_set_consecutive_pindirs+0x8c>)
1000a176:	e7d1      	b.n	1000a11c <pio_sm_set_consecutive_pindirs+0x2c>
1000a178:	0000e09f 	.word	0x0000e09f
1000a17c:	0000e080 	.word	0x0000e080

1000a180 <pio_sm_init>:
1000a180:	b5f0      	push	{r4, r5, r6, r7, lr}
1000a182:	2501      	movs	r5, #1
1000a184:	408d      	lsls	r5, r1
1000a186:	6804      	ldr	r4, [r0, #0]
1000a188:	43ac      	bics	r4, r5
1000a18a:	004d      	lsls	r5, r1, #1
1000a18c:	6004      	str	r4, [r0, #0]
1000a18e:	186c      	adds	r4, r5, r1
1000a190:	00e4      	lsls	r4, r4, #3
1000a192:	1904      	adds	r4, r0, r4
1000a194:	0026      	movs	r6, r4
1000a196:	36c8      	adds	r6, #200	; 0xc8
1000a198:	2b00      	cmp	r3, #0
1000a19a:	d02a      	beq.n	1000a1f2 <pio_sm_init+0x72>
1000a19c:	681f      	ldr	r7, [r3, #0]
1000a19e:	34dc      	adds	r4, #220	; 0xdc
1000a1a0:	6037      	str	r7, [r6, #0]
1000a1a2:	685f      	ldr	r7, [r3, #4]
1000a1a4:	6077      	str	r7, [r6, #4]
1000a1a6:	689f      	ldr	r7, [r3, #8]
1000a1a8:	68db      	ldr	r3, [r3, #12]
1000a1aa:	60b7      	str	r7, [r6, #8]
1000a1ac:	6023      	str	r3, [r4, #0]
1000a1ae:	186b      	adds	r3, r5, r1
1000a1b0:	00db      	lsls	r3, r3, #3
1000a1b2:	001d      	movs	r5, r3
1000a1b4:	2480      	movs	r4, #128	; 0x80
1000a1b6:	35d0      	adds	r5, #208	; 0xd0
1000a1b8:	1945      	adds	r5, r0, r5
1000a1ba:	0164      	lsls	r4, r4, #5
1000a1bc:	432c      	orrs	r4, r5
1000a1be:	2580      	movs	r5, #128	; 0x80
1000a1c0:	062d      	lsls	r5, r5, #24
1000a1c2:	6025      	str	r5, [r4, #0]
1000a1c4:	6025      	str	r5, [r4, #0]
1000a1c6:	4c11      	ldr	r4, [pc, #68]	; (1000a20c <pio_sm_init+0x8c>)
1000a1c8:	1d0d      	adds	r5, r1, #4
1000a1ca:	408c      	lsls	r4, r1
1000a1cc:	6084      	str	r4, [r0, #8]
1000a1ce:	2401      	movs	r4, #1
1000a1d0:	0027      	movs	r7, r4
1000a1d2:	40af      	lsls	r7, r5
1000a1d4:	003d      	movs	r5, r7
1000a1d6:	3108      	adds	r1, #8
1000a1d8:	408c      	lsls	r4, r1
1000a1da:	211f      	movs	r1, #31
1000a1dc:	6806      	ldr	r6, [r0, #0]
1000a1de:	400a      	ands	r2, r1
1000a1e0:	4335      	orrs	r5, r6
1000a1e2:	6005      	str	r5, [r0, #0]
1000a1e4:	6805      	ldr	r5, [r0, #0]
1000a1e6:	432c      	orrs	r4, r5
1000a1e8:	6004      	str	r4, [r0, #0]
1000a1ea:	18c0      	adds	r0, r0, r3
1000a1ec:	30d8      	adds	r0, #216	; 0xd8
1000a1ee:	6002      	str	r2, [r0, #0]
1000a1f0:	bdf0      	pop	{r4, r5, r6, r7, pc}
1000a1f2:	2780      	movs	r7, #128	; 0x80
1000a1f4:	027f      	lsls	r7, r7, #9
1000a1f6:	6037      	str	r7, [r6, #0]
1000a1f8:	27f8      	movs	r7, #248	; 0xf8
1000a1fa:	027f      	lsls	r7, r7, #9
1000a1fc:	6077      	str	r7, [r6, #4]
1000a1fe:	27c0      	movs	r7, #192	; 0xc0
1000a200:	34dc      	adds	r4, #220	; 0xdc
1000a202:	033f      	lsls	r7, r7, #12
1000a204:	60b7      	str	r7, [r6, #8]
1000a206:	6023      	str	r3, [r4, #0]
1000a208:	e7d1      	b.n	1000a1ae <pio_sm_init+0x2e>
1000a20a:	46c0      	nop			; (mov r8, r8)
1000a20c:	01010101 	.word	0x01010101

1000a210 <core1_trampoline>:
1000a210:	bd03      	pop	{r0, r1, pc}
1000a212:	46c0      	nop			; (mov r8, r8)

1000a214 <core1_wrapper>:
1000a214:	b510      	push	{r4, lr}
1000a216:	0004      	movs	r4, r0
1000a218:	f7fa ff24 	bl	10005064 <irq_init_priorities>
1000a21c:	47a0      	blx	r4
1000a21e:	bd10      	pop	{r4, pc}

1000a220 <multicore_fifo_push_blocking>:
1000a220:	22d0      	movs	r2, #208	; 0xd0
1000a222:	2102      	movs	r1, #2
1000a224:	0612      	lsls	r2, r2, #24
1000a226:	6d13      	ldr	r3, [r2, #80]	; 0x50
1000a228:	4219      	tst	r1, r3
1000a22a:	d0fc      	beq.n	1000a226 <multicore_fifo_push_blocking+0x6>
1000a22c:	6550      	str	r0, [r2, #84]	; 0x54
1000a22e:	bf40      	sev
1000a230:	4770      	bx	lr
1000a232:	46c0      	nop			; (mov r8, r8)

1000a234 <multicore_fifo_pop_blocking>:
1000a234:	22d0      	movs	r2, #208	; 0xd0
1000a236:	0612      	lsls	r2, r2, #24
1000a238:	6d13      	ldr	r3, [r2, #80]	; 0x50
1000a23a:	07db      	lsls	r3, r3, #31
1000a23c:	d404      	bmi.n	1000a248 <multicore_fifo_pop_blocking+0x14>
1000a23e:	2101      	movs	r1, #1
1000a240:	bf20      	wfe
1000a242:	6d13      	ldr	r3, [r2, #80]	; 0x50
1000a244:	4219      	tst	r1, r3
1000a246:	d0fb      	beq.n	1000a240 <multicore_fifo_pop_blocking+0xc>
1000a248:	23d0      	movs	r3, #208	; 0xd0
1000a24a:	061b      	lsls	r3, r3, #24
1000a24c:	6d98      	ldr	r0, [r3, #88]	; 0x58
1000a24e:	4770      	bx	lr

1000a250 <multicore_launch_core1>:
1000a250:	b570      	push	{r4, r5, r6, lr}
1000a252:	4b23      	ldr	r3, [pc, #140]	; (1000a2e0 <multicore_launch_core1+0x90>)
1000a254:	4a23      	ldr	r2, [pc, #140]	; (1000a2e4 <multicore_launch_core1+0x94>)
1000a256:	b086      	sub	sp, #24
1000a258:	4293      	cmp	r3, r2
1000a25a:	d901      	bls.n	1000a260 <multicore_launch_core1+0x10>
1000a25c:	2201      	movs	r2, #1
1000a25e:	4252      	negs	r2, r2
1000a260:	0013      	movs	r3, r2
1000a262:	4921      	ldr	r1, [pc, #132]	; (1000a2e8 <multicore_launch_core1+0x98>)
1000a264:	2400      	movs	r4, #0
1000a266:	5050      	str	r0, [r2, r1]
1000a268:	3104      	adds	r1, #4
1000a26a:	5052      	str	r2, [r2, r1]
1000a26c:	491f      	ldr	r1, [pc, #124]	; (1000a2ec <multicore_launch_core1+0x9c>)
1000a26e:	4a20      	ldr	r2, [pc, #128]	; (1000a2f0 <multicore_launch_core1+0xa0>)
1000a270:	2500      	movs	r5, #0
1000a272:	5099      	str	r1, [r3, r2]
1000a274:	4a1f      	ldr	r2, [pc, #124]	; (1000a2f4 <multicore_launch_core1+0xa4>)
1000a276:	2002      	movs	r0, #2
1000a278:	6891      	ldr	r1, [r2, #8]
1000a27a:	2200      	movs	r2, #0
1000a27c:	9200      	str	r2, [sp, #0]
1000a27e:	9201      	str	r2, [sp, #4]
1000a280:	3201      	adds	r2, #1
1000a282:	9202      	str	r2, [sp, #8]
1000a284:	4a18      	ldr	r2, [pc, #96]	; (1000a2e8 <multicore_launch_core1+0x98>)
1000a286:	9103      	str	r1, [sp, #12]
1000a288:	4694      	mov	ip, r2
1000a28a:	4463      	add	r3, ip
1000a28c:	9304      	str	r3, [sp, #16]
1000a28e:	4b1a      	ldr	r3, [pc, #104]	; (1000a2f8 <multicore_launch_core1+0xa8>)
1000a290:	2101      	movs	r1, #1
1000a292:	9305      	str	r3, [sp, #20]
1000a294:	23d0      	movs	r3, #208	; 0xd0
1000a296:	061b      	lsls	r3, r3, #24
1000a298:	002e      	movs	r6, r5
1000a29a:	2c00      	cmp	r4, #0
1000a29c:	d107      	bne.n	1000a2ae <multicore_launch_core1+0x5e>
1000a29e:	e000      	b.n	1000a2a2 <multicore_launch_core1+0x52>
1000a2a0:	6d9a      	ldr	r2, [r3, #88]	; 0x58
1000a2a2:	6d1a      	ldr	r2, [r3, #80]	; 0x50
1000a2a4:	4211      	tst	r1, r2
1000a2a6:	d1fb      	bne.n	1000a2a0 <multicore_launch_core1+0x50>
1000a2a8:	bf40      	sev
1000a2aa:	2400      	movs	r4, #0
1000a2ac:	002e      	movs	r6, r5
1000a2ae:	6d1a      	ldr	r2, [r3, #80]	; 0x50
1000a2b0:	4210      	tst	r0, r2
1000a2b2:	d0fc      	beq.n	1000a2ae <multicore_launch_core1+0x5e>
1000a2b4:	655c      	str	r4, [r3, #84]	; 0x54
1000a2b6:	bf40      	sev
1000a2b8:	6d1a      	ldr	r2, [r3, #80]	; 0x50
1000a2ba:	4211      	tst	r1, r2
1000a2bc:	d103      	bne.n	1000a2c6 <multicore_launch_core1+0x76>
1000a2be:	bf20      	wfe
1000a2c0:	6d1a      	ldr	r2, [r3, #80]	; 0x50
1000a2c2:	4211      	tst	r1, r2
1000a2c4:	d0fb      	beq.n	1000a2be <multicore_launch_core1+0x6e>
1000a2c6:	6d9a      	ldr	r2, [r3, #88]	; 0x58
1000a2c8:	2500      	movs	r5, #0
1000a2ca:	42a2      	cmp	r2, r4
1000a2cc:	d1e9      	bne.n	1000a2a2 <multicore_launch_core1+0x52>
1000a2ce:	1c75      	adds	r5, r6, #1
1000a2d0:	2d05      	cmp	r5, #5
1000a2d2:	d803      	bhi.n	1000a2dc <multicore_launch_core1+0x8c>
1000a2d4:	466c      	mov	r4, sp
1000a2d6:	00aa      	lsls	r2, r5, #2
1000a2d8:	58a4      	ldr	r4, [r4, r2]
1000a2da:	e7dd      	b.n	1000a298 <multicore_launch_core1+0x48>
1000a2dc:	b006      	add	sp, #24
1000a2de:	bd70      	pop	{r4, r5, r6, pc}
1000a2e0:	20040000 	.word	0x20040000
1000a2e4:	20040800 	.word	0x20040800
1000a2e8:	000007f4 	.word	0x000007f4
1000a2ec:	1000a215 	.word	0x1000a215
1000a2f0:	000007fc 	.word	0x000007fc
1000a2f4:	e000ed00 	.word	0xe000ed00
1000a2f8:	1000a211 	.word	0x1000a211

1000a2fc <calloc>:
1000a2fc:	b510      	push	{r4, lr}
1000a2fe:	4b04      	ldr	r3, [pc, #16]	; (1000a310 <calloc+0x14>)
1000a300:	000a      	movs	r2, r1
1000a302:	681b      	ldr	r3, [r3, #0]
1000a304:	0001      	movs	r1, r0
1000a306:	0018      	movs	r0, r3
1000a308:	f000 f804 	bl	1000a314 <_calloc_r>
1000a30c:	bd10      	pop	{r4, pc}
1000a30e:	46c0      	nop			; (mov r8, r8)
1000a310:	200002fc 	.word	0x200002fc

1000a314 <_calloc_r>:
1000a314:	b510      	push	{r4, lr}
1000a316:	4351      	muls	r1, r2
1000a318:	f000 f832 	bl	1000a380 <_malloc_r>
1000a31c:	1e04      	subs	r4, r0, #0
1000a31e:	d01c      	beq.n	1000a35a <_calloc_r+0x46>
1000a320:	0003      	movs	r3, r0
1000a322:	3b08      	subs	r3, #8
1000a324:	685a      	ldr	r2, [r3, #4]
1000a326:	2303      	movs	r3, #3
1000a328:	439a      	bics	r2, r3
1000a32a:	3a04      	subs	r2, #4
1000a32c:	2a24      	cmp	r2, #36	; 0x24
1000a32e:	d816      	bhi.n	1000a35e <_calloc_r+0x4a>
1000a330:	0003      	movs	r3, r0
1000a332:	2a13      	cmp	r2, #19
1000a334:	d90d      	bls.n	1000a352 <_calloc_r+0x3e>
1000a336:	2100      	movs	r1, #0
1000a338:	3308      	adds	r3, #8
1000a33a:	6001      	str	r1, [r0, #0]
1000a33c:	6041      	str	r1, [r0, #4]
1000a33e:	2a1b      	cmp	r2, #27
1000a340:	d907      	bls.n	1000a352 <_calloc_r+0x3e>
1000a342:	6081      	str	r1, [r0, #8]
1000a344:	60c1      	str	r1, [r0, #12]
1000a346:	2a24      	cmp	r2, #36	; 0x24
1000a348:	d10d      	bne.n	1000a366 <_calloc_r+0x52>
1000a34a:	0003      	movs	r3, r0
1000a34c:	6101      	str	r1, [r0, #16]
1000a34e:	3318      	adds	r3, #24
1000a350:	6141      	str	r1, [r0, #20]
1000a352:	2200      	movs	r2, #0
1000a354:	601a      	str	r2, [r3, #0]
1000a356:	605a      	str	r2, [r3, #4]
1000a358:	609a      	str	r2, [r3, #8]
1000a35a:	0020      	movs	r0, r4
1000a35c:	bd10      	pop	{r4, pc}
1000a35e:	2100      	movs	r1, #0
1000a360:	f7fd fa0e 	bl	10007780 <__wrap_memset>
1000a364:	e7f9      	b.n	1000a35a <_calloc_r+0x46>
1000a366:	0003      	movs	r3, r0
1000a368:	3310      	adds	r3, #16
1000a36a:	e7f2      	b.n	1000a352 <_calloc_r+0x3e>

1000a36c <malloc>:
1000a36c:	b510      	push	{r4, lr}
1000a36e:	4b03      	ldr	r3, [pc, #12]	; (1000a37c <malloc+0x10>)
1000a370:	0001      	movs	r1, r0
1000a372:	6818      	ldr	r0, [r3, #0]
1000a374:	f000 f804 	bl	1000a380 <_malloc_r>
1000a378:	bd10      	pop	{r4, pc}
1000a37a:	46c0      	nop			; (mov r8, r8)
1000a37c:	200002fc 	.word	0x200002fc

1000a380 <_malloc_r>:
1000a380:	b5f0      	push	{r4, r5, r6, r7, lr}
1000a382:	4657      	mov	r7, sl
1000a384:	4645      	mov	r5, r8
1000a386:	46de      	mov	lr, fp
1000a388:	464e      	mov	r6, r9
1000a38a:	b5e0      	push	{r5, r6, r7, lr}
1000a38c:	000d      	movs	r5, r1
1000a38e:	350b      	adds	r5, #11
1000a390:	b083      	sub	sp, #12
1000a392:	0007      	movs	r7, r0
1000a394:	2d16      	cmp	r5, #22
1000a396:	d800      	bhi.n	1000a39a <_malloc_r+0x1a>
1000a398:	e09f      	b.n	1000a4da <_malloc_r+0x15a>
1000a39a:	2307      	movs	r3, #7
1000a39c:	439d      	bics	r5, r3
1000a39e:	d500      	bpl.n	1000a3a2 <_malloc_r+0x22>
1000a3a0:	e0c4      	b.n	1000a52c <_malloc_r+0x1ac>
1000a3a2:	42a9      	cmp	r1, r5
1000a3a4:	d900      	bls.n	1000a3a8 <_malloc_r+0x28>
1000a3a6:	e0c1      	b.n	1000a52c <_malloc_r+0x1ac>
1000a3a8:	f000 fa9e 	bl	1000a8e8 <__malloc_lock>
1000a3ac:	23f8      	movs	r3, #248	; 0xf8
1000a3ae:	33ff      	adds	r3, #255	; 0xff
1000a3b0:	429d      	cmp	r5, r3
1000a3b2:	d800      	bhi.n	1000a3b6 <_malloc_r+0x36>
1000a3b4:	e28f      	b.n	1000a8d6 <_malloc_r+0x556>
1000a3b6:	0a68      	lsrs	r0, r5, #9
1000a3b8:	d100      	bne.n	1000a3bc <_malloc_r+0x3c>
1000a3ba:	e0bb      	b.n	1000a534 <_malloc_r+0x1b4>
1000a3bc:	2804      	cmp	r0, #4
1000a3be:	d900      	bls.n	1000a3c2 <_malloc_r+0x42>
1000a3c0:	e162      	b.n	1000a688 <_malloc_r+0x308>
1000a3c2:	2338      	movs	r3, #56	; 0x38
1000a3c4:	4698      	mov	r8, r3
1000a3c6:	09a8      	lsrs	r0, r5, #6
1000a3c8:	4480      	add	r8, r0
1000a3ca:	3039      	adds	r0, #57	; 0x39
1000a3cc:	00c1      	lsls	r1, r0, #3
1000a3ce:	4ed2      	ldr	r6, [pc, #840]	; (1000a718 <_malloc_r+0x398>)
1000a3d0:	1871      	adds	r1, r6, r1
1000a3d2:	3908      	subs	r1, #8
1000a3d4:	68cc      	ldr	r4, [r1, #12]
1000a3d6:	42a1      	cmp	r1, r4
1000a3d8:	d019      	beq.n	1000a40e <_malloc_r+0x8e>
1000a3da:	2303      	movs	r3, #3
1000a3dc:	6862      	ldr	r2, [r4, #4]
1000a3de:	439a      	bics	r2, r3
1000a3e0:	0013      	movs	r3, r2
1000a3e2:	1b52      	subs	r2, r2, r5
1000a3e4:	2a0f      	cmp	r2, #15
1000a3e6:	dd00      	ble.n	1000a3ea <_malloc_r+0x6a>
1000a3e8:	e0aa      	b.n	1000a540 <_malloc_r+0x1c0>
1000a3ea:	2a00      	cmp	r2, #0
1000a3ec:	db00      	blt.n	1000a3f0 <_malloc_r+0x70>
1000a3ee:	e088      	b.n	1000a502 <_malloc_r+0x182>
1000a3f0:	2303      	movs	r3, #3
1000a3f2:	469c      	mov	ip, r3
1000a3f4:	e008      	b.n	1000a408 <_malloc_r+0x88>
1000a3f6:	4662      	mov	r2, ip
1000a3f8:	6863      	ldr	r3, [r4, #4]
1000a3fa:	4393      	bics	r3, r2
1000a3fc:	1b5a      	subs	r2, r3, r5
1000a3fe:	2a0f      	cmp	r2, #15
1000a400:	dd00      	ble.n	1000a404 <_malloc_r+0x84>
1000a402:	e09d      	b.n	1000a540 <_malloc_r+0x1c0>
1000a404:	2a00      	cmp	r2, #0
1000a406:	da7c      	bge.n	1000a502 <_malloc_r+0x182>
1000a408:	68e4      	ldr	r4, [r4, #12]
1000a40a:	42a1      	cmp	r1, r4
1000a40c:	d1f3      	bne.n	1000a3f6 <_malloc_r+0x76>
1000a40e:	0032      	movs	r2, r6
1000a410:	6934      	ldr	r4, [r6, #16]
1000a412:	3208      	adds	r2, #8
1000a414:	4294      	cmp	r4, r2
1000a416:	d100      	bne.n	1000a41a <_malloc_r+0x9a>
1000a418:	e190      	b.n	1000a73c <_malloc_r+0x3bc>
1000a41a:	2303      	movs	r3, #3
1000a41c:	6861      	ldr	r1, [r4, #4]
1000a41e:	4399      	bics	r1, r3
1000a420:	4689      	mov	r9, r1
1000a422:	1b49      	subs	r1, r1, r5
1000a424:	290f      	cmp	r1, #15
1000a426:	dd00      	ble.n	1000a42a <_malloc_r+0xaa>
1000a428:	e162      	b.n	1000a6f0 <_malloc_r+0x370>
1000a42a:	6172      	str	r2, [r6, #20]
1000a42c:	6132      	str	r2, [r6, #16]
1000a42e:	2900      	cmp	r1, #0
1000a430:	db00      	blt.n	1000a434 <_malloc_r+0xb4>
1000a432:	e087      	b.n	1000a544 <_malloc_r+0x1c4>
1000a434:	4ab9      	ldr	r2, [pc, #740]	; (1000a71c <_malloc_r+0x39c>)
1000a436:	464b      	mov	r3, r9
1000a438:	4591      	cmp	r9, r2
1000a43a:	d900      	bls.n	1000a43e <_malloc_r+0xbe>
1000a43c:	e130      	b.n	1000a6a0 <_malloc_r+0x320>
1000a43e:	08db      	lsrs	r3, r3, #3
1000a440:	3aff      	subs	r2, #255	; 0xff
1000a442:	1099      	asrs	r1, r3, #2
1000a444:	3aff      	subs	r2, #255	; 0xff
1000a446:	408a      	lsls	r2, r1
1000a448:	00db      	lsls	r3, r3, #3
1000a44a:	6871      	ldr	r1, [r6, #4]
1000a44c:	199b      	adds	r3, r3, r6
1000a44e:	430a      	orrs	r2, r1
1000a450:	6899      	ldr	r1, [r3, #8]
1000a452:	6072      	str	r2, [r6, #4]
1000a454:	60e3      	str	r3, [r4, #12]
1000a456:	60a1      	str	r1, [r4, #8]
1000a458:	609c      	str	r4, [r3, #8]
1000a45a:	0013      	movs	r3, r2
1000a45c:	60cc      	str	r4, [r1, #12]
1000a45e:	2101      	movs	r1, #1
1000a460:	1082      	asrs	r2, r0, #2
1000a462:	4091      	lsls	r1, r2
1000a464:	4299      	cmp	r1, r3
1000a466:	d86f      	bhi.n	1000a548 <_malloc_r+0x1c8>
1000a468:	420b      	tst	r3, r1
1000a46a:	d105      	bne.n	1000a478 <_malloc_r+0xf8>
1000a46c:	2203      	movs	r2, #3
1000a46e:	4390      	bics	r0, r2
1000a470:	0049      	lsls	r1, r1, #1
1000a472:	3004      	adds	r0, #4
1000a474:	420b      	tst	r3, r1
1000a476:	d0fb      	beq.n	1000a470 <_malloc_r+0xf0>
1000a478:	2303      	movs	r3, #3
1000a47a:	4698      	mov	r8, r3
1000a47c:	00c3      	lsls	r3, r0, #3
1000a47e:	4699      	mov	r9, r3
1000a480:	44b1      	add	r9, r6
1000a482:	46cc      	mov	ip, r9
1000a484:	4682      	mov	sl, r0
1000a486:	4663      	mov	r3, ip
1000a488:	68dc      	ldr	r4, [r3, #12]
1000a48a:	45a4      	cmp	ip, r4
1000a48c:	d107      	bne.n	1000a49e <_malloc_r+0x11e>
1000a48e:	e157      	b.n	1000a740 <_malloc_r+0x3c0>
1000a490:	2a00      	cmp	r2, #0
1000a492:	db00      	blt.n	1000a496 <_malloc_r+0x116>
1000a494:	e166      	b.n	1000a764 <_malloc_r+0x3e4>
1000a496:	68e4      	ldr	r4, [r4, #12]
1000a498:	45a4      	cmp	ip, r4
1000a49a:	d100      	bne.n	1000a49e <_malloc_r+0x11e>
1000a49c:	e150      	b.n	1000a740 <_malloc_r+0x3c0>
1000a49e:	4642      	mov	r2, r8
1000a4a0:	6863      	ldr	r3, [r4, #4]
1000a4a2:	4393      	bics	r3, r2
1000a4a4:	1b5a      	subs	r2, r3, r5
1000a4a6:	2a0f      	cmp	r2, #15
1000a4a8:	ddf2      	ble.n	1000a490 <_malloc_r+0x110>
1000a4aa:	2001      	movs	r0, #1
1000a4ac:	4680      	mov	r8, r0
1000a4ae:	1961      	adds	r1, r4, r5
1000a4b0:	4305      	orrs	r5, r0
1000a4b2:	6065      	str	r5, [r4, #4]
1000a4b4:	68a0      	ldr	r0, [r4, #8]
1000a4b6:	68e5      	ldr	r5, [r4, #12]
1000a4b8:	3608      	adds	r6, #8
1000a4ba:	60c5      	str	r5, [r0, #12]
1000a4bc:	60a8      	str	r0, [r5, #8]
1000a4be:	4640      	mov	r0, r8
1000a4c0:	60f1      	str	r1, [r6, #12]
1000a4c2:	60b1      	str	r1, [r6, #8]
1000a4c4:	4310      	orrs	r0, r2
1000a4c6:	6048      	str	r0, [r1, #4]
1000a4c8:	60ce      	str	r6, [r1, #12]
1000a4ca:	608e      	str	r6, [r1, #8]
1000a4cc:	0038      	movs	r0, r7
1000a4ce:	50e2      	str	r2, [r4, r3]
1000a4d0:	f000 fa12 	bl	1000a8f8 <__malloc_unlock>
1000a4d4:	0020      	movs	r0, r4
1000a4d6:	3008      	adds	r0, #8
1000a4d8:	e021      	b.n	1000a51e <_malloc_r+0x19e>
1000a4da:	2910      	cmp	r1, #16
1000a4dc:	d826      	bhi.n	1000a52c <_malloc_r+0x1ac>
1000a4de:	0038      	movs	r0, r7
1000a4e0:	f000 fa02 	bl	1000a8e8 <__malloc_lock>
1000a4e4:	2510      	movs	r5, #16
1000a4e6:	2318      	movs	r3, #24
1000a4e8:	2002      	movs	r0, #2
1000a4ea:	4e8b      	ldr	r6, [pc, #556]	; (1000a718 <_malloc_r+0x398>)
1000a4ec:	18f3      	adds	r3, r6, r3
1000a4ee:	001a      	movs	r2, r3
1000a4f0:	685c      	ldr	r4, [r3, #4]
1000a4f2:	3a08      	subs	r2, #8
1000a4f4:	4294      	cmp	r4, r2
1000a4f6:	d100      	bne.n	1000a4fa <_malloc_r+0x17a>
1000a4f8:	e12e      	b.n	1000a758 <_malloc_r+0x3d8>
1000a4fa:	2303      	movs	r3, #3
1000a4fc:	6862      	ldr	r2, [r4, #4]
1000a4fe:	439a      	bics	r2, r3
1000a500:	0013      	movs	r3, r2
1000a502:	68e2      	ldr	r2, [r4, #12]
1000a504:	68a1      	ldr	r1, [r4, #8]
1000a506:	60ca      	str	r2, [r1, #12]
1000a508:	6091      	str	r1, [r2, #8]
1000a50a:	2201      	movs	r2, #1
1000a50c:	18e3      	adds	r3, r4, r3
1000a50e:	6859      	ldr	r1, [r3, #4]
1000a510:	0038      	movs	r0, r7
1000a512:	430a      	orrs	r2, r1
1000a514:	605a      	str	r2, [r3, #4]
1000a516:	f000 f9ef 	bl	1000a8f8 <__malloc_unlock>
1000a51a:	0020      	movs	r0, r4
1000a51c:	3008      	adds	r0, #8
1000a51e:	b003      	add	sp, #12
1000a520:	bc3c      	pop	{r2, r3, r4, r5}
1000a522:	4690      	mov	r8, r2
1000a524:	4699      	mov	r9, r3
1000a526:	46a2      	mov	sl, r4
1000a528:	46ab      	mov	fp, r5
1000a52a:	bdf0      	pop	{r4, r5, r6, r7, pc}
1000a52c:	230c      	movs	r3, #12
1000a52e:	2000      	movs	r0, #0
1000a530:	603b      	str	r3, [r7, #0]
1000a532:	e7f4      	b.n	1000a51e <_malloc_r+0x19e>
1000a534:	2180      	movs	r1, #128	; 0x80
1000a536:	233f      	movs	r3, #63	; 0x3f
1000a538:	2040      	movs	r0, #64	; 0x40
1000a53a:	0089      	lsls	r1, r1, #2
1000a53c:	4698      	mov	r8, r3
1000a53e:	e746      	b.n	1000a3ce <_malloc_r+0x4e>
1000a540:	4640      	mov	r0, r8
1000a542:	e764      	b.n	1000a40e <_malloc_r+0x8e>
1000a544:	464b      	mov	r3, r9
1000a546:	e7e0      	b.n	1000a50a <_malloc_r+0x18a>
1000a548:	2303      	movs	r3, #3
1000a54a:	68b4      	ldr	r4, [r6, #8]
1000a54c:	6862      	ldr	r2, [r4, #4]
1000a54e:	439a      	bics	r2, r3
1000a550:	4690      	mov	r8, r2
1000a552:	42aa      	cmp	r2, r5
1000a554:	d303      	bcc.n	1000a55e <_malloc_r+0x1de>
1000a556:	1b53      	subs	r3, r2, r5
1000a558:	2b0f      	cmp	r3, #15
1000a55a:	dd00      	ble.n	1000a55e <_malloc_r+0x1de>
1000a55c:	e086      	b.n	1000a66c <_malloc_r+0x2ec>
1000a55e:	0023      	movs	r3, r4
1000a560:	4443      	add	r3, r8
1000a562:	4a6f      	ldr	r2, [pc, #444]	; (1000a720 <_malloc_r+0x3a0>)
1000a564:	9301      	str	r3, [sp, #4]
1000a566:	4b6f      	ldr	r3, [pc, #444]	; (1000a724 <_malloc_r+0x3a4>)
1000a568:	4693      	mov	fp, r2
1000a56a:	681b      	ldr	r3, [r3, #0]
1000a56c:	6812      	ldr	r2, [r2, #0]
1000a56e:	18eb      	adds	r3, r5, r3
1000a570:	3201      	adds	r2, #1
1000a572:	d100      	bne.n	1000a576 <_malloc_r+0x1f6>
1000a574:	e168      	b.n	1000a848 <_malloc_r+0x4c8>
1000a576:	4a6c      	ldr	r2, [pc, #432]	; (1000a728 <_malloc_r+0x3a8>)
1000a578:	4694      	mov	ip, r2
1000a57a:	4463      	add	r3, ip
1000a57c:	0b1b      	lsrs	r3, r3, #12
1000a57e:	031b      	lsls	r3, r3, #12
1000a580:	9300      	str	r3, [sp, #0]
1000a582:	9900      	ldr	r1, [sp, #0]
1000a584:	0038      	movs	r0, r7
1000a586:	f000 f9bf 	bl	1000a908 <_sbrk_r>
1000a58a:	0003      	movs	r3, r0
1000a58c:	4681      	mov	r9, r0
1000a58e:	3301      	adds	r3, #1
1000a590:	d061      	beq.n	1000a656 <_malloc_r+0x2d6>
1000a592:	9b01      	ldr	r3, [sp, #4]
1000a594:	4283      	cmp	r3, r0
1000a596:	d900      	bls.n	1000a59a <_malloc_r+0x21a>
1000a598:	e0ff      	b.n	1000a79a <_malloc_r+0x41a>
1000a59a:	4b64      	ldr	r3, [pc, #400]	; (1000a72c <_malloc_r+0x3ac>)
1000a59c:	9a00      	ldr	r2, [sp, #0]
1000a59e:	469a      	mov	sl, r3
1000a5a0:	681b      	ldr	r3, [r3, #0]
1000a5a2:	469c      	mov	ip, r3
1000a5a4:	4653      	mov	r3, sl
1000a5a6:	4462      	add	r2, ip
1000a5a8:	601a      	str	r2, [r3, #0]
1000a5aa:	9b01      	ldr	r3, [sp, #4]
1000a5ac:	0011      	movs	r1, r2
1000a5ae:	4283      	cmp	r3, r0
1000a5b0:	d100      	bne.n	1000a5b4 <_malloc_r+0x234>
1000a5b2:	e155      	b.n	1000a860 <_malloc_r+0x4e0>
1000a5b4:	465b      	mov	r3, fp
1000a5b6:	681b      	ldr	r3, [r3, #0]
1000a5b8:	3301      	adds	r3, #1
1000a5ba:	d100      	bne.n	1000a5be <_malloc_r+0x23e>
1000a5bc:	e16c      	b.n	1000a898 <_malloc_r+0x518>
1000a5be:	464b      	mov	r3, r9
1000a5c0:	9a01      	ldr	r2, [sp, #4]
1000a5c2:	1a9b      	subs	r3, r3, r2
1000a5c4:	1859      	adds	r1, r3, r1
1000a5c6:	4653      	mov	r3, sl
1000a5c8:	6019      	str	r1, [r3, #0]
1000a5ca:	2307      	movs	r3, #7
1000a5cc:	464a      	mov	r2, r9
1000a5ce:	4013      	ands	r3, r2
1000a5d0:	d100      	bne.n	1000a5d4 <_malloc_r+0x254>
1000a5d2:	e124      	b.n	1000a81e <_malloc_r+0x49e>
1000a5d4:	2108      	movs	r1, #8
1000a5d6:	4689      	mov	r9, r1
1000a5d8:	4955      	ldr	r1, [pc, #340]	; (1000a730 <_malloc_r+0x3b0>)
1000a5da:	1ad2      	subs	r2, r2, r3
1000a5dc:	4491      	add	r9, r2
1000a5de:	1acb      	subs	r3, r1, r3
1000a5e0:	9a00      	ldr	r2, [sp, #0]
1000a5e2:	0038      	movs	r0, r7
1000a5e4:	444a      	add	r2, r9
1000a5e6:	0511      	lsls	r1, r2, #20
1000a5e8:	0d09      	lsrs	r1, r1, #20
1000a5ea:	1a5b      	subs	r3, r3, r1
1000a5ec:	0019      	movs	r1, r3
1000a5ee:	469b      	mov	fp, r3
1000a5f0:	f000 f98a 	bl	1000a908 <_sbrk_r>
1000a5f4:	1c43      	adds	r3, r0, #1
1000a5f6:	d100      	bne.n	1000a5fa <_malloc_r+0x27a>
1000a5f8:	e142      	b.n	1000a880 <_malloc_r+0x500>
1000a5fa:	464b      	mov	r3, r9
1000a5fc:	1ac0      	subs	r0, r0, r3
1000a5fe:	2301      	movs	r3, #1
1000a600:	4458      	add	r0, fp
1000a602:	4318      	orrs	r0, r3
1000a604:	4653      	mov	r3, sl
1000a606:	681b      	ldr	r3, [r3, #0]
1000a608:	445b      	add	r3, fp
1000a60a:	0019      	movs	r1, r3
1000a60c:	4653      	mov	r3, sl
1000a60e:	6019      	str	r1, [r3, #0]
1000a610:	464b      	mov	r3, r9
1000a612:	60b3      	str	r3, [r6, #8]
1000a614:	6058      	str	r0, [r3, #4]
1000a616:	42b4      	cmp	r4, r6
1000a618:	d013      	beq.n	1000a642 <_malloc_r+0x2c2>
1000a61a:	4643      	mov	r3, r8
1000a61c:	2b0f      	cmp	r3, #15
1000a61e:	d800      	bhi.n	1000a622 <_malloc_r+0x2a2>
1000a620:	e0e8      	b.n	1000a7f4 <_malloc_r+0x474>
1000a622:	4643      	mov	r3, r8
1000a624:	2207      	movs	r2, #7
1000a626:	6860      	ldr	r0, [r4, #4]
1000a628:	3b0c      	subs	r3, #12
1000a62a:	4393      	bics	r3, r2
1000a62c:	3a06      	subs	r2, #6
1000a62e:	4002      	ands	r2, r0
1000a630:	2005      	movs	r0, #5
1000a632:	431a      	orrs	r2, r3
1000a634:	6062      	str	r2, [r4, #4]
1000a636:	18e2      	adds	r2, r4, r3
1000a638:	6050      	str	r0, [r2, #4]
1000a63a:	6090      	str	r0, [r2, #8]
1000a63c:	2b0f      	cmp	r3, #15
1000a63e:	d900      	bls.n	1000a642 <_malloc_r+0x2c2>
1000a640:	e122      	b.n	1000a888 <_malloc_r+0x508>
1000a642:	4b3c      	ldr	r3, [pc, #240]	; (1000a734 <_malloc_r+0x3b4>)
1000a644:	681a      	ldr	r2, [r3, #0]
1000a646:	4291      	cmp	r1, r2
1000a648:	d900      	bls.n	1000a64c <_malloc_r+0x2cc>
1000a64a:	6019      	str	r1, [r3, #0]
1000a64c:	4b3a      	ldr	r3, [pc, #232]	; (1000a738 <_malloc_r+0x3b8>)
1000a64e:	681a      	ldr	r2, [r3, #0]
1000a650:	4291      	cmp	r1, r2
1000a652:	d900      	bls.n	1000a656 <_malloc_r+0x2d6>
1000a654:	6019      	str	r1, [r3, #0]
1000a656:	2303      	movs	r3, #3
1000a658:	68b4      	ldr	r4, [r6, #8]
1000a65a:	6862      	ldr	r2, [r4, #4]
1000a65c:	439a      	bics	r2, r3
1000a65e:	1b53      	subs	r3, r2, r5
1000a660:	4295      	cmp	r5, r2
1000a662:	d900      	bls.n	1000a666 <_malloc_r+0x2e6>
1000a664:	e0c9      	b.n	1000a7fa <_malloc_r+0x47a>
1000a666:	2b0f      	cmp	r3, #15
1000a668:	dc00      	bgt.n	1000a66c <_malloc_r+0x2ec>
1000a66a:	e0c6      	b.n	1000a7fa <_malloc_r+0x47a>
1000a66c:	2201      	movs	r2, #1
1000a66e:	0029      	movs	r1, r5
1000a670:	4313      	orrs	r3, r2
1000a672:	4311      	orrs	r1, r2
1000a674:	1965      	adds	r5, r4, r5
1000a676:	6061      	str	r1, [r4, #4]
1000a678:	0038      	movs	r0, r7
1000a67a:	60b5      	str	r5, [r6, #8]
1000a67c:	606b      	str	r3, [r5, #4]
1000a67e:	f000 f93b 	bl	1000a8f8 <__malloc_unlock>
1000a682:	0020      	movs	r0, r4
1000a684:	3008      	adds	r0, #8
1000a686:	e74a      	b.n	1000a51e <_malloc_r+0x19e>
1000a688:	2814      	cmp	r0, #20
1000a68a:	d97a      	bls.n	1000a782 <_malloc_r+0x402>
1000a68c:	2854      	cmp	r0, #84	; 0x54
1000a68e:	d900      	bls.n	1000a692 <_malloc_r+0x312>
1000a690:	e0ba      	b.n	1000a808 <_malloc_r+0x488>
1000a692:	236e      	movs	r3, #110	; 0x6e
1000a694:	4698      	mov	r8, r3
1000a696:	0b28      	lsrs	r0, r5, #12
1000a698:	4480      	add	r8, r0
1000a69a:	306f      	adds	r0, #111	; 0x6f
1000a69c:	00c1      	lsls	r1, r0, #3
1000a69e:	e696      	b.n	1000a3ce <_malloc_r+0x4e>
1000a6a0:	0a5a      	lsrs	r2, r3, #9
1000a6a2:	2a04      	cmp	r2, #4
1000a6a4:	d973      	bls.n	1000a78e <_malloc_r+0x40e>
1000a6a6:	2a14      	cmp	r2, #20
1000a6a8:	d900      	bls.n	1000a6ac <_malloc_r+0x32c>
1000a6aa:	e0d0      	b.n	1000a84e <_malloc_r+0x4ce>
1000a6ac:	0011      	movs	r1, r2
1000a6ae:	325c      	adds	r2, #92	; 0x5c
1000a6b0:	315b      	adds	r1, #91	; 0x5b
1000a6b2:	00d2      	lsls	r2, r2, #3
1000a6b4:	2308      	movs	r3, #8
1000a6b6:	425b      	negs	r3, r3
1000a6b8:	469c      	mov	ip, r3
1000a6ba:	18b2      	adds	r2, r6, r2
1000a6bc:	4494      	add	ip, r2
1000a6be:	4663      	mov	r3, ip
1000a6c0:	689a      	ldr	r2, [r3, #8]
1000a6c2:	2303      	movs	r3, #3
1000a6c4:	4698      	mov	r8, r3
1000a6c6:	4594      	cmp	ip, r2
1000a6c8:	d100      	bne.n	1000a6cc <_malloc_r+0x34c>
1000a6ca:	e0ab      	b.n	1000a824 <_malloc_r+0x4a4>
1000a6cc:	4643      	mov	r3, r8
1000a6ce:	6851      	ldr	r1, [r2, #4]
1000a6d0:	4399      	bics	r1, r3
1000a6d2:	4589      	cmp	r9, r1
1000a6d4:	d300      	bcc.n	1000a6d8 <_malloc_r+0x358>
1000a6d6:	e095      	b.n	1000a804 <_malloc_r+0x484>
1000a6d8:	6892      	ldr	r2, [r2, #8]
1000a6da:	4594      	cmp	ip, r2
1000a6dc:	d1f6      	bne.n	1000a6cc <_malloc_r+0x34c>
1000a6de:	4663      	mov	r3, ip
1000a6e0:	68da      	ldr	r2, [r3, #12]
1000a6e2:	6873      	ldr	r3, [r6, #4]
1000a6e4:	4661      	mov	r1, ip
1000a6e6:	60e2      	str	r2, [r4, #12]
1000a6e8:	60a1      	str	r1, [r4, #8]
1000a6ea:	6094      	str	r4, [r2, #8]
1000a6ec:	60cc      	str	r4, [r1, #12]
1000a6ee:	e6b6      	b.n	1000a45e <_malloc_r+0xde>
1000a6f0:	2301      	movs	r3, #1
1000a6f2:	1960      	adds	r0, r4, r5
1000a6f4:	431d      	orrs	r5, r3
1000a6f6:	6065      	str	r5, [r4, #4]
1000a6f8:	6170      	str	r0, [r6, #20]
1000a6fa:	6130      	str	r0, [r6, #16]
1000a6fc:	60c2      	str	r2, [r0, #12]
1000a6fe:	6082      	str	r2, [r0, #8]
1000a700:	001a      	movs	r2, r3
1000a702:	464b      	mov	r3, r9
1000a704:	430a      	orrs	r2, r1
1000a706:	6042      	str	r2, [r0, #4]
1000a708:	0038      	movs	r0, r7
1000a70a:	50e1      	str	r1, [r4, r3]
1000a70c:	f000 f8f4 	bl	1000a8f8 <__malloc_unlock>
1000a710:	0020      	movs	r0, r4
1000a712:	3008      	adds	r0, #8
1000a714:	e703      	b.n	1000a51e <_malloc_r+0x19e>
1000a716:	46c0      	nop			; (mov r8, r8)
1000a718:	20000728 	.word	0x20000728
1000a71c:	000001ff 	.word	0x000001ff
1000a720:	20000b30 	.word	0x20000b30
1000a724:	20000bb4 	.word	0x20000bb4
1000a728:	0000100f 	.word	0x0000100f
1000a72c:	20000b84 	.word	0x20000b84
1000a730:	00001008 	.word	0x00001008
1000a734:	20000bac 	.word	0x20000bac
1000a738:	20000bb0 	.word	0x20000bb0
1000a73c:	6873      	ldr	r3, [r6, #4]
1000a73e:	e68e      	b.n	1000a45e <_malloc_r+0xde>
1000a740:	2308      	movs	r3, #8
1000a742:	469b      	mov	fp, r3
1000a744:	3b07      	subs	r3, #7
1000a746:	44dc      	add	ip, fp
1000a748:	469b      	mov	fp, r3
1000a74a:	44da      	add	sl, fp
1000a74c:	4643      	mov	r3, r8
1000a74e:	4652      	mov	r2, sl
1000a750:	4213      	tst	r3, r2
1000a752:	d000      	beq.n	1000a756 <_malloc_r+0x3d6>
1000a754:	e697      	b.n	1000a486 <_malloc_r+0x106>
1000a756:	e037      	b.n	1000a7c8 <_malloc_r+0x448>
1000a758:	68dc      	ldr	r4, [r3, #12]
1000a75a:	3002      	adds	r0, #2
1000a75c:	42a3      	cmp	r3, r4
1000a75e:	d100      	bne.n	1000a762 <_malloc_r+0x3e2>
1000a760:	e655      	b.n	1000a40e <_malloc_r+0x8e>
1000a762:	e6ca      	b.n	1000a4fa <_malloc_r+0x17a>
1000a764:	2201      	movs	r2, #1
1000a766:	18e3      	adds	r3, r4, r3
1000a768:	6859      	ldr	r1, [r3, #4]
1000a76a:	0038      	movs	r0, r7
1000a76c:	430a      	orrs	r2, r1
1000a76e:	605a      	str	r2, [r3, #4]
1000a770:	68e3      	ldr	r3, [r4, #12]
1000a772:	68a2      	ldr	r2, [r4, #8]
1000a774:	60d3      	str	r3, [r2, #12]
1000a776:	609a      	str	r2, [r3, #8]
1000a778:	f000 f8be 	bl	1000a8f8 <__malloc_unlock>
1000a77c:	0020      	movs	r0, r4
1000a77e:	3008      	adds	r0, #8
1000a780:	e6cd      	b.n	1000a51e <_malloc_r+0x19e>
1000a782:	235b      	movs	r3, #91	; 0x5b
1000a784:	4698      	mov	r8, r3
1000a786:	4480      	add	r8, r0
1000a788:	305c      	adds	r0, #92	; 0x5c
1000a78a:	00c1      	lsls	r1, r0, #3
1000a78c:	e61f      	b.n	1000a3ce <_malloc_r+0x4e>
1000a78e:	099a      	lsrs	r2, r3, #6
1000a790:	0011      	movs	r1, r2
1000a792:	3239      	adds	r2, #57	; 0x39
1000a794:	3138      	adds	r1, #56	; 0x38
1000a796:	00d2      	lsls	r2, r2, #3
1000a798:	e78c      	b.n	1000a6b4 <_malloc_r+0x334>
1000a79a:	42b4      	cmp	r4, r6
1000a79c:	d000      	beq.n	1000a7a0 <_malloc_r+0x420>
1000a79e:	e75a      	b.n	1000a656 <_malloc_r+0x2d6>
1000a7a0:	4b4f      	ldr	r3, [pc, #316]	; (1000a8e0 <_malloc_r+0x560>)
1000a7a2:	9a00      	ldr	r2, [sp, #0]
1000a7a4:	469a      	mov	sl, r3
1000a7a6:	681b      	ldr	r3, [r3, #0]
1000a7a8:	469c      	mov	ip, r3
1000a7aa:	4653      	mov	r3, sl
1000a7ac:	4462      	add	r2, ip
1000a7ae:	0011      	movs	r1, r2
1000a7b0:	601a      	str	r2, [r3, #0]
1000a7b2:	e6ff      	b.n	1000a5b4 <_malloc_r+0x234>
1000a7b4:	2308      	movs	r3, #8
1000a7b6:	425b      	negs	r3, r3
1000a7b8:	469c      	mov	ip, r3
1000a7ba:	44e1      	add	r9, ip
1000a7bc:	464b      	mov	r3, r9
1000a7be:	689b      	ldr	r3, [r3, #8]
1000a7c0:	3801      	subs	r0, #1
1000a7c2:	4599      	cmp	r9, r3
1000a7c4:	d000      	beq.n	1000a7c8 <_malloc_r+0x448>
1000a7c6:	e084      	b.n	1000a8d2 <_malloc_r+0x552>
1000a7c8:	4643      	mov	r3, r8
1000a7ca:	4203      	tst	r3, r0
1000a7cc:	d1f2      	bne.n	1000a7b4 <_malloc_r+0x434>
1000a7ce:	6873      	ldr	r3, [r6, #4]
1000a7d0:	438b      	bics	r3, r1
1000a7d2:	6073      	str	r3, [r6, #4]
1000a7d4:	0049      	lsls	r1, r1, #1
1000a7d6:	4299      	cmp	r1, r3
1000a7d8:	d900      	bls.n	1000a7dc <_malloc_r+0x45c>
1000a7da:	e6b5      	b.n	1000a548 <_malloc_r+0x1c8>
1000a7dc:	2900      	cmp	r1, #0
1000a7de:	d100      	bne.n	1000a7e2 <_malloc_r+0x462>
1000a7e0:	e6b2      	b.n	1000a548 <_malloc_r+0x1c8>
1000a7e2:	4650      	mov	r0, sl
1000a7e4:	420b      	tst	r3, r1
1000a7e6:	d000      	beq.n	1000a7ea <_malloc_r+0x46a>
1000a7e8:	e648      	b.n	1000a47c <_malloc_r+0xfc>
1000a7ea:	0049      	lsls	r1, r1, #1
1000a7ec:	3004      	adds	r0, #4
1000a7ee:	420b      	tst	r3, r1
1000a7f0:	d0fb      	beq.n	1000a7ea <_malloc_r+0x46a>
1000a7f2:	e643      	b.n	1000a47c <_malloc_r+0xfc>
1000a7f4:	2301      	movs	r3, #1
1000a7f6:	464a      	mov	r2, r9
1000a7f8:	6053      	str	r3, [r2, #4]
1000a7fa:	0038      	movs	r0, r7
1000a7fc:	f000 f87c 	bl	1000a8f8 <__malloc_unlock>
1000a800:	2000      	movs	r0, #0
1000a802:	e68c      	b.n	1000a51e <_malloc_r+0x19e>
1000a804:	4694      	mov	ip, r2
1000a806:	e76a      	b.n	1000a6de <_malloc_r+0x35e>
1000a808:	23aa      	movs	r3, #170	; 0xaa
1000a80a:	005b      	lsls	r3, r3, #1
1000a80c:	4298      	cmp	r0, r3
1000a80e:	d811      	bhi.n	1000a834 <_malloc_r+0x4b4>
1000a810:	3bdd      	subs	r3, #221	; 0xdd
1000a812:	4698      	mov	r8, r3
1000a814:	0be8      	lsrs	r0, r5, #15
1000a816:	4480      	add	r8, r0
1000a818:	3078      	adds	r0, #120	; 0x78
1000a81a:	00c1      	lsls	r1, r0, #3
1000a81c:	e5d7      	b.n	1000a3ce <_malloc_r+0x4e>
1000a81e:	2380      	movs	r3, #128	; 0x80
1000a820:	015b      	lsls	r3, r3, #5
1000a822:	e6dd      	b.n	1000a5e0 <_malloc_r+0x260>
1000a824:	1089      	asrs	r1, r1, #2
1000a826:	3b02      	subs	r3, #2
1000a828:	408b      	lsls	r3, r1
1000a82a:	6872      	ldr	r2, [r6, #4]
1000a82c:	4313      	orrs	r3, r2
1000a82e:	6073      	str	r3, [r6, #4]
1000a830:	4662      	mov	r2, ip
1000a832:	e757      	b.n	1000a6e4 <_malloc_r+0x364>
1000a834:	4b2b      	ldr	r3, [pc, #172]	; (1000a8e4 <_malloc_r+0x564>)
1000a836:	4298      	cmp	r0, r3
1000a838:	d81c      	bhi.n	1000a874 <_malloc_r+0x4f4>
1000a83a:	237c      	movs	r3, #124	; 0x7c
1000a83c:	4698      	mov	r8, r3
1000a83e:	0ca8      	lsrs	r0, r5, #18
1000a840:	4480      	add	r8, r0
1000a842:	307d      	adds	r0, #125	; 0x7d
1000a844:	00c1      	lsls	r1, r0, #3
1000a846:	e5c2      	b.n	1000a3ce <_malloc_r+0x4e>
1000a848:	3310      	adds	r3, #16
1000a84a:	9300      	str	r3, [sp, #0]
1000a84c:	e699      	b.n	1000a582 <_malloc_r+0x202>
1000a84e:	2a54      	cmp	r2, #84	; 0x54
1000a850:	d826      	bhi.n	1000a8a0 <_malloc_r+0x520>
1000a852:	464b      	mov	r3, r9
1000a854:	0b1a      	lsrs	r2, r3, #12
1000a856:	0011      	movs	r1, r2
1000a858:	326f      	adds	r2, #111	; 0x6f
1000a85a:	316e      	adds	r1, #110	; 0x6e
1000a85c:	00d2      	lsls	r2, r2, #3
1000a85e:	e729      	b.n	1000a6b4 <_malloc_r+0x334>
1000a860:	051b      	lsls	r3, r3, #20
1000a862:	d000      	beq.n	1000a866 <_malloc_r+0x4e6>
1000a864:	e6a6      	b.n	1000a5b4 <_malloc_r+0x234>
1000a866:	2001      	movs	r0, #1
1000a868:	9b00      	ldr	r3, [sp, #0]
1000a86a:	68b2      	ldr	r2, [r6, #8]
1000a86c:	4443      	add	r3, r8
1000a86e:	4303      	orrs	r3, r0
1000a870:	6053      	str	r3, [r2, #4]
1000a872:	e6e6      	b.n	1000a642 <_malloc_r+0x2c2>
1000a874:	21fe      	movs	r1, #254	; 0xfe
1000a876:	237e      	movs	r3, #126	; 0x7e
1000a878:	207f      	movs	r0, #127	; 0x7f
1000a87a:	0089      	lsls	r1, r1, #2
1000a87c:	4698      	mov	r8, r3
1000a87e:	e5a6      	b.n	1000a3ce <_malloc_r+0x4e>
1000a880:	2300      	movs	r3, #0
1000a882:	2001      	movs	r0, #1
1000a884:	469b      	mov	fp, r3
1000a886:	e6bd      	b.n	1000a604 <_malloc_r+0x284>
1000a888:	0021      	movs	r1, r4
1000a88a:	0038      	movs	r0, r7
1000a88c:	3108      	adds	r1, #8
1000a88e:	f000 fad9 	bl	1000ae44 <_free_r>
1000a892:	4653      	mov	r3, sl
1000a894:	6819      	ldr	r1, [r3, #0]
1000a896:	e6d4      	b.n	1000a642 <_malloc_r+0x2c2>
1000a898:	465b      	mov	r3, fp
1000a89a:	464a      	mov	r2, r9
1000a89c:	601a      	str	r2, [r3, #0]
1000a89e:	e694      	b.n	1000a5ca <_malloc_r+0x24a>
1000a8a0:	21aa      	movs	r1, #170	; 0xaa
1000a8a2:	0049      	lsls	r1, r1, #1
1000a8a4:	428a      	cmp	r2, r1
1000a8a6:	d806      	bhi.n	1000a8b6 <_malloc_r+0x536>
1000a8a8:	464b      	mov	r3, r9
1000a8aa:	0bda      	lsrs	r2, r3, #15
1000a8ac:	0011      	movs	r1, r2
1000a8ae:	3278      	adds	r2, #120	; 0x78
1000a8b0:	3177      	adds	r1, #119	; 0x77
1000a8b2:	00d2      	lsls	r2, r2, #3
1000a8b4:	e6fe      	b.n	1000a6b4 <_malloc_r+0x334>
1000a8b6:	490b      	ldr	r1, [pc, #44]	; (1000a8e4 <_malloc_r+0x564>)
1000a8b8:	428a      	cmp	r2, r1
1000a8ba:	d806      	bhi.n	1000a8ca <_malloc_r+0x54a>
1000a8bc:	464b      	mov	r3, r9
1000a8be:	0c9a      	lsrs	r2, r3, #18
1000a8c0:	0011      	movs	r1, r2
1000a8c2:	327d      	adds	r2, #125	; 0x7d
1000a8c4:	317c      	adds	r1, #124	; 0x7c
1000a8c6:	00d2      	lsls	r2, r2, #3
1000a8c8:	e6f4      	b.n	1000a6b4 <_malloc_r+0x334>
1000a8ca:	22fe      	movs	r2, #254	; 0xfe
1000a8cc:	217e      	movs	r1, #126	; 0x7e
1000a8ce:	0092      	lsls	r2, r2, #2
1000a8d0:	e6f0      	b.n	1000a6b4 <_malloc_r+0x334>
1000a8d2:	6873      	ldr	r3, [r6, #4]
1000a8d4:	e77e      	b.n	1000a7d4 <_malloc_r+0x454>
1000a8d6:	002b      	movs	r3, r5
1000a8d8:	08e8      	lsrs	r0, r5, #3
1000a8da:	3308      	adds	r3, #8
1000a8dc:	e605      	b.n	1000a4ea <_malloc_r+0x16a>
1000a8de:	46c0      	nop			; (mov r8, r8)
1000a8e0:	20000b84 	.word	0x20000b84
1000a8e4:	00000554 	.word	0x00000554

1000a8e8 <__malloc_lock>:
1000a8e8:	b510      	push	{r4, lr}
1000a8ea:	4802      	ldr	r0, [pc, #8]	; (1000a8f4 <__malloc_lock+0xc>)
1000a8ec:	f000 fbb2 	bl	1000b054 <__retarget_lock_acquire_recursive>
1000a8f0:	bd10      	pop	{r4, pc}
1000a8f2:	46c0      	nop			; (mov r8, r8)
1000a8f4:	20001f64 	.word	0x20001f64

1000a8f8 <__malloc_unlock>:
1000a8f8:	b510      	push	{r4, lr}
1000a8fa:	4802      	ldr	r0, [pc, #8]	; (1000a904 <__malloc_unlock+0xc>)
1000a8fc:	f000 fbac 	bl	1000b058 <__retarget_lock_release_recursive>
1000a900:	bd10      	pop	{r4, pc}
1000a902:	46c0      	nop			; (mov r8, r8)
1000a904:	20001f64 	.word	0x20001f64

1000a908 <_sbrk_r>:
1000a908:	2300      	movs	r3, #0
1000a90a:	b570      	push	{r4, r5, r6, lr}
1000a90c:	4c06      	ldr	r4, [pc, #24]	; (1000a928 <_sbrk_r+0x20>)
1000a90e:	0005      	movs	r5, r0
1000a910:	0008      	movs	r0, r1
1000a912:	6023      	str	r3, [r4, #0]
1000a914:	f7fa f82c 	bl	10004970 <_sbrk>
1000a918:	1c43      	adds	r3, r0, #1
1000a91a:	d000      	beq.n	1000a91e <_sbrk_r+0x16>
1000a91c:	bd70      	pop	{r4, r5, r6, pc}
1000a91e:	6823      	ldr	r3, [r4, #0]
1000a920:	2b00      	cmp	r3, #0
1000a922:	d0fb      	beq.n	1000a91c <_sbrk_r+0x14>
1000a924:	602b      	str	r3, [r5, #0]
1000a926:	e7f9      	b.n	1000a91c <_sbrk_r+0x14>
1000a928:	20001f78 	.word	0x20001f78

1000a92c <strlen>:
1000a92c:	b510      	push	{r4, lr}
1000a92e:	0783      	lsls	r3, r0, #30
1000a930:	d025      	beq.n	1000a97e <strlen+0x52>
1000a932:	7803      	ldrb	r3, [r0, #0]
1000a934:	2b00      	cmp	r3, #0
1000a936:	d024      	beq.n	1000a982 <strlen+0x56>
1000a938:	0003      	movs	r3, r0
1000a93a:	2103      	movs	r1, #3
1000a93c:	e002      	b.n	1000a944 <strlen+0x18>
1000a93e:	781a      	ldrb	r2, [r3, #0]
1000a940:	2a00      	cmp	r2, #0
1000a942:	d01a      	beq.n	1000a97a <strlen+0x4e>
1000a944:	3301      	adds	r3, #1
1000a946:	420b      	tst	r3, r1
1000a948:	d1f9      	bne.n	1000a93e <strlen+0x12>
1000a94a:	6819      	ldr	r1, [r3, #0]
1000a94c:	4a0e      	ldr	r2, [pc, #56]	; (1000a988 <strlen+0x5c>)
1000a94e:	4c0f      	ldr	r4, [pc, #60]	; (1000a98c <strlen+0x60>)
1000a950:	188a      	adds	r2, r1, r2
1000a952:	438a      	bics	r2, r1
1000a954:	4222      	tst	r2, r4
1000a956:	d106      	bne.n	1000a966 <strlen+0x3a>
1000a958:	3304      	adds	r3, #4
1000a95a:	6819      	ldr	r1, [r3, #0]
1000a95c:	4a0a      	ldr	r2, [pc, #40]	; (1000a988 <strlen+0x5c>)
1000a95e:	188a      	adds	r2, r1, r2
1000a960:	438a      	bics	r2, r1
1000a962:	4222      	tst	r2, r4
1000a964:	d0f8      	beq.n	1000a958 <strlen+0x2c>
1000a966:	001a      	movs	r2, r3
1000a968:	781b      	ldrb	r3, [r3, #0]
1000a96a:	2b00      	cmp	r3, #0
1000a96c:	d003      	beq.n	1000a976 <strlen+0x4a>
1000a96e:	3201      	adds	r2, #1
1000a970:	7811      	ldrb	r1, [r2, #0]
1000a972:	2900      	cmp	r1, #0
1000a974:	d1fb      	bne.n	1000a96e <strlen+0x42>
1000a976:	1a10      	subs	r0, r2, r0
1000a978:	bd10      	pop	{r4, pc}
1000a97a:	1a18      	subs	r0, r3, r0
1000a97c:	e7fc      	b.n	1000a978 <strlen+0x4c>
1000a97e:	0003      	movs	r3, r0
1000a980:	e7e3      	b.n	1000a94a <strlen+0x1e>
1000a982:	2000      	movs	r0, #0
1000a984:	e7f8      	b.n	1000a978 <strlen+0x4c>
1000a986:	46c0      	nop			; (mov r8, r8)
1000a988:	fefefeff 	.word	0xfefefeff
1000a98c:	80808080 	.word	0x80808080

1000a990 <__swbuf_r>:
1000a990:	b5f8      	push	{r3, r4, r5, r6, r7, lr}
1000a992:	0006      	movs	r6, r0
1000a994:	000d      	movs	r5, r1
1000a996:	0014      	movs	r4, r2
1000a998:	2800      	cmp	r0, #0
1000a99a:	d002      	beq.n	1000a9a2 <__swbuf_r+0x12>
1000a99c:	6b83      	ldr	r3, [r0, #56]	; 0x38
1000a99e:	2b00      	cmp	r3, #0
1000a9a0:	d04e      	beq.n	1000aa40 <__swbuf_r+0xb0>
1000a9a2:	69a3      	ldr	r3, [r4, #24]
1000a9a4:	60a3      	str	r3, [r4, #8]
1000a9a6:	230c      	movs	r3, #12
1000a9a8:	5ee0      	ldrsh	r0, [r4, r3]
1000a9aa:	b281      	uxth	r1, r0
1000a9ac:	070b      	lsls	r3, r1, #28
1000a9ae:	d53c      	bpl.n	1000aa2a <__swbuf_r+0x9a>
1000a9b0:	6923      	ldr	r3, [r4, #16]
1000a9b2:	2b00      	cmp	r3, #0
1000a9b4:	d039      	beq.n	1000aa2a <__swbuf_r+0x9a>
1000a9b6:	22ff      	movs	r2, #255	; 0xff
1000a9b8:	b2ef      	uxtb	r7, r5
1000a9ba:	4015      	ands	r5, r2
1000a9bc:	2280      	movs	r2, #128	; 0x80
1000a9be:	0192      	lsls	r2, r2, #6
1000a9c0:	4211      	tst	r1, r2
1000a9c2:	d015      	beq.n	1000a9f0 <__swbuf_r+0x60>
1000a9c4:	6822      	ldr	r2, [r4, #0]
1000a9c6:	6961      	ldr	r1, [r4, #20]
1000a9c8:	1ad3      	subs	r3, r2, r3
1000a9ca:	428b      	cmp	r3, r1
1000a9cc:	da1b      	bge.n	1000aa06 <__swbuf_r+0x76>
1000a9ce:	3301      	adds	r3, #1
1000a9d0:	68a1      	ldr	r1, [r4, #8]
1000a9d2:	3901      	subs	r1, #1
1000a9d4:	60a1      	str	r1, [r4, #8]
1000a9d6:	1c51      	adds	r1, r2, #1
1000a9d8:	6021      	str	r1, [r4, #0]
1000a9da:	7017      	strb	r7, [r2, #0]
1000a9dc:	6962      	ldr	r2, [r4, #20]
1000a9de:	429a      	cmp	r2, r3
1000a9e0:	d01a      	beq.n	1000aa18 <__swbuf_r+0x88>
1000a9e2:	89a3      	ldrh	r3, [r4, #12]
1000a9e4:	07db      	lsls	r3, r3, #31
1000a9e6:	d501      	bpl.n	1000a9ec <__swbuf_r+0x5c>
1000a9e8:	2d0a      	cmp	r5, #10
1000a9ea:	d015      	beq.n	1000aa18 <__swbuf_r+0x88>
1000a9ec:	0028      	movs	r0, r5
1000a9ee:	bdf8      	pop	{r3, r4, r5, r6, r7, pc}
1000a9f0:	4302      	orrs	r2, r0
1000a9f2:	6e61      	ldr	r1, [r4, #100]	; 0x64
1000a9f4:	81a2      	strh	r2, [r4, #12]
1000a9f6:	4a14      	ldr	r2, [pc, #80]	; (1000aa48 <__swbuf_r+0xb8>)
1000a9f8:	400a      	ands	r2, r1
1000a9fa:	6662      	str	r2, [r4, #100]	; 0x64
1000a9fc:	6961      	ldr	r1, [r4, #20]
1000a9fe:	6822      	ldr	r2, [r4, #0]
1000aa00:	1ad3      	subs	r3, r2, r3
1000aa02:	428b      	cmp	r3, r1
1000aa04:	dbe3      	blt.n	1000a9ce <__swbuf_r+0x3e>
1000aa06:	0021      	movs	r1, r4
1000aa08:	0030      	movs	r0, r6
1000aa0a:	f000 f931 	bl	1000ac70 <_fflush_r>
1000aa0e:	2800      	cmp	r0, #0
1000aa10:	d108      	bne.n	1000aa24 <__swbuf_r+0x94>
1000aa12:	6822      	ldr	r2, [r4, #0]
1000aa14:	2301      	movs	r3, #1
1000aa16:	e7db      	b.n	1000a9d0 <__swbuf_r+0x40>
1000aa18:	0021      	movs	r1, r4
1000aa1a:	0030      	movs	r0, r6
1000aa1c:	f000 f928 	bl	1000ac70 <_fflush_r>
1000aa20:	2800      	cmp	r0, #0
1000aa22:	d0e3      	beq.n	1000a9ec <__swbuf_r+0x5c>
1000aa24:	2501      	movs	r5, #1
1000aa26:	426d      	negs	r5, r5
1000aa28:	e7e0      	b.n	1000a9ec <__swbuf_r+0x5c>
1000aa2a:	0021      	movs	r1, r4
1000aa2c:	0030      	movs	r0, r6
1000aa2e:	f000 f80d 	bl	1000aa4c <__swsetup_r>
1000aa32:	2800      	cmp	r0, #0
1000aa34:	d1f6      	bne.n	1000aa24 <__swbuf_r+0x94>
1000aa36:	230c      	movs	r3, #12
1000aa38:	5ee0      	ldrsh	r0, [r4, r3]
1000aa3a:	6923      	ldr	r3, [r4, #16]
1000aa3c:	b281      	uxth	r1, r0
1000aa3e:	e7ba      	b.n	1000a9b6 <__swbuf_r+0x26>
1000aa40:	f000 f970 	bl	1000ad24 <__sinit>
1000aa44:	e7ad      	b.n	1000a9a2 <__swbuf_r+0x12>
1000aa46:	46c0      	nop			; (mov r8, r8)
1000aa48:	ffffdfff 	.word	0xffffdfff

1000aa4c <__swsetup_r>:
1000aa4c:	4b33      	ldr	r3, [pc, #204]	; (1000ab1c <__swsetup_r+0xd0>)
1000aa4e:	b570      	push	{r4, r5, r6, lr}
1000aa50:	0005      	movs	r5, r0
1000aa52:	6818      	ldr	r0, [r3, #0]
1000aa54:	000c      	movs	r4, r1
1000aa56:	2800      	cmp	r0, #0
1000aa58:	d002      	beq.n	1000aa60 <__swsetup_r+0x14>
1000aa5a:	6b83      	ldr	r3, [r0, #56]	; 0x38
1000aa5c:	2b00      	cmp	r3, #0
1000aa5e:	d03c      	beq.n	1000aada <__swsetup_r+0x8e>
1000aa60:	230c      	movs	r3, #12
1000aa62:	5ee2      	ldrsh	r2, [r4, r3]
1000aa64:	b293      	uxth	r3, r2
1000aa66:	0719      	lsls	r1, r3, #28
1000aa68:	d50d      	bpl.n	1000aa86 <__swsetup_r+0x3a>
1000aa6a:	6921      	ldr	r1, [r4, #16]
1000aa6c:	2900      	cmp	r1, #0
1000aa6e:	d015      	beq.n	1000aa9c <__swsetup_r+0x50>
1000aa70:	07da      	lsls	r2, r3, #31
1000aa72:	d521      	bpl.n	1000aab8 <__swsetup_r+0x6c>
1000aa74:	2300      	movs	r3, #0
1000aa76:	60a3      	str	r3, [r4, #8]
1000aa78:	6963      	ldr	r3, [r4, #20]
1000aa7a:	2000      	movs	r0, #0
1000aa7c:	425b      	negs	r3, r3
1000aa7e:	61a3      	str	r3, [r4, #24]
1000aa80:	2900      	cmp	r1, #0
1000aa82:	d021      	beq.n	1000aac8 <__swsetup_r+0x7c>
1000aa84:	bd70      	pop	{r4, r5, r6, pc}
1000aa86:	06d9      	lsls	r1, r3, #27
1000aa88:	d53f      	bpl.n	1000ab0a <__swsetup_r+0xbe>
1000aa8a:	075b      	lsls	r3, r3, #29
1000aa8c:	d428      	bmi.n	1000aae0 <__swsetup_r+0x94>
1000aa8e:	6921      	ldr	r1, [r4, #16]
1000aa90:	2308      	movs	r3, #8
1000aa92:	4313      	orrs	r3, r2
1000aa94:	81a3      	strh	r3, [r4, #12]
1000aa96:	b29b      	uxth	r3, r3
1000aa98:	2900      	cmp	r1, #0
1000aa9a:	d1e9      	bne.n	1000aa70 <__swsetup_r+0x24>
1000aa9c:	22a0      	movs	r2, #160	; 0xa0
1000aa9e:	2080      	movs	r0, #128	; 0x80
1000aaa0:	0092      	lsls	r2, r2, #2
1000aaa2:	0080      	lsls	r0, r0, #2
1000aaa4:	401a      	ands	r2, r3
1000aaa6:	4282      	cmp	r2, r0
1000aaa8:	d0e2      	beq.n	1000aa70 <__swsetup_r+0x24>
1000aaaa:	0021      	movs	r1, r4
1000aaac:	0028      	movs	r0, r5
1000aaae:	f000 fb05 	bl	1000b0bc <__smakebuf_r>
1000aab2:	89a3      	ldrh	r3, [r4, #12]
1000aab4:	6921      	ldr	r1, [r4, #16]
1000aab6:	e7db      	b.n	1000aa70 <__swsetup_r+0x24>
1000aab8:	2200      	movs	r2, #0
1000aaba:	079b      	lsls	r3, r3, #30
1000aabc:	d400      	bmi.n	1000aac0 <__swsetup_r+0x74>
1000aabe:	6962      	ldr	r2, [r4, #20]
1000aac0:	60a2      	str	r2, [r4, #8]
1000aac2:	2000      	movs	r0, #0
1000aac4:	2900      	cmp	r1, #0
1000aac6:	d1dd      	bne.n	1000aa84 <__swsetup_r+0x38>
1000aac8:	220c      	movs	r2, #12
1000aaca:	5ea3      	ldrsh	r3, [r4, r2]
1000aacc:	061a      	lsls	r2, r3, #24
1000aace:	d5d9      	bpl.n	1000aa84 <__swsetup_r+0x38>
1000aad0:	2240      	movs	r2, #64	; 0x40
1000aad2:	4313      	orrs	r3, r2
1000aad4:	81a3      	strh	r3, [r4, #12]
1000aad6:	3801      	subs	r0, #1
1000aad8:	e7d4      	b.n	1000aa84 <__swsetup_r+0x38>
1000aada:	f000 f923 	bl	1000ad24 <__sinit>
1000aade:	e7bf      	b.n	1000aa60 <__swsetup_r+0x14>
1000aae0:	6b21      	ldr	r1, [r4, #48]	; 0x30
1000aae2:	2900      	cmp	r1, #0
1000aae4:	d00a      	beq.n	1000aafc <__swsetup_r+0xb0>
1000aae6:	0023      	movs	r3, r4
1000aae8:	3340      	adds	r3, #64	; 0x40
1000aaea:	4299      	cmp	r1, r3
1000aaec:	d004      	beq.n	1000aaf8 <__swsetup_r+0xac>
1000aaee:	0028      	movs	r0, r5
1000aaf0:	f000 f9a8 	bl	1000ae44 <_free_r>
1000aaf4:	230c      	movs	r3, #12
1000aaf6:	5ee2      	ldrsh	r2, [r4, r3]
1000aaf8:	2300      	movs	r3, #0
1000aafa:	6323      	str	r3, [r4, #48]	; 0x30
1000aafc:	2324      	movs	r3, #36	; 0x24
1000aafe:	439a      	bics	r2, r3
1000ab00:	2300      	movs	r3, #0
1000ab02:	6921      	ldr	r1, [r4, #16]
1000ab04:	6063      	str	r3, [r4, #4]
1000ab06:	6021      	str	r1, [r4, #0]
1000ab08:	e7c2      	b.n	1000aa90 <__swsetup_r+0x44>
1000ab0a:	2309      	movs	r3, #9
1000ab0c:	602b      	str	r3, [r5, #0]
1000ab0e:	2340      	movs	r3, #64	; 0x40
1000ab10:	2001      	movs	r0, #1
1000ab12:	431a      	orrs	r2, r3
1000ab14:	81a2      	strh	r2, [r4, #12]
1000ab16:	4240      	negs	r0, r0
1000ab18:	e7b4      	b.n	1000aa84 <__swsetup_r+0x38>
1000ab1a:	46c0      	nop			; (mov r8, r8)
1000ab1c:	200002fc 	.word	0x200002fc

1000ab20 <__sflush_r>:
1000ab20:	b5f0      	push	{r4, r5, r6, r7, lr}
1000ab22:	46c6      	mov	lr, r8
1000ab24:	b500      	push	{lr}
1000ab26:	230c      	movs	r3, #12
1000ab28:	5eca      	ldrsh	r2, [r1, r3]
1000ab2a:	4680      	mov	r8, r0
1000ab2c:	b293      	uxth	r3, r2
1000ab2e:	000c      	movs	r4, r1
1000ab30:	0719      	lsls	r1, r3, #28
1000ab32:	d440      	bmi.n	1000abb6 <__sflush_r+0x96>
1000ab34:	2380      	movs	r3, #128	; 0x80
1000ab36:	011b      	lsls	r3, r3, #4
1000ab38:	4313      	orrs	r3, r2
1000ab3a:	6862      	ldr	r2, [r4, #4]
1000ab3c:	81a3      	strh	r3, [r4, #12]
1000ab3e:	2a00      	cmp	r2, #0
1000ab40:	dc00      	bgt.n	1000ab44 <__sflush_r+0x24>
1000ab42:	e070      	b.n	1000ac26 <__sflush_r+0x106>
1000ab44:	6aa6      	ldr	r6, [r4, #40]	; 0x28
1000ab46:	2e00      	cmp	r6, #0
1000ab48:	d031      	beq.n	1000abae <__sflush_r+0x8e>
1000ab4a:	4642      	mov	r2, r8
1000ab4c:	4641      	mov	r1, r8
1000ab4e:	6815      	ldr	r5, [r2, #0]
1000ab50:	2200      	movs	r2, #0
1000ab52:	b29b      	uxth	r3, r3
1000ab54:	600a      	str	r2, [r1, #0]
1000ab56:	04da      	lsls	r2, r3, #19
1000ab58:	d400      	bmi.n	1000ab5c <__sflush_r+0x3c>
1000ab5a:	e069      	b.n	1000ac30 <__sflush_r+0x110>
1000ab5c:	6d22      	ldr	r2, [r4, #80]	; 0x50
1000ab5e:	075b      	lsls	r3, r3, #29
1000ab60:	d506      	bpl.n	1000ab70 <__sflush_r+0x50>
1000ab62:	6863      	ldr	r3, [r4, #4]
1000ab64:	1ad2      	subs	r2, r2, r3
1000ab66:	6b23      	ldr	r3, [r4, #48]	; 0x30
1000ab68:	2b00      	cmp	r3, #0
1000ab6a:	d001      	beq.n	1000ab70 <__sflush_r+0x50>
1000ab6c:	6be3      	ldr	r3, [r4, #60]	; 0x3c
1000ab6e:	1ad2      	subs	r2, r2, r3
1000ab70:	2300      	movs	r3, #0
1000ab72:	69e1      	ldr	r1, [r4, #28]
1000ab74:	4640      	mov	r0, r8
1000ab76:	47b0      	blx	r6
1000ab78:	1c43      	adds	r3, r0, #1
1000ab7a:	d03d      	beq.n	1000abf8 <__sflush_r+0xd8>
1000ab7c:	89a3      	ldrh	r3, [r4, #12]
1000ab7e:	4a3a      	ldr	r2, [pc, #232]	; (1000ac68 <__sflush_r+0x148>)
1000ab80:	4013      	ands	r3, r2
1000ab82:	2200      	movs	r2, #0
1000ab84:	6062      	str	r2, [r4, #4]
1000ab86:	6922      	ldr	r2, [r4, #16]
1000ab88:	b21b      	sxth	r3, r3
1000ab8a:	81a3      	strh	r3, [r4, #12]
1000ab8c:	6022      	str	r2, [r4, #0]
1000ab8e:	04db      	lsls	r3, r3, #19
1000ab90:	d447      	bmi.n	1000ac22 <__sflush_r+0x102>
1000ab92:	4643      	mov	r3, r8
1000ab94:	6b21      	ldr	r1, [r4, #48]	; 0x30
1000ab96:	601d      	str	r5, [r3, #0]
1000ab98:	2900      	cmp	r1, #0
1000ab9a:	d008      	beq.n	1000abae <__sflush_r+0x8e>
1000ab9c:	0023      	movs	r3, r4
1000ab9e:	3340      	adds	r3, #64	; 0x40
1000aba0:	4299      	cmp	r1, r3
1000aba2:	d002      	beq.n	1000abaa <__sflush_r+0x8a>
1000aba4:	4640      	mov	r0, r8
1000aba6:	f000 f94d 	bl	1000ae44 <_free_r>
1000abaa:	2300      	movs	r3, #0
1000abac:	6323      	str	r3, [r4, #48]	; 0x30
1000abae:	2000      	movs	r0, #0
1000abb0:	bc04      	pop	{r2}
1000abb2:	4690      	mov	r8, r2
1000abb4:	bdf0      	pop	{r4, r5, r6, r7, pc}
1000abb6:	6926      	ldr	r6, [r4, #16]
1000abb8:	2e00      	cmp	r6, #0
1000abba:	d0f8      	beq.n	1000abae <__sflush_r+0x8e>
1000abbc:	6822      	ldr	r2, [r4, #0]
1000abbe:	6026      	str	r6, [r4, #0]
1000abc0:	1b95      	subs	r5, r2, r6
1000abc2:	2200      	movs	r2, #0
1000abc4:	079b      	lsls	r3, r3, #30
1000abc6:	d100      	bne.n	1000abca <__sflush_r+0xaa>
1000abc8:	6962      	ldr	r2, [r4, #20]
1000abca:	60a2      	str	r2, [r4, #8]
1000abcc:	2d00      	cmp	r5, #0
1000abce:	dc04      	bgt.n	1000abda <__sflush_r+0xba>
1000abd0:	e7ed      	b.n	1000abae <__sflush_r+0x8e>
1000abd2:	1836      	adds	r6, r6, r0
1000abd4:	1a2d      	subs	r5, r5, r0
1000abd6:	2d00      	cmp	r5, #0
1000abd8:	dde9      	ble.n	1000abae <__sflush_r+0x8e>
1000abda:	002b      	movs	r3, r5
1000abdc:	0032      	movs	r2, r6
1000abde:	69e1      	ldr	r1, [r4, #28]
1000abe0:	4640      	mov	r0, r8
1000abe2:	6a67      	ldr	r7, [r4, #36]	; 0x24
1000abe4:	47b8      	blx	r7
1000abe6:	2800      	cmp	r0, #0
1000abe8:	dcf3      	bgt.n	1000abd2 <__sflush_r+0xb2>
1000abea:	2240      	movs	r2, #64	; 0x40
1000abec:	2001      	movs	r0, #1
1000abee:	89a3      	ldrh	r3, [r4, #12]
1000abf0:	4240      	negs	r0, r0
1000abf2:	4313      	orrs	r3, r2
1000abf4:	81a3      	strh	r3, [r4, #12]
1000abf6:	e7db      	b.n	1000abb0 <__sflush_r+0x90>
1000abf8:	4643      	mov	r3, r8
1000abfa:	6819      	ldr	r1, [r3, #0]
1000abfc:	291d      	cmp	r1, #29
1000abfe:	d8f4      	bhi.n	1000abea <__sflush_r+0xca>
1000ac00:	4b1a      	ldr	r3, [pc, #104]	; (1000ac6c <__sflush_r+0x14c>)
1000ac02:	2201      	movs	r2, #1
1000ac04:	40cb      	lsrs	r3, r1
1000ac06:	439a      	bics	r2, r3
1000ac08:	d1ef      	bne.n	1000abea <__sflush_r+0xca>
1000ac0a:	89a3      	ldrh	r3, [r4, #12]
1000ac0c:	4e16      	ldr	r6, [pc, #88]	; (1000ac68 <__sflush_r+0x148>)
1000ac0e:	6062      	str	r2, [r4, #4]
1000ac10:	4033      	ands	r3, r6
1000ac12:	6922      	ldr	r2, [r4, #16]
1000ac14:	b21b      	sxth	r3, r3
1000ac16:	81a3      	strh	r3, [r4, #12]
1000ac18:	6022      	str	r2, [r4, #0]
1000ac1a:	04db      	lsls	r3, r3, #19
1000ac1c:	d5b9      	bpl.n	1000ab92 <__sflush_r+0x72>
1000ac1e:	2900      	cmp	r1, #0
1000ac20:	d1b7      	bne.n	1000ab92 <__sflush_r+0x72>
1000ac22:	6520      	str	r0, [r4, #80]	; 0x50
1000ac24:	e7b5      	b.n	1000ab92 <__sflush_r+0x72>
1000ac26:	6be2      	ldr	r2, [r4, #60]	; 0x3c
1000ac28:	2a00      	cmp	r2, #0
1000ac2a:	dd00      	ble.n	1000ac2e <__sflush_r+0x10e>
1000ac2c:	e78a      	b.n	1000ab44 <__sflush_r+0x24>
1000ac2e:	e7be      	b.n	1000abae <__sflush_r+0x8e>
1000ac30:	2200      	movs	r2, #0
1000ac32:	2301      	movs	r3, #1
1000ac34:	69e1      	ldr	r1, [r4, #28]
1000ac36:	4640      	mov	r0, r8
1000ac38:	47b0      	blx	r6
1000ac3a:	0002      	movs	r2, r0
1000ac3c:	1c43      	adds	r3, r0, #1
1000ac3e:	d002      	beq.n	1000ac46 <__sflush_r+0x126>
1000ac40:	89a3      	ldrh	r3, [r4, #12]
1000ac42:	6aa6      	ldr	r6, [r4, #40]	; 0x28
1000ac44:	e78b      	b.n	1000ab5e <__sflush_r+0x3e>
1000ac46:	4643      	mov	r3, r8
1000ac48:	681b      	ldr	r3, [r3, #0]
1000ac4a:	2b00      	cmp	r3, #0
1000ac4c:	d0f8      	beq.n	1000ac40 <__sflush_r+0x120>
1000ac4e:	2b1d      	cmp	r3, #29
1000ac50:	d001      	beq.n	1000ac56 <__sflush_r+0x136>
1000ac52:	2b16      	cmp	r3, #22
1000ac54:	d103      	bne.n	1000ac5e <__sflush_r+0x13e>
1000ac56:	4643      	mov	r3, r8
1000ac58:	2000      	movs	r0, #0
1000ac5a:	601d      	str	r5, [r3, #0]
1000ac5c:	e7a8      	b.n	1000abb0 <__sflush_r+0x90>
1000ac5e:	2140      	movs	r1, #64	; 0x40
1000ac60:	89a3      	ldrh	r3, [r4, #12]
1000ac62:	430b      	orrs	r3, r1
1000ac64:	81a3      	strh	r3, [r4, #12]
1000ac66:	e7a3      	b.n	1000abb0 <__sflush_r+0x90>
1000ac68:	fffff7ff 	.word	0xfffff7ff
1000ac6c:	20400001 	.word	0x20400001

1000ac70 <_fflush_r>:
1000ac70:	b570      	push	{r4, r5, r6, lr}
1000ac72:	0005      	movs	r5, r0
1000ac74:	000c      	movs	r4, r1
1000ac76:	2800      	cmp	r0, #0
1000ac78:	d002      	beq.n	1000ac80 <_fflush_r+0x10>
1000ac7a:	6b83      	ldr	r3, [r0, #56]	; 0x38
1000ac7c:	2b00      	cmp	r3, #0
1000ac7e:	d016      	beq.n	1000acae <_fflush_r+0x3e>
1000ac80:	220c      	movs	r2, #12
1000ac82:	5ea3      	ldrsh	r3, [r4, r2]
1000ac84:	2600      	movs	r6, #0
1000ac86:	2b00      	cmp	r3, #0
1000ac88:	d00f      	beq.n	1000acaa <_fflush_r+0x3a>
1000ac8a:	6e62      	ldr	r2, [r4, #100]	; 0x64
1000ac8c:	07d2      	lsls	r2, r2, #31
1000ac8e:	d401      	bmi.n	1000ac94 <_fflush_r+0x24>
1000ac90:	059b      	lsls	r3, r3, #22
1000ac92:	d513      	bpl.n	1000acbc <_fflush_r+0x4c>
1000ac94:	0021      	movs	r1, r4
1000ac96:	0028      	movs	r0, r5
1000ac98:	f7ff ff42 	bl	1000ab20 <__sflush_r>
1000ac9c:	6e63      	ldr	r3, [r4, #100]	; 0x64
1000ac9e:	0006      	movs	r6, r0
1000aca0:	07db      	lsls	r3, r3, #31
1000aca2:	d402      	bmi.n	1000acaa <_fflush_r+0x3a>
1000aca4:	89a3      	ldrh	r3, [r4, #12]
1000aca6:	059b      	lsls	r3, r3, #22
1000aca8:	d504      	bpl.n	1000acb4 <_fflush_r+0x44>
1000acaa:	0030      	movs	r0, r6
1000acac:	bd70      	pop	{r4, r5, r6, pc}
1000acae:	f000 f839 	bl	1000ad24 <__sinit>
1000acb2:	e7e5      	b.n	1000ac80 <_fflush_r+0x10>
1000acb4:	6da0      	ldr	r0, [r4, #88]	; 0x58
1000acb6:	f000 f9cf 	bl	1000b058 <__retarget_lock_release_recursive>
1000acba:	e7f6      	b.n	1000acaa <_fflush_r+0x3a>
1000acbc:	6da0      	ldr	r0, [r4, #88]	; 0x58
1000acbe:	f000 f9c9 	bl	1000b054 <__retarget_lock_acquire_recursive>
1000acc2:	e7e7      	b.n	1000ac94 <_fflush_r+0x24>

1000acc4 <_cleanup_r>:
1000acc4:	b510      	push	{r4, lr}
1000acc6:	4902      	ldr	r1, [pc, #8]	; (1000acd0 <_cleanup_r+0xc>)
1000acc8:	f000 f99a 	bl	1000b000 <_fwalk_reent>
1000accc:	bd10      	pop	{r4, pc}
1000acce:	46c0      	nop			; (mov r8, r8)
1000acd0:	1000b235 	.word	0x1000b235

1000acd4 <std.isra.0>:
1000acd4:	2300      	movs	r3, #0
1000acd6:	b510      	push	{r4, lr}
1000acd8:	0004      	movs	r4, r0
1000acda:	6003      	str	r3, [r0, #0]
1000acdc:	6043      	str	r3, [r0, #4]
1000acde:	6083      	str	r3, [r0, #8]
1000ace0:	8181      	strh	r1, [r0, #12]
1000ace2:	6643      	str	r3, [r0, #100]	; 0x64
1000ace4:	81c2      	strh	r2, [r0, #14]
1000ace6:	6103      	str	r3, [r0, #16]
1000ace8:	6143      	str	r3, [r0, #20]
1000acea:	6183      	str	r3, [r0, #24]
1000acec:	2208      	movs	r2, #8
1000acee:	2100      	movs	r1, #0
1000acf0:	305c      	adds	r0, #92	; 0x5c
1000acf2:	f7fc fd45 	bl	10007780 <__wrap_memset>
1000acf6:	0020      	movs	r0, r4
1000acf8:	4b06      	ldr	r3, [pc, #24]	; (1000ad14 <std.isra.0+0x40>)
1000acfa:	61e4      	str	r4, [r4, #28]
1000acfc:	6223      	str	r3, [r4, #32]
1000acfe:	4b06      	ldr	r3, [pc, #24]	; (1000ad18 <std.isra.0+0x44>)
1000ad00:	3058      	adds	r0, #88	; 0x58
1000ad02:	6263      	str	r3, [r4, #36]	; 0x24
1000ad04:	4b05      	ldr	r3, [pc, #20]	; (1000ad1c <std.isra.0+0x48>)
1000ad06:	62a3      	str	r3, [r4, #40]	; 0x28
1000ad08:	4b05      	ldr	r3, [pc, #20]	; (1000ad20 <std.isra.0+0x4c>)
1000ad0a:	62e3      	str	r3, [r4, #44]	; 0x2c
1000ad0c:	f000 f99e 	bl	1000b04c <__retarget_lock_init_recursive>
1000ad10:	bd10      	pop	{r4, pc}
1000ad12:	46c0      	nop			; (mov r8, r8)
1000ad14:	1000b14d 	.word	0x1000b14d
1000ad18:	1000b175 	.word	0x1000b175
1000ad1c:	1000b1b1 	.word	0x1000b1b1
1000ad20:	1000b1dd 	.word	0x1000b1dd

1000ad24 <__sinit>:
1000ad24:	b570      	push	{r4, r5, r6, lr}
1000ad26:	0004      	movs	r4, r0
1000ad28:	4d14      	ldr	r5, [pc, #80]	; (1000ad7c <__sinit+0x58>)
1000ad2a:	0028      	movs	r0, r5
1000ad2c:	f000 f992 	bl	1000b054 <__retarget_lock_acquire_recursive>
1000ad30:	6ba3      	ldr	r3, [r4, #56]	; 0x38
1000ad32:	2b00      	cmp	r3, #0
1000ad34:	d11d      	bne.n	1000ad72 <__sinit+0x4e>
1000ad36:	4a12      	ldr	r2, [pc, #72]	; (1000ad80 <__sinit+0x5c>)
1000ad38:	2104      	movs	r1, #4
1000ad3a:	63e2      	str	r2, [r4, #60]	; 0x3c
1000ad3c:	22b8      	movs	r2, #184	; 0xb8
1000ad3e:	0092      	lsls	r2, r2, #2
1000ad40:	50a3      	str	r3, [r4, r2]
1000ad42:	23b9      	movs	r3, #185	; 0xb9
1000ad44:	2203      	movs	r2, #3
1000ad46:	009b      	lsls	r3, r3, #2
1000ad48:	50e2      	str	r2, [r4, r3]
1000ad4a:	3308      	adds	r3, #8
1000ad4c:	18e2      	adds	r2, r4, r3
1000ad4e:	3b04      	subs	r3, #4
1000ad50:	50e2      	str	r2, [r4, r3]
1000ad52:	6860      	ldr	r0, [r4, #4]
1000ad54:	2200      	movs	r2, #0
1000ad56:	f7ff ffbd 	bl	1000acd4 <std.isra.0>
1000ad5a:	2201      	movs	r2, #1
1000ad5c:	2109      	movs	r1, #9
1000ad5e:	68a0      	ldr	r0, [r4, #8]
1000ad60:	f7ff ffb8 	bl	1000acd4 <std.isra.0>
1000ad64:	2202      	movs	r2, #2
1000ad66:	2112      	movs	r1, #18
1000ad68:	68e0      	ldr	r0, [r4, #12]
1000ad6a:	f7ff ffb3 	bl	1000acd4 <std.isra.0>
1000ad6e:	2301      	movs	r3, #1
1000ad70:	63a3      	str	r3, [r4, #56]	; 0x38
1000ad72:	0028      	movs	r0, r5
1000ad74:	f000 f970 	bl	1000b058 <__retarget_lock_release_recursive>
1000ad78:	bd70      	pop	{r4, r5, r6, pc}
1000ad7a:	46c0      	nop			; (mov r8, r8)
1000ad7c:	20001f60 	.word	0x20001f60
1000ad80:	1000acc5 	.word	0x1000acc5

1000ad84 <__sfp_lock_acquire>:
1000ad84:	b510      	push	{r4, lr}
1000ad86:	4802      	ldr	r0, [pc, #8]	; (1000ad90 <__sfp_lock_acquire+0xc>)
1000ad88:	f000 f964 	bl	1000b054 <__retarget_lock_acquire_recursive>
1000ad8c:	bd10      	pop	{r4, pc}
1000ad8e:	46c0      	nop			; (mov r8, r8)
1000ad90:	20001f74 	.word	0x20001f74

1000ad94 <__sfp_lock_release>:
1000ad94:	b510      	push	{r4, lr}
1000ad96:	4802      	ldr	r0, [pc, #8]	; (1000ada0 <__sfp_lock_release+0xc>)
1000ad98:	f000 f95e 	bl	1000b058 <__retarget_lock_release_recursive>
1000ad9c:	bd10      	pop	{r4, pc}
1000ad9e:	46c0      	nop			; (mov r8, r8)
1000ada0:	20001f74 	.word	0x20001f74

1000ada4 <_malloc_trim_r>:
1000ada4:	b5f8      	push	{r3, r4, r5, r6, r7, lr}
1000ada6:	000c      	movs	r4, r1
1000ada8:	0006      	movs	r6, r0
1000adaa:	f7ff fd9d 	bl	1000a8e8 <__malloc_lock>
1000adae:	4f20      	ldr	r7, [pc, #128]	; (1000ae30 <_malloc_trim_r+0x8c>)
1000adb0:	68bb      	ldr	r3, [r7, #8]
1000adb2:	685d      	ldr	r5, [r3, #4]
1000adb4:	2303      	movs	r3, #3
1000adb6:	439d      	bics	r5, r3
1000adb8:	4b1e      	ldr	r3, [pc, #120]	; (1000ae34 <_malloc_trim_r+0x90>)
1000adba:	1b2c      	subs	r4, r5, r4
1000adbc:	469c      	mov	ip, r3
1000adbe:	4464      	add	r4, ip
1000adc0:	0b24      	lsrs	r4, r4, #12
1000adc2:	4b1d      	ldr	r3, [pc, #116]	; (1000ae38 <_malloc_trim_r+0x94>)
1000adc4:	3c01      	subs	r4, #1
1000adc6:	0324      	lsls	r4, r4, #12
1000adc8:	429c      	cmp	r4, r3
1000adca:	dd07      	ble.n	1000addc <_malloc_trim_r+0x38>
1000adcc:	2100      	movs	r1, #0
1000adce:	0030      	movs	r0, r6
1000add0:	f7ff fd9a 	bl	1000a908 <_sbrk_r>
1000add4:	68bb      	ldr	r3, [r7, #8]
1000add6:	195b      	adds	r3, r3, r5
1000add8:	4298      	cmp	r0, r3
1000adda:	d004      	beq.n	1000ade6 <_malloc_trim_r+0x42>
1000addc:	0030      	movs	r0, r6
1000adde:	f7ff fd8b 	bl	1000a8f8 <__malloc_unlock>
1000ade2:	2000      	movs	r0, #0
1000ade4:	bdf8      	pop	{r3, r4, r5, r6, r7, pc}
1000ade6:	4261      	negs	r1, r4
1000ade8:	0030      	movs	r0, r6
1000adea:	f7ff fd8d 	bl	1000a908 <_sbrk_r>
1000adee:	1c43      	adds	r3, r0, #1
1000adf0:	d00d      	beq.n	1000ae0e <_malloc_trim_r+0x6a>
1000adf2:	2201      	movs	r2, #1
1000adf4:	68bb      	ldr	r3, [r7, #8]
1000adf6:	1b2d      	subs	r5, r5, r4
1000adf8:	4315      	orrs	r5, r2
1000adfa:	605d      	str	r5, [r3, #4]
1000adfc:	4b0f      	ldr	r3, [pc, #60]	; (1000ae3c <_malloc_trim_r+0x98>)
1000adfe:	0030      	movs	r0, r6
1000ae00:	681a      	ldr	r2, [r3, #0]
1000ae02:	1b14      	subs	r4, r2, r4
1000ae04:	601c      	str	r4, [r3, #0]
1000ae06:	f7ff fd77 	bl	1000a8f8 <__malloc_unlock>
1000ae0a:	2001      	movs	r0, #1
1000ae0c:	e7ea      	b.n	1000ade4 <_malloc_trim_r+0x40>
1000ae0e:	2100      	movs	r1, #0
1000ae10:	0030      	movs	r0, r6
1000ae12:	f7ff fd79 	bl	1000a908 <_sbrk_r>
1000ae16:	68ba      	ldr	r2, [r7, #8]
1000ae18:	1a83      	subs	r3, r0, r2
1000ae1a:	2b0f      	cmp	r3, #15
1000ae1c:	ddde      	ble.n	1000addc <_malloc_trim_r+0x38>
1000ae1e:	4908      	ldr	r1, [pc, #32]	; (1000ae40 <_malloc_trim_r+0x9c>)
1000ae20:	6809      	ldr	r1, [r1, #0]
1000ae22:	1a40      	subs	r0, r0, r1
1000ae24:	4905      	ldr	r1, [pc, #20]	; (1000ae3c <_malloc_trim_r+0x98>)
1000ae26:	6008      	str	r0, [r1, #0]
1000ae28:	2101      	movs	r1, #1
1000ae2a:	430b      	orrs	r3, r1
1000ae2c:	6053      	str	r3, [r2, #4]
1000ae2e:	e7d5      	b.n	1000addc <_malloc_trim_r+0x38>
1000ae30:	20000728 	.word	0x20000728
1000ae34:	00000fef 	.word	0x00000fef
1000ae38:	00000fff 	.word	0x00000fff
1000ae3c:	20000b84 	.word	0x20000b84
1000ae40:	20000b30 	.word	0x20000b30

1000ae44 <_free_r>:
1000ae44:	b5f8      	push	{r3, r4, r5, r6, r7, lr}
1000ae46:	0004      	movs	r4, r0
1000ae48:	1e0d      	subs	r5, r1, #0
1000ae4a:	d03c      	beq.n	1000aec6 <_free_r+0x82>
1000ae4c:	f7ff fd4c 	bl	1000a8e8 <__malloc_lock>
1000ae50:	0029      	movs	r1, r5
1000ae52:	3908      	subs	r1, #8
1000ae54:	6848      	ldr	r0, [r1, #4]
1000ae56:	2301      	movs	r3, #1
1000ae58:	0005      	movs	r5, r0
1000ae5a:	2603      	movs	r6, #3
1000ae5c:	439d      	bics	r5, r3
1000ae5e:	194a      	adds	r2, r1, r5
1000ae60:	469c      	mov	ip, r3
1000ae62:	4f61      	ldr	r7, [pc, #388]	; (1000afe8 <_free_r+0x1a4>)
1000ae64:	6853      	ldr	r3, [r2, #4]
1000ae66:	43b3      	bics	r3, r6
1000ae68:	68be      	ldr	r6, [r7, #8]
1000ae6a:	42b2      	cmp	r2, r6
1000ae6c:	d056      	beq.n	1000af1c <_free_r+0xd8>
1000ae6e:	4666      	mov	r6, ip
1000ae70:	6053      	str	r3, [r2, #4]
1000ae72:	4206      	tst	r6, r0
1000ae74:	d10a      	bne.n	1000ae8c <_free_r+0x48>
1000ae76:	003e      	movs	r6, r7
1000ae78:	6808      	ldr	r0, [r1, #0]
1000ae7a:	3608      	adds	r6, #8
1000ae7c:	1a09      	subs	r1, r1, r0
1000ae7e:	182d      	adds	r5, r5, r0
1000ae80:	6888      	ldr	r0, [r1, #8]
1000ae82:	42b0      	cmp	r0, r6
1000ae84:	d065      	beq.n	1000af52 <_free_r+0x10e>
1000ae86:	68ce      	ldr	r6, [r1, #12]
1000ae88:	60c6      	str	r6, [r0, #12]
1000ae8a:	60b0      	str	r0, [r6, #8]
1000ae8c:	2001      	movs	r0, #1
1000ae8e:	18d6      	adds	r6, r2, r3
1000ae90:	6876      	ldr	r6, [r6, #4]
1000ae92:	4206      	tst	r6, r0
1000ae94:	d033      	beq.n	1000aefe <_free_r+0xba>
1000ae96:	4b55      	ldr	r3, [pc, #340]	; (1000afec <_free_r+0x1a8>)
1000ae98:	4328      	orrs	r0, r5
1000ae9a:	6048      	str	r0, [r1, #4]
1000ae9c:	514d      	str	r5, [r1, r5]
1000ae9e:	429d      	cmp	r5, r3
1000aea0:	d812      	bhi.n	1000aec8 <_free_r+0x84>
1000aea2:	08ed      	lsrs	r5, r5, #3
1000aea4:	3bff      	subs	r3, #255	; 0xff
1000aea6:	10aa      	asrs	r2, r5, #2
1000aea8:	3bff      	subs	r3, #255	; 0xff
1000aeaa:	4093      	lsls	r3, r2
1000aeac:	687a      	ldr	r2, [r7, #4]
1000aeae:	00ed      	lsls	r5, r5, #3
1000aeb0:	4313      	orrs	r3, r2
1000aeb2:	607b      	str	r3, [r7, #4]
1000aeb4:	19ef      	adds	r7, r5, r7
1000aeb6:	68bb      	ldr	r3, [r7, #8]
1000aeb8:	60cf      	str	r7, [r1, #12]
1000aeba:	608b      	str	r3, [r1, #8]
1000aebc:	60b9      	str	r1, [r7, #8]
1000aebe:	60d9      	str	r1, [r3, #12]
1000aec0:	0020      	movs	r0, r4
1000aec2:	f7ff fd19 	bl	1000a8f8 <__malloc_unlock>
1000aec6:	bdf8      	pop	{r3, r4, r5, r6, r7, pc}
1000aec8:	0a68      	lsrs	r0, r5, #9
1000aeca:	2804      	cmp	r0, #4
1000aecc:	d850      	bhi.n	1000af70 <_free_r+0x12c>
1000aece:	09a8      	lsrs	r0, r5, #6
1000aed0:	0002      	movs	r2, r0
1000aed2:	3039      	adds	r0, #57	; 0x39
1000aed4:	3238      	adds	r2, #56	; 0x38
1000aed6:	00c0      	lsls	r0, r0, #3
1000aed8:	1838      	adds	r0, r7, r0
1000aeda:	3808      	subs	r0, #8
1000aedc:	6883      	ldr	r3, [r0, #8]
1000aede:	2603      	movs	r6, #3
1000aee0:	4298      	cmp	r0, r3
1000aee2:	d04c      	beq.n	1000af7e <_free_r+0x13a>
1000aee4:	685a      	ldr	r2, [r3, #4]
1000aee6:	43b2      	bics	r2, r6
1000aee8:	4295      	cmp	r5, r2
1000aeea:	d230      	bcs.n	1000af4e <_free_r+0x10a>
1000aeec:	689b      	ldr	r3, [r3, #8]
1000aeee:	4298      	cmp	r0, r3
1000aef0:	d1f8      	bne.n	1000aee4 <_free_r+0xa0>
1000aef2:	68c3      	ldr	r3, [r0, #12]
1000aef4:	60cb      	str	r3, [r1, #12]
1000aef6:	6088      	str	r0, [r1, #8]
1000aef8:	6099      	str	r1, [r3, #8]
1000aefa:	60c1      	str	r1, [r0, #12]
1000aefc:	e7e0      	b.n	1000aec0 <_free_r+0x7c>
1000aefe:	18ed      	adds	r5, r5, r3
1000af00:	4e3b      	ldr	r6, [pc, #236]	; (1000aff0 <_free_r+0x1ac>)
1000af02:	6893      	ldr	r3, [r2, #8]
1000af04:	42b3      	cmp	r3, r6
1000af06:	d042      	beq.n	1000af8e <_free_r+0x14a>
1000af08:	68d2      	ldr	r2, [r2, #12]
1000af0a:	4328      	orrs	r0, r5
1000af0c:	60da      	str	r2, [r3, #12]
1000af0e:	6093      	str	r3, [r2, #8]
1000af10:	4b36      	ldr	r3, [pc, #216]	; (1000afec <_free_r+0x1a8>)
1000af12:	6048      	str	r0, [r1, #4]
1000af14:	514d      	str	r5, [r1, r5]
1000af16:	429d      	cmp	r5, r3
1000af18:	d8d6      	bhi.n	1000aec8 <_free_r+0x84>
1000af1a:	e7c2      	b.n	1000aea2 <_free_r+0x5e>
1000af1c:	4662      	mov	r2, ip
1000af1e:	18eb      	adds	r3, r5, r3
1000af20:	4202      	tst	r2, r0
1000af22:	d106      	bne.n	1000af32 <_free_r+0xee>
1000af24:	680a      	ldr	r2, [r1, #0]
1000af26:	1a89      	subs	r1, r1, r2
1000af28:	6888      	ldr	r0, [r1, #8]
1000af2a:	189b      	adds	r3, r3, r2
1000af2c:	68ca      	ldr	r2, [r1, #12]
1000af2e:	60c2      	str	r2, [r0, #12]
1000af30:	6090      	str	r0, [r2, #8]
1000af32:	2201      	movs	r2, #1
1000af34:	431a      	orrs	r2, r3
1000af36:	604a      	str	r2, [r1, #4]
1000af38:	4a2e      	ldr	r2, [pc, #184]	; (1000aff4 <_free_r+0x1b0>)
1000af3a:	60b9      	str	r1, [r7, #8]
1000af3c:	6812      	ldr	r2, [r2, #0]
1000af3e:	4293      	cmp	r3, r2
1000af40:	d3be      	bcc.n	1000aec0 <_free_r+0x7c>
1000af42:	4b2d      	ldr	r3, [pc, #180]	; (1000aff8 <_free_r+0x1b4>)
1000af44:	0020      	movs	r0, r4
1000af46:	6819      	ldr	r1, [r3, #0]
1000af48:	f7ff ff2c 	bl	1000ada4 <_malloc_trim_r>
1000af4c:	e7b8      	b.n	1000aec0 <_free_r+0x7c>
1000af4e:	0018      	movs	r0, r3
1000af50:	e7cf      	b.n	1000aef2 <_free_r+0xae>
1000af52:	4666      	mov	r6, ip
1000af54:	18d0      	adds	r0, r2, r3
1000af56:	6840      	ldr	r0, [r0, #4]
1000af58:	4230      	tst	r0, r6
1000af5a:	d13f      	bne.n	1000afdc <_free_r+0x198>
1000af5c:	6890      	ldr	r0, [r2, #8]
1000af5e:	195d      	adds	r5, r3, r5
1000af60:	68d3      	ldr	r3, [r2, #12]
1000af62:	60c3      	str	r3, [r0, #12]
1000af64:	6098      	str	r0, [r3, #8]
1000af66:	4663      	mov	r3, ip
1000af68:	432b      	orrs	r3, r5
1000af6a:	604b      	str	r3, [r1, #4]
1000af6c:	514d      	str	r5, [r1, r5]
1000af6e:	e7a7      	b.n	1000aec0 <_free_r+0x7c>
1000af70:	2814      	cmp	r0, #20
1000af72:	d814      	bhi.n	1000af9e <_free_r+0x15a>
1000af74:	0002      	movs	r2, r0
1000af76:	305c      	adds	r0, #92	; 0x5c
1000af78:	325b      	adds	r2, #91	; 0x5b
1000af7a:	00c0      	lsls	r0, r0, #3
1000af7c:	e7ac      	b.n	1000aed8 <_free_r+0x94>
1000af7e:	2301      	movs	r3, #1
1000af80:	1092      	asrs	r2, r2, #2
1000af82:	4093      	lsls	r3, r2
1000af84:	687a      	ldr	r2, [r7, #4]
1000af86:	4313      	orrs	r3, r2
1000af88:	607b      	str	r3, [r7, #4]
1000af8a:	0003      	movs	r3, r0
1000af8c:	e7b2      	b.n	1000aef4 <_free_r+0xb0>
1000af8e:	4328      	orrs	r0, r5
1000af90:	60d9      	str	r1, [r3, #12]
1000af92:	6099      	str	r1, [r3, #8]
1000af94:	60cb      	str	r3, [r1, #12]
1000af96:	608b      	str	r3, [r1, #8]
1000af98:	6048      	str	r0, [r1, #4]
1000af9a:	514d      	str	r5, [r1, r5]
1000af9c:	e790      	b.n	1000aec0 <_free_r+0x7c>
1000af9e:	2854      	cmp	r0, #84	; 0x54
1000afa0:	d805      	bhi.n	1000afae <_free_r+0x16a>
1000afa2:	0b28      	lsrs	r0, r5, #12
1000afa4:	0002      	movs	r2, r0
1000afa6:	306f      	adds	r0, #111	; 0x6f
1000afa8:	326e      	adds	r2, #110	; 0x6e
1000afaa:	00c0      	lsls	r0, r0, #3
1000afac:	e794      	b.n	1000aed8 <_free_r+0x94>
1000afae:	22aa      	movs	r2, #170	; 0xaa
1000afb0:	0052      	lsls	r2, r2, #1
1000afb2:	4290      	cmp	r0, r2
1000afb4:	d805      	bhi.n	1000afc2 <_free_r+0x17e>
1000afb6:	0be8      	lsrs	r0, r5, #15
1000afb8:	0002      	movs	r2, r0
1000afba:	3078      	adds	r0, #120	; 0x78
1000afbc:	3277      	adds	r2, #119	; 0x77
1000afbe:	00c0      	lsls	r0, r0, #3
1000afc0:	e78a      	b.n	1000aed8 <_free_r+0x94>
1000afc2:	4a0e      	ldr	r2, [pc, #56]	; (1000affc <_free_r+0x1b8>)
1000afc4:	4290      	cmp	r0, r2
1000afc6:	d805      	bhi.n	1000afd4 <_free_r+0x190>
1000afc8:	0ca8      	lsrs	r0, r5, #18
1000afca:	0002      	movs	r2, r0
1000afcc:	307d      	adds	r0, #125	; 0x7d
1000afce:	327c      	adds	r2, #124	; 0x7c
1000afd0:	00c0      	lsls	r0, r0, #3
1000afd2:	e781      	b.n	1000aed8 <_free_r+0x94>
1000afd4:	20fe      	movs	r0, #254	; 0xfe
1000afd6:	227e      	movs	r2, #126	; 0x7e
1000afd8:	0080      	lsls	r0, r0, #2
1000afda:	e77d      	b.n	1000aed8 <_free_r+0x94>
1000afdc:	4663      	mov	r3, ip
1000afde:	432b      	orrs	r3, r5
1000afe0:	604b      	str	r3, [r1, #4]
1000afe2:	6015      	str	r5, [r2, #0]
1000afe4:	e76c      	b.n	1000aec0 <_free_r+0x7c>
1000afe6:	46c0      	nop			; (mov r8, r8)
1000afe8:	20000728 	.word	0x20000728
1000afec:	000001ff 	.word	0x000001ff
1000aff0:	20000730 	.word	0x20000730
1000aff4:	20000b34 	.word	0x20000b34
1000aff8:	20000bb4 	.word	0x20000bb4
1000affc:	00000554 	.word	0x00000554

1000b000 <_fwalk_reent>:
1000b000:	b5f8      	push	{r3, r4, r5, r6, r7, lr}
1000b002:	4647      	mov	r7, r8
1000b004:	46ce      	mov	lr, r9
1000b006:	b580      	push	{r7, lr}
1000b008:	27b8      	movs	r7, #184	; 0xb8
1000b00a:	4680      	mov	r8, r0
1000b00c:	00bf      	lsls	r7, r7, #2
1000b00e:	4447      	add	r7, r8
1000b010:	4689      	mov	r9, r1
1000b012:	2600      	movs	r6, #0
1000b014:	2f00      	cmp	r7, #0
1000b016:	d014      	beq.n	1000b042 <_fwalk_reent+0x42>
1000b018:	687b      	ldr	r3, [r7, #4]
1000b01a:	68bc      	ldr	r4, [r7, #8]
1000b01c:	1e5d      	subs	r5, r3, #1
1000b01e:	d40d      	bmi.n	1000b03c <_fwalk_reent+0x3c>
1000b020:	89a3      	ldrh	r3, [r4, #12]
1000b022:	2b01      	cmp	r3, #1
1000b024:	d907      	bls.n	1000b036 <_fwalk_reent+0x36>
1000b026:	220e      	movs	r2, #14
1000b028:	5ea3      	ldrsh	r3, [r4, r2]
1000b02a:	3301      	adds	r3, #1
1000b02c:	d003      	beq.n	1000b036 <_fwalk_reent+0x36>
1000b02e:	0021      	movs	r1, r4
1000b030:	4640      	mov	r0, r8
1000b032:	47c8      	blx	r9
1000b034:	4306      	orrs	r6, r0
1000b036:	3468      	adds	r4, #104	; 0x68
1000b038:	3d01      	subs	r5, #1
1000b03a:	d2f1      	bcs.n	1000b020 <_fwalk_reent+0x20>
1000b03c:	683f      	ldr	r7, [r7, #0]
1000b03e:	2f00      	cmp	r7, #0
1000b040:	d1ea      	bne.n	1000b018 <_fwalk_reent+0x18>
1000b042:	0030      	movs	r0, r6
1000b044:	bc0c      	pop	{r2, r3}
1000b046:	4690      	mov	r8, r2
1000b048:	4699      	mov	r9, r3
1000b04a:	bdf8      	pop	{r3, r4, r5, r6, r7, pc}

1000b04c <__retarget_lock_init_recursive>:
1000b04c:	4770      	bx	lr
1000b04e:	46c0      	nop			; (mov r8, r8)

1000b050 <__retarget_lock_close_recursive>:
1000b050:	4770      	bx	lr
1000b052:	46c0      	nop			; (mov r8, r8)

1000b054 <__retarget_lock_acquire_recursive>:
1000b054:	4770      	bx	lr
1000b056:	46c0      	nop			; (mov r8, r8)

1000b058 <__retarget_lock_release_recursive>:
1000b058:	4770      	bx	lr
1000b05a:	46c0      	nop			; (mov r8, r8)

1000b05c <__swhatbuf_r>:
1000b05c:	b570      	push	{r4, r5, r6, lr}
1000b05e:	000c      	movs	r4, r1
1000b060:	001e      	movs	r6, r3
1000b062:	230e      	movs	r3, #14
1000b064:	5ec9      	ldrsh	r1, [r1, r3]
1000b066:	b090      	sub	sp, #64	; 0x40
1000b068:	0015      	movs	r5, r2
1000b06a:	2900      	cmp	r1, #0
1000b06c:	db15      	blt.n	1000b09a <__swhatbuf_r+0x3e>
1000b06e:	aa01      	add	r2, sp, #4
1000b070:	f000 f946 	bl	1000b300 <_fstat_r>
1000b074:	2800      	cmp	r0, #0
1000b076:	db10      	blt.n	1000b09a <__swhatbuf_r+0x3e>
1000b078:	22f0      	movs	r2, #240	; 0xf0
1000b07a:	9b02      	ldr	r3, [sp, #8]
1000b07c:	0212      	lsls	r2, r2, #8
1000b07e:	4013      	ands	r3, r2
1000b080:	4a0d      	ldr	r2, [pc, #52]	; (1000b0b8 <__swhatbuf_r+0x5c>)
1000b082:	2080      	movs	r0, #128	; 0x80
1000b084:	4694      	mov	ip, r2
1000b086:	4463      	add	r3, ip
1000b088:	425a      	negs	r2, r3
1000b08a:	4153      	adcs	r3, r2
1000b08c:	6033      	str	r3, [r6, #0]
1000b08e:	2380      	movs	r3, #128	; 0x80
1000b090:	00db      	lsls	r3, r3, #3
1000b092:	602b      	str	r3, [r5, #0]
1000b094:	0100      	lsls	r0, r0, #4
1000b096:	b010      	add	sp, #64	; 0x40
1000b098:	bd70      	pop	{r4, r5, r6, pc}
1000b09a:	2300      	movs	r3, #0
1000b09c:	6033      	str	r3, [r6, #0]
1000b09e:	89a3      	ldrh	r3, [r4, #12]
1000b0a0:	061b      	lsls	r3, r3, #24
1000b0a2:	d503      	bpl.n	1000b0ac <__swhatbuf_r+0x50>
1000b0a4:	2340      	movs	r3, #64	; 0x40
1000b0a6:	2000      	movs	r0, #0
1000b0a8:	602b      	str	r3, [r5, #0]
1000b0aa:	e7f4      	b.n	1000b096 <__swhatbuf_r+0x3a>
1000b0ac:	2380      	movs	r3, #128	; 0x80
1000b0ae:	00db      	lsls	r3, r3, #3
1000b0b0:	602b      	str	r3, [r5, #0]
1000b0b2:	2000      	movs	r0, #0
1000b0b4:	e7ef      	b.n	1000b096 <__swhatbuf_r+0x3a>
1000b0b6:	46c0      	nop			; (mov r8, r8)
1000b0b8:	ffffe000 	.word	0xffffe000

1000b0bc <__smakebuf_r>:
1000b0bc:	b570      	push	{r4, r5, r6, lr}
1000b0be:	898b      	ldrh	r3, [r1, #12]
1000b0c0:	b082      	sub	sp, #8
1000b0c2:	0006      	movs	r6, r0
1000b0c4:	000c      	movs	r4, r1
1000b0c6:	079b      	lsls	r3, r3, #30
1000b0c8:	d507      	bpl.n	1000b0da <__smakebuf_r+0x1e>
1000b0ca:	0023      	movs	r3, r4
1000b0cc:	3343      	adds	r3, #67	; 0x43
1000b0ce:	6023      	str	r3, [r4, #0]
1000b0d0:	6123      	str	r3, [r4, #16]
1000b0d2:	2301      	movs	r3, #1
1000b0d4:	6163      	str	r3, [r4, #20]
1000b0d6:	b002      	add	sp, #8
1000b0d8:	bd70      	pop	{r4, r5, r6, pc}
1000b0da:	ab01      	add	r3, sp, #4
1000b0dc:	466a      	mov	r2, sp
1000b0de:	f7ff ffbd 	bl	1000b05c <__swhatbuf_r>
1000b0e2:	9900      	ldr	r1, [sp, #0]
1000b0e4:	0005      	movs	r5, r0
1000b0e6:	0030      	movs	r0, r6
1000b0e8:	f7ff f94a 	bl	1000a380 <_malloc_r>
1000b0ec:	2800      	cmp	r0, #0
1000b0ee:	d01e      	beq.n	1000b12e <__smakebuf_r+0x72>
1000b0f0:	2280      	movs	r2, #128	; 0x80
1000b0f2:	4b15      	ldr	r3, [pc, #84]	; (1000b148 <__smakebuf_r+0x8c>)
1000b0f4:	63f3      	str	r3, [r6, #60]	; 0x3c
1000b0f6:	89a3      	ldrh	r3, [r4, #12]
1000b0f8:	6020      	str	r0, [r4, #0]
1000b0fa:	4313      	orrs	r3, r2
1000b0fc:	9a00      	ldr	r2, [sp, #0]
1000b0fe:	b21b      	sxth	r3, r3
1000b100:	6162      	str	r2, [r4, #20]
1000b102:	9a01      	ldr	r2, [sp, #4]
1000b104:	81a3      	strh	r3, [r4, #12]
1000b106:	6120      	str	r0, [r4, #16]
1000b108:	2a00      	cmp	r2, #0
1000b10a:	d102      	bne.n	1000b112 <__smakebuf_r+0x56>
1000b10c:	432b      	orrs	r3, r5
1000b10e:	81a3      	strh	r3, [r4, #12]
1000b110:	e7e1      	b.n	1000b0d6 <__smakebuf_r+0x1a>
1000b112:	230e      	movs	r3, #14
1000b114:	5ee1      	ldrsh	r1, [r4, r3]
1000b116:	0030      	movs	r0, r6
1000b118:	f000 f906 	bl	1000b328 <_isatty_r>
1000b11c:	2800      	cmp	r0, #0
1000b11e:	d010      	beq.n	1000b142 <__smakebuf_r+0x86>
1000b120:	2203      	movs	r2, #3
1000b122:	89a3      	ldrh	r3, [r4, #12]
1000b124:	4393      	bics	r3, r2
1000b126:	2201      	movs	r2, #1
1000b128:	4313      	orrs	r3, r2
1000b12a:	b21b      	sxth	r3, r3
1000b12c:	e7ee      	b.n	1000b10c <__smakebuf_r+0x50>
1000b12e:	220c      	movs	r2, #12
1000b130:	5ea3      	ldrsh	r3, [r4, r2]
1000b132:	059a      	lsls	r2, r3, #22
1000b134:	d4cf      	bmi.n	1000b0d6 <__smakebuf_r+0x1a>
1000b136:	2203      	movs	r2, #3
1000b138:	4393      	bics	r3, r2
1000b13a:	2202      	movs	r2, #2
1000b13c:	4313      	orrs	r3, r2
1000b13e:	81a3      	strh	r3, [r4, #12]
1000b140:	e7c3      	b.n	1000b0ca <__smakebuf_r+0xe>
1000b142:	220c      	movs	r2, #12
1000b144:	5ea3      	ldrsh	r3, [r4, r2]
1000b146:	e7e1      	b.n	1000b10c <__smakebuf_r+0x50>
1000b148:	1000acc5 	.word	0x1000acc5

1000b14c <__sread>:
1000b14c:	b570      	push	{r4, r5, r6, lr}
1000b14e:	000c      	movs	r4, r1
1000b150:	250e      	movs	r5, #14
1000b152:	5f49      	ldrsh	r1, [r1, r5]
1000b154:	f000 f90e 	bl	1000b374 <_read_r>
1000b158:	2800      	cmp	r0, #0
1000b15a:	db03      	blt.n	1000b164 <__sread+0x18>
1000b15c:	6d23      	ldr	r3, [r4, #80]	; 0x50
1000b15e:	181b      	adds	r3, r3, r0
1000b160:	6523      	str	r3, [r4, #80]	; 0x50
1000b162:	bd70      	pop	{r4, r5, r6, pc}
1000b164:	89a3      	ldrh	r3, [r4, #12]
1000b166:	4a02      	ldr	r2, [pc, #8]	; (1000b170 <__sread+0x24>)
1000b168:	4013      	ands	r3, r2
1000b16a:	81a3      	strh	r3, [r4, #12]
1000b16c:	e7f9      	b.n	1000b162 <__sread+0x16>
1000b16e:	46c0      	nop			; (mov r8, r8)
1000b170:	ffffefff 	.word	0xffffefff

1000b174 <__swrite>:
1000b174:	b5f8      	push	{r3, r4, r5, r6, r7, lr}
1000b176:	0016      	movs	r6, r2
1000b178:	001f      	movs	r7, r3
1000b17a:	220c      	movs	r2, #12
1000b17c:	5e8b      	ldrsh	r3, [r1, r2]
1000b17e:	0005      	movs	r5, r0
1000b180:	000c      	movs	r4, r1
1000b182:	05da      	lsls	r2, r3, #23
1000b184:	d507      	bpl.n	1000b196 <__swrite+0x22>
1000b186:	230e      	movs	r3, #14
1000b188:	5ec9      	ldrsh	r1, [r1, r3]
1000b18a:	2200      	movs	r2, #0
1000b18c:	2302      	movs	r3, #2
1000b18e:	f000 f8dd 	bl	1000b34c <_lseek_r>
1000b192:	220c      	movs	r2, #12
1000b194:	5ea3      	ldrsh	r3, [r4, r2]
1000b196:	4a05      	ldr	r2, [pc, #20]	; (1000b1ac <__swrite+0x38>)
1000b198:	0028      	movs	r0, r5
1000b19a:	4013      	ands	r3, r2
1000b19c:	81a3      	strh	r3, [r4, #12]
1000b19e:	0032      	movs	r2, r6
1000b1a0:	230e      	movs	r3, #14
1000b1a2:	5ee1      	ldrsh	r1, [r4, r3]
1000b1a4:	003b      	movs	r3, r7
1000b1a6:	f000 f81f 	bl	1000b1e8 <_write_r>
1000b1aa:	bdf8      	pop	{r3, r4, r5, r6, r7, pc}
1000b1ac:	ffffefff 	.word	0xffffefff

1000b1b0 <__sseek>:
1000b1b0:	b570      	push	{r4, r5, r6, lr}
1000b1b2:	000c      	movs	r4, r1
1000b1b4:	250e      	movs	r5, #14
1000b1b6:	5f49      	ldrsh	r1, [r1, r5]
1000b1b8:	f000 f8c8 	bl	1000b34c <_lseek_r>
1000b1bc:	1c43      	adds	r3, r0, #1
1000b1be:	d006      	beq.n	1000b1ce <__sseek+0x1e>
1000b1c0:	2380      	movs	r3, #128	; 0x80
1000b1c2:	89a2      	ldrh	r2, [r4, #12]
1000b1c4:	015b      	lsls	r3, r3, #5
1000b1c6:	4313      	orrs	r3, r2
1000b1c8:	81a3      	strh	r3, [r4, #12]
1000b1ca:	6520      	str	r0, [r4, #80]	; 0x50
1000b1cc:	bd70      	pop	{r4, r5, r6, pc}
1000b1ce:	89a3      	ldrh	r3, [r4, #12]
1000b1d0:	4a01      	ldr	r2, [pc, #4]	; (1000b1d8 <__sseek+0x28>)
1000b1d2:	4013      	ands	r3, r2
1000b1d4:	81a3      	strh	r3, [r4, #12]
1000b1d6:	e7f9      	b.n	1000b1cc <__sseek+0x1c>
1000b1d8:	ffffefff 	.word	0xffffefff

1000b1dc <__sclose>:
1000b1dc:	b510      	push	{r4, lr}
1000b1de:	230e      	movs	r3, #14
1000b1e0:	5ec9      	ldrsh	r1, [r1, r3]
1000b1e2:	f000 f815 	bl	1000b210 <_close_r>
1000b1e6:	bd10      	pop	{r4, pc}

1000b1e8 <_write_r>:
1000b1e8:	b570      	push	{r4, r5, r6, lr}
1000b1ea:	0005      	movs	r5, r0
1000b1ec:	0008      	movs	r0, r1
1000b1ee:	0011      	movs	r1, r2
1000b1f0:	2200      	movs	r2, #0
1000b1f2:	4c06      	ldr	r4, [pc, #24]	; (1000b20c <_write_r+0x24>)
1000b1f4:	6022      	str	r2, [r4, #0]
1000b1f6:	001a      	movs	r2, r3
1000b1f8:	f7fc fc22 	bl	10007a40 <_write>
1000b1fc:	1c43      	adds	r3, r0, #1
1000b1fe:	d000      	beq.n	1000b202 <_write_r+0x1a>
1000b200:	bd70      	pop	{r4, r5, r6, pc}
1000b202:	6823      	ldr	r3, [r4, #0]
1000b204:	2b00      	cmp	r3, #0
1000b206:	d0fb      	beq.n	1000b200 <_write_r+0x18>
1000b208:	602b      	str	r3, [r5, #0]
1000b20a:	e7f9      	b.n	1000b200 <_write_r+0x18>
1000b20c:	20001f78 	.word	0x20001f78

1000b210 <_close_r>:
1000b210:	2300      	movs	r3, #0
1000b212:	b570      	push	{r4, r5, r6, lr}
1000b214:	4c06      	ldr	r4, [pc, #24]	; (1000b230 <_close_r+0x20>)
1000b216:	0005      	movs	r5, r0
1000b218:	0008      	movs	r0, r1
1000b21a:	6023      	str	r3, [r4, #0]
1000b21c:	f000 f8be 	bl	1000b39c <_close>
1000b220:	1c43      	adds	r3, r0, #1
1000b222:	d000      	beq.n	1000b226 <_close_r+0x16>
1000b224:	bd70      	pop	{r4, r5, r6, pc}
1000b226:	6823      	ldr	r3, [r4, #0]
1000b228:	2b00      	cmp	r3, #0
1000b22a:	d0fb      	beq.n	1000b224 <_close_r+0x14>
1000b22c:	602b      	str	r3, [r5, #0]
1000b22e:	e7f9      	b.n	1000b224 <_close_r+0x14>
1000b230:	20001f78 	.word	0x20001f78

1000b234 <_fclose_r>:
1000b234:	b570      	push	{r4, r5, r6, lr}
1000b236:	0005      	movs	r5, r0
1000b238:	1e0c      	subs	r4, r1, #0
1000b23a:	d040      	beq.n	1000b2be <_fclose_r+0x8a>
1000b23c:	2800      	cmp	r0, #0
1000b23e:	d002      	beq.n	1000b246 <_fclose_r+0x12>
1000b240:	6b83      	ldr	r3, [r0, #56]	; 0x38
1000b242:	2b00      	cmp	r3, #0
1000b244:	d03e      	beq.n	1000b2c4 <_fclose_r+0x90>
1000b246:	2601      	movs	r6, #1
1000b248:	6e63      	ldr	r3, [r4, #100]	; 0x64
1000b24a:	4233      	tst	r3, r6
1000b24c:	d133      	bne.n	1000b2b6 <_fclose_r+0x82>
1000b24e:	89a3      	ldrh	r3, [r4, #12]
1000b250:	059b      	lsls	r3, r3, #22
1000b252:	d543      	bpl.n	1000b2dc <_fclose_r+0xa8>
1000b254:	0021      	movs	r1, r4
1000b256:	0028      	movs	r0, r5
1000b258:	f7ff fc62 	bl	1000ab20 <__sflush_r>
1000b25c:	6ae3      	ldr	r3, [r4, #44]	; 0x2c
1000b25e:	0006      	movs	r6, r0
1000b260:	2b00      	cmp	r3, #0
1000b262:	d004      	beq.n	1000b26e <_fclose_r+0x3a>
1000b264:	69e1      	ldr	r1, [r4, #28]
1000b266:	0028      	movs	r0, r5
1000b268:	4798      	blx	r3
1000b26a:	2800      	cmp	r0, #0
1000b26c:	db44      	blt.n	1000b2f8 <_fclose_r+0xc4>
1000b26e:	89a3      	ldrh	r3, [r4, #12]
1000b270:	061b      	lsls	r3, r3, #24
1000b272:	d42a      	bmi.n	1000b2ca <_fclose_r+0x96>
1000b274:	6b21      	ldr	r1, [r4, #48]	; 0x30
1000b276:	2900      	cmp	r1, #0
1000b278:	d008      	beq.n	1000b28c <_fclose_r+0x58>
1000b27a:	0023      	movs	r3, r4
1000b27c:	3340      	adds	r3, #64	; 0x40
1000b27e:	4299      	cmp	r1, r3
1000b280:	d002      	beq.n	1000b288 <_fclose_r+0x54>
1000b282:	0028      	movs	r0, r5
1000b284:	f7ff fdde 	bl	1000ae44 <_free_r>
1000b288:	2300      	movs	r3, #0
1000b28a:	6323      	str	r3, [r4, #48]	; 0x30
1000b28c:	6c61      	ldr	r1, [r4, #68]	; 0x44
1000b28e:	2900      	cmp	r1, #0
1000b290:	d004      	beq.n	1000b29c <_fclose_r+0x68>
1000b292:	0028      	movs	r0, r5
1000b294:	f7ff fdd6 	bl	1000ae44 <_free_r>
1000b298:	2300      	movs	r3, #0
1000b29a:	6463      	str	r3, [r4, #68]	; 0x44
1000b29c:	f7ff fd72 	bl	1000ad84 <__sfp_lock_acquire>
1000b2a0:	2300      	movs	r3, #0
1000b2a2:	81a3      	strh	r3, [r4, #12]
1000b2a4:	6e63      	ldr	r3, [r4, #100]	; 0x64
1000b2a6:	07db      	lsls	r3, r3, #31
1000b2a8:	d514      	bpl.n	1000b2d4 <_fclose_r+0xa0>
1000b2aa:	6da0      	ldr	r0, [r4, #88]	; 0x58
1000b2ac:	f7ff fed0 	bl	1000b050 <__retarget_lock_close_recursive>
1000b2b0:	f7ff fd70 	bl	1000ad94 <__sfp_lock_release>
1000b2b4:	e004      	b.n	1000b2c0 <_fclose_r+0x8c>
1000b2b6:	220c      	movs	r2, #12
1000b2b8:	5ea3      	ldrsh	r3, [r4, r2]
1000b2ba:	2b00      	cmp	r3, #0
1000b2bc:	d1ca      	bne.n	1000b254 <_fclose_r+0x20>
1000b2be:	2600      	movs	r6, #0
1000b2c0:	0030      	movs	r0, r6
1000b2c2:	bd70      	pop	{r4, r5, r6, pc}
1000b2c4:	f7ff fd2e 	bl	1000ad24 <__sinit>
1000b2c8:	e7bd      	b.n	1000b246 <_fclose_r+0x12>
1000b2ca:	6921      	ldr	r1, [r4, #16]
1000b2cc:	0028      	movs	r0, r5
1000b2ce:	f7ff fdb9 	bl	1000ae44 <_free_r>
1000b2d2:	e7cf      	b.n	1000b274 <_fclose_r+0x40>
1000b2d4:	6da0      	ldr	r0, [r4, #88]	; 0x58
1000b2d6:	f7ff febf 	bl	1000b058 <__retarget_lock_release_recursive>
1000b2da:	e7e6      	b.n	1000b2aa <_fclose_r+0x76>
1000b2dc:	6da0      	ldr	r0, [r4, #88]	; 0x58
1000b2de:	f7ff feb9 	bl	1000b054 <__retarget_lock_acquire_recursive>
1000b2e2:	220c      	movs	r2, #12
1000b2e4:	5ea3      	ldrsh	r3, [r4, r2]
1000b2e6:	2b00      	cmp	r3, #0
1000b2e8:	d1b4      	bne.n	1000b254 <_fclose_r+0x20>
1000b2ea:	6e63      	ldr	r3, [r4, #100]	; 0x64
1000b2ec:	401e      	ands	r6, r3
1000b2ee:	d1e6      	bne.n	1000b2be <_fclose_r+0x8a>
1000b2f0:	6da0      	ldr	r0, [r4, #88]	; 0x58
1000b2f2:	f7ff feb1 	bl	1000b058 <__retarget_lock_release_recursive>
1000b2f6:	e7e3      	b.n	1000b2c0 <_fclose_r+0x8c>
1000b2f8:	2601      	movs	r6, #1
1000b2fa:	4276      	negs	r6, r6
1000b2fc:	e7b7      	b.n	1000b26e <_fclose_r+0x3a>
1000b2fe:	46c0      	nop			; (mov r8, r8)

1000b300 <_fstat_r>:
1000b300:	2300      	movs	r3, #0
1000b302:	b570      	push	{r4, r5, r6, lr}
1000b304:	4c07      	ldr	r4, [pc, #28]	; (1000b324 <_fstat_r+0x24>)
1000b306:	0005      	movs	r5, r0
1000b308:	0008      	movs	r0, r1
1000b30a:	0011      	movs	r1, r2
1000b30c:	6023      	str	r3, [r4, #0]
1000b30e:	f000 f84d 	bl	1000b3ac <_fstat>
1000b312:	1c43      	adds	r3, r0, #1
1000b314:	d000      	beq.n	1000b318 <_fstat_r+0x18>
1000b316:	bd70      	pop	{r4, r5, r6, pc}
1000b318:	6823      	ldr	r3, [r4, #0]
1000b31a:	2b00      	cmp	r3, #0
1000b31c:	d0fb      	beq.n	1000b316 <_fstat_r+0x16>
1000b31e:	602b      	str	r3, [r5, #0]
1000b320:	e7f9      	b.n	1000b316 <_fstat_r+0x16>
1000b322:	46c0      	nop			; (mov r8, r8)
1000b324:	20001f78 	.word	0x20001f78

1000b328 <_isatty_r>:
1000b328:	2300      	movs	r3, #0
1000b32a:	b570      	push	{r4, r5, r6, lr}
1000b32c:	4c06      	ldr	r4, [pc, #24]	; (1000b348 <_isatty_r+0x20>)
1000b32e:	0005      	movs	r5, r0
1000b330:	0008      	movs	r0, r1
1000b332:	6023      	str	r3, [r4, #0]
1000b334:	f000 f842 	bl	1000b3bc <_isatty>
1000b338:	1c43      	adds	r3, r0, #1
1000b33a:	d000      	beq.n	1000b33e <_isatty_r+0x16>
1000b33c:	bd70      	pop	{r4, r5, r6, pc}
1000b33e:	6823      	ldr	r3, [r4, #0]
1000b340:	2b00      	cmp	r3, #0
1000b342:	d0fb      	beq.n	1000b33c <_isatty_r+0x14>
1000b344:	602b      	str	r3, [r5, #0]
1000b346:	e7f9      	b.n	1000b33c <_isatty_r+0x14>
1000b348:	20001f78 	.word	0x20001f78

1000b34c <_lseek_r>:
1000b34c:	b570      	push	{r4, r5, r6, lr}
1000b34e:	0005      	movs	r5, r0
1000b350:	0008      	movs	r0, r1
1000b352:	0011      	movs	r1, r2
1000b354:	2200      	movs	r2, #0
1000b356:	4c06      	ldr	r4, [pc, #24]	; (1000b370 <_lseek_r+0x24>)
1000b358:	6022      	str	r2, [r4, #0]
1000b35a:	001a      	movs	r2, r3
1000b35c:	f000 f836 	bl	1000b3cc <_lseek>
1000b360:	1c43      	adds	r3, r0, #1
1000b362:	d000      	beq.n	1000b366 <_lseek_r+0x1a>
1000b364:	bd70      	pop	{r4, r5, r6, pc}
1000b366:	6823      	ldr	r3, [r4, #0]
1000b368:	2b00      	cmp	r3, #0
1000b36a:	d0fb      	beq.n	1000b364 <_lseek_r+0x18>
1000b36c:	602b      	str	r3, [r5, #0]
1000b36e:	e7f9      	b.n	1000b364 <_lseek_r+0x18>
1000b370:	20001f78 	.word	0x20001f78

1000b374 <_read_r>:
1000b374:	b570      	push	{r4, r5, r6, lr}
1000b376:	0005      	movs	r5, r0
1000b378:	0008      	movs	r0, r1
1000b37a:	0011      	movs	r1, r2
1000b37c:	2200      	movs	r2, #0
1000b37e:	4c06      	ldr	r4, [pc, #24]	; (1000b398 <_read_r+0x24>)
1000b380:	6022      	str	r2, [r4, #0]
1000b382:	001a      	movs	r2, r3
1000b384:	f7fc fb1a 	bl	100079bc <_read>
1000b388:	1c43      	adds	r3, r0, #1
1000b38a:	d000      	beq.n	1000b38e <_read_r+0x1a>
1000b38c:	bd70      	pop	{r4, r5, r6, pc}
1000b38e:	6823      	ldr	r3, [r4, #0]
1000b390:	2b00      	cmp	r3, #0
1000b392:	d0fb      	beq.n	1000b38c <_read_r+0x18>
1000b394:	602b      	str	r3, [r5, #0]
1000b396:	e7f9      	b.n	1000b38c <_read_r+0x18>
1000b398:	20001f78 	.word	0x20001f78

1000b39c <_close>:
1000b39c:	2258      	movs	r2, #88	; 0x58
1000b39e:	2001      	movs	r0, #1
1000b3a0:	4b01      	ldr	r3, [pc, #4]	; (1000b3a8 <_close+0xc>)
1000b3a2:	4240      	negs	r0, r0
1000b3a4:	601a      	str	r2, [r3, #0]
1000b3a6:	4770      	bx	lr
1000b3a8:	20001f78 	.word	0x20001f78

1000b3ac <_fstat>:
1000b3ac:	2258      	movs	r2, #88	; 0x58
1000b3ae:	2001      	movs	r0, #1
1000b3b0:	4b01      	ldr	r3, [pc, #4]	; (1000b3b8 <_fstat+0xc>)
1000b3b2:	4240      	negs	r0, r0
1000b3b4:	601a      	str	r2, [r3, #0]
1000b3b6:	4770      	bx	lr
1000b3b8:	20001f78 	.word	0x20001f78

1000b3bc <_isatty>:
1000b3bc:	2258      	movs	r2, #88	; 0x58
1000b3be:	4b02      	ldr	r3, [pc, #8]	; (1000b3c8 <_isatty+0xc>)
1000b3c0:	2000      	movs	r0, #0
1000b3c2:	601a      	str	r2, [r3, #0]
1000b3c4:	4770      	bx	lr
1000b3c6:	46c0      	nop			; (mov r8, r8)
1000b3c8:	20001f78 	.word	0x20001f78

1000b3cc <_lseek>:
1000b3cc:	2258      	movs	r2, #88	; 0x58
1000b3ce:	2001      	movs	r0, #1
1000b3d0:	4b01      	ldr	r3, [pc, #4]	; (1000b3d8 <_lseek+0xc>)
1000b3d2:	4240      	negs	r0, r0
1000b3d4:	601a      	str	r2, [r3, #0]
1000b3d6:	4770      	bx	lr
1000b3d8:	20001f78 	.word	0x20001f78

1000b3dc <_fini>:
1000b3dc:	b5f8      	push	{r3, r4, r5, r6, r7, lr}
1000b3de:	46c0      	nop			; (mov r8, r8)

1000b3e0 <__mutex_exit_veneer>:
1000b3e0:	b401      	push	{r0}
1000b3e2:	4802      	ldr	r0, [pc, #8]	; (1000b3ec <__mutex_exit_veneer+0xc>)
1000b3e4:	4684      	mov	ip, r0
1000b3e6:	bc01      	pop	{r0}
1000b3e8:	4760      	bx	ip
1000b3ea:	bf00      	nop
1000b3ec:	200001e1 	.word	0x200001e1

1000b3f0 <____aeabi_ldiv0_veneer>:
1000b3f0:	b401      	push	{r0}
1000b3f2:	4802      	ldr	r0, [pc, #8]	; (1000b3fc <____aeabi_ldiv0_veneer+0xc>)
1000b3f4:	4684      	mov	ip, r0
1000b3f6:	bc01      	pop	{r0}
1000b3f8:	4760      	bx	ip
1000b3fa:	bf00      	nop
1000b3fc:	20000209 	.word	0x20000209

1000b400 <____aeabi_idiv0_veneer>:
1000b400:	b401      	push	{r0}
1000b402:	4802      	ldr	r0, [pc, #8]	; (1000b40c <____aeabi_idiv0_veneer+0xc>)
1000b404:	4684      	mov	ip, r0
1000b406:	bc01      	pop	{r0}
1000b408:	4760      	bx	ip
1000b40a:	bf00      	nop
1000b40c:	20000209 	.word	0x20000209

1000b410 <__mutex_try_enter_veneer>:
1000b410:	b401      	push	{r0}
1000b412:	4802      	ldr	r0, [pc, #8]	; (1000b41c <__mutex_try_enter_veneer+0xc>)
1000b414:	4684      	mov	ip, r0
1000b416:	bc01      	pop	{r0}
1000b418:	4760      	bx	ip
1000b41a:	bf00      	nop
1000b41c:	20000109 	.word	0x20000109

1000b420 <__mutex_enter_timeout_ms_veneer>:
1000b420:	b401      	push	{r0}
1000b422:	4802      	ldr	r0, [pc, #8]	; (1000b42c <__mutex_enter_timeout_ms_veneer+0xc>)
1000b424:	4684      	mov	ip, r0
1000b426:	bc01      	pop	{r0}
1000b428:	4760      	bx	ip
1000b42a:	bf00      	nop
1000b42c:	2000014d 	.word	0x2000014d

1000b430 <__mutex_enter_blocking_veneer>:
1000b430:	b401      	push	{r0}
1000b432:	4802      	ldr	r0, [pc, #8]	; (1000b43c <__mutex_enter_blocking_veneer+0xc>)
1000b434:	4684      	mov	ip, r0
1000b436:	bc01      	pop	{r0}
1000b438:	4760      	bx	ip
1000b43a:	bf00      	nop
1000b43c:	200000c1 	.word	0x200000c1

Disassembly of section .data:

200000c0 <mutex_enter_blocking>:
200000c0:	b530      	push	{r4, r5, lr}
200000c2:	2404      	movs	r4, #4
200000c4:	6803      	ldr	r3, [r0, #0]
200000c6:	5704      	ldrsb	r4, [r0, r4]
200000c8:	2500      	movs	r5, #0
200000ca:	f3ef 8210 	mrs	r2, PRIMASK
200000ce:	b672      	cpsid	i
200000d0:	6819      	ldr	r1, [r3, #0]
200000d2:	2900      	cmp	r1, #0
200000d4:	d0fc      	beq.n	200000d0 <mutex_enter_blocking+0x10>
200000d6:	f3bf 8f5f 	dmb	sy
200000da:	2c00      	cmp	r4, #0
200000dc:	db09      	blt.n	200000f2 <mutex_enter_blocking+0x32>
200000de:	f3bf 8f5f 	dmb	sy
200000e2:	601d      	str	r5, [r3, #0]
200000e4:	f382 8810 	msr	PRIMASK, r2
200000e8:	bf20      	wfe
200000ea:	f3ef 8210 	mrs	r2, PRIMASK
200000ee:	b672      	cpsid	i
200000f0:	e7ee      	b.n	200000d0 <mutex_enter_blocking+0x10>
200000f2:	21d0      	movs	r1, #208	; 0xd0
200000f4:	0609      	lsls	r1, r1, #24
200000f6:	6809      	ldr	r1, [r1, #0]
200000f8:	7101      	strb	r1, [r0, #4]
200000fa:	f3bf 8f5f 	dmb	sy
200000fe:	2100      	movs	r1, #0
20000100:	6019      	str	r1, [r3, #0]
20000102:	f382 8810 	msr	PRIMASK, r2
20000106:	bd30      	pop	{r4, r5, pc}

20000108 <mutex_try_enter>:
20000108:	b510      	push	{r4, lr}
2000010a:	6803      	ldr	r3, [r0, #0]
2000010c:	f3ef 8410 	mrs	r4, PRIMASK
20000110:	b672      	cpsid	i
20000112:	681a      	ldr	r2, [r3, #0]
20000114:	2a00      	cmp	r2, #0
20000116:	d0fc      	beq.n	20000112 <mutex_try_enter+0xa>
20000118:	f3bf 8f5f 	dmb	sy
2000011c:	2204      	movs	r2, #4
2000011e:	5682      	ldrsb	r2, [r0, r2]
20000120:	2a00      	cmp	r2, #0
20000122:	db0a      	blt.n	2000013a <mutex_try_enter+0x32>
20000124:	2900      	cmp	r1, #0
20000126:	d00e      	beq.n	20000146 <mutex_try_enter+0x3e>
20000128:	2000      	movs	r0, #0
2000012a:	600a      	str	r2, [r1, #0]
2000012c:	f3bf 8f5f 	dmb	sy
20000130:	2200      	movs	r2, #0
20000132:	601a      	str	r2, [r3, #0]
20000134:	f384 8810 	msr	PRIMASK, r4
20000138:	bd10      	pop	{r4, pc}
2000013a:	22d0      	movs	r2, #208	; 0xd0
2000013c:	0612      	lsls	r2, r2, #24
2000013e:	6812      	ldr	r2, [r2, #0]
20000140:	7102      	strb	r2, [r0, #4]
20000142:	2001      	movs	r0, #1
20000144:	e7f2      	b.n	2000012c <mutex_try_enter+0x24>
20000146:	2000      	movs	r0, #0
20000148:	e7f0      	b.n	2000012c <mutex_try_enter+0x24>
2000014a:	46c0      	nop			; (mov r8, r8)

2000014c <mutex_enter_timeout_ms>:
2000014c:	b5f0      	push	{r4, r5, r6, r7, lr}
2000014e:	46c6      	mov	lr, r8
20000150:	b500      	push	{lr}
20000152:	000c      	movs	r4, r1
20000154:	4680      	mov	r8, r0
20000156:	f000 f85b 	bl	20000210 <__time_us_64_veneer>
2000015a:	22fa      	movs	r2, #250	; 0xfa
2000015c:	0006      	movs	r6, r0
2000015e:	000f      	movs	r7, r1
20000160:	0020      	movs	r0, r4
20000162:	0092      	lsls	r2, r2, #2
20000164:	2300      	movs	r3, #0
20000166:	2100      	movs	r1, #0
20000168:	f000 f862 	bl	20000230 <____wrap___aeabi_lmul_veneer>
2000016c:	1980      	adds	r0, r0, r6
2000016e:	4179      	adcs	r1, r7
20000170:	0004      	movs	r4, r0
20000172:	000d      	movs	r5, r1
20000174:	428f      	cmp	r7, r1
20000176:	d92d      	bls.n	200001d4 <mutex_enter_timeout_ms+0x88>
20000178:	2401      	movs	r4, #1
2000017a:	4264      	negs	r4, r4
2000017c:	17e5      	asrs	r5, r4, #31
2000017e:	2600      	movs	r6, #0
20000180:	4643      	mov	r3, r8
20000182:	681b      	ldr	r3, [r3, #0]
20000184:	f3ef 8110 	mrs	r1, PRIMASK
20000188:	b672      	cpsid	i
2000018a:	681a      	ldr	r2, [r3, #0]
2000018c:	2a00      	cmp	r2, #0
2000018e:	d0fc      	beq.n	2000018a <mutex_enter_timeout_ms+0x3e>
20000190:	f3bf 8f5f 	dmb	sy
20000194:	4642      	mov	r2, r8
20000196:	7912      	ldrb	r2, [r2, #4]
20000198:	2a7f      	cmp	r2, #127	; 0x7f
2000019a:	d80c      	bhi.n	200001b6 <mutex_enter_timeout_ms+0x6a>
2000019c:	f3bf 8f5f 	dmb	sy
200001a0:	601e      	str	r6, [r3, #0]
200001a2:	f381 8810 	msr	PRIMASK, r1
200001a6:	0020      	movs	r0, r4
200001a8:	0029      	movs	r1, r5
200001aa:	f000 f839 	bl	20000220 <__best_effort_wfe_or_timeout_veneer>
200001ae:	2800      	cmp	r0, #0
200001b0:	d0e6      	beq.n	20000180 <mutex_enter_timeout_ms+0x34>
200001b2:	2000      	movs	r0, #0
200001b4:	e00b      	b.n	200001ce <mutex_enter_timeout_ms+0x82>
200001b6:	22d0      	movs	r2, #208	; 0xd0
200001b8:	4640      	mov	r0, r8
200001ba:	0612      	lsls	r2, r2, #24
200001bc:	6812      	ldr	r2, [r2, #0]
200001be:	7102      	strb	r2, [r0, #4]
200001c0:	f3bf 8f5f 	dmb	sy
200001c4:	2200      	movs	r2, #0
200001c6:	601a      	str	r2, [r3, #0]
200001c8:	f381 8810 	msr	PRIMASK, r1
200001cc:	2001      	movs	r0, #1
200001ce:	bc04      	pop	{r2}
200001d0:	4690      	mov	r8, r2
200001d2:	bdf0      	pop	{r4, r5, r6, r7, pc}
200001d4:	428f      	cmp	r7, r1
200001d6:	d1d2      	bne.n	2000017e <mutex_enter_timeout_ms+0x32>
200001d8:	4286      	cmp	r6, r0
200001da:	d8cd      	bhi.n	20000178 <mutex_enter_timeout_ms+0x2c>
200001dc:	e7cf      	b.n	2000017e <mutex_enter_timeout_ms+0x32>
200001de:	46c0      	nop			; (mov r8, r8)

200001e0 <mutex_exit>:
200001e0:	6803      	ldr	r3, [r0, #0]
200001e2:	f3ef 8110 	mrs	r1, PRIMASK
200001e6:	b672      	cpsid	i
200001e8:	681a      	ldr	r2, [r3, #0]
200001ea:	2a00      	cmp	r2, #0
200001ec:	d0fc      	beq.n	200001e8 <mutex_exit+0x8>
200001ee:	f3bf 8f5f 	dmb	sy
200001f2:	22ff      	movs	r2, #255	; 0xff
200001f4:	7102      	strb	r2, [r0, #4]
200001f6:	bf40      	sev
200001f8:	f3bf 8f5f 	dmb	sy
200001fc:	2200      	movs	r2, #0
200001fe:	601a      	str	r2, [r3, #0]
20000200:	f381 8810 	msr	PRIMASK, r1
20000204:	4770      	bx	lr
20000206:	46c0      	nop			; (mov r8, r8)

20000208 <__aeabi_idiv0>:
20000208:	4770      	bx	lr
2000020a:	46c0      	nop			; (mov r8, r8)
2000020c:	0000      	movs	r0, r0
	...

20000210 <__time_us_64_veneer>:
20000210:	b401      	push	{r0}
20000212:	4802      	ldr	r0, [pc, #8]	; (2000021c <__time_us_64_veneer+0xc>)
20000214:	4684      	mov	ip, r0
20000216:	bc01      	pop	{r0}
20000218:	4760      	bx	ip
2000021a:	bf00      	nop
2000021c:	100040e1 	.word	0x100040e1

20000220 <__best_effort_wfe_or_timeout_veneer>:
20000220:	b401      	push	{r0}
20000222:	4802      	ldr	r0, [pc, #8]	; (2000022c <__best_effort_wfe_or_timeout_veneer+0xc>)
20000224:	4684      	mov	ip, r0
20000226:	bc01      	pop	{r0}
20000228:	4760      	bx	ip
2000022a:	bf00      	nop
2000022c:	10003e4d 	.word	0x10003e4d

20000230 <____wrap___aeabi_lmul_veneer>:
20000230:	b401      	push	{r0}
20000232:	4802      	ldr	r0, [pc, #8]	; (2000023c <____wrap___aeabi_lmul_veneer+0xc>)
20000234:	4684      	mov	ip, r0
20000236:	bc01      	pop	{r0}
20000238:	4760      	bx	ip
2000023a:	bf00      	nop
2000023c:	10007619 	.word	0x10007619

20000240 <LastReceived>:
20000240:	ffffffff                                ....

20000244 <DivisorPoly>:
20000244:	0000c599                                ....

20000248 <ZeroCount>:
20000248:	00000001                                ....

2000024c <striped_spin_lock_num>:
2000024c:	00000010                                ....

20000250 <irq_handler_chain_slots>:
20000250:	00000000 	.word	0x00000000
20000254:	00010000 	.word	0x00010000
	...
20000260:	00020000 	.word	0x00020000
	...
2000026c:	00030000 	.word	0x00030000
	...
20000278:	00ff0000 	.word	0x00ff0000
2000027c:	00000000 	.word	0x00000000

20000280 <irq_handler_chain_first_slot>:
20000280:	b500      	push	{lr}
20000282:	6848      	ldr	r0, [r1, #4]
20000284:	3101      	adds	r1, #1
20000286:	468e      	mov	lr, r1
20000288:	4700      	bx	r0

2000028a <irq_handler_chain_remove_tail>:
2000028a:	4670      	mov	r0, lr
2000028c:	3809      	subs	r0, #9
2000028e:	4901      	ldr	r1, [pc, #4]	; (20000294 <irq_handler_chain_remove_tail+0xa>)
20000290:	4788      	blx	r1
20000292:	bd00      	pop	{pc}
20000294:	10004fb5 	.word	0x10004fb5
	...

200002a0 <aeabi_bits_funcs>:
200002a0:	00003350 	.word	0x00003350
200002a4:	0000334c 	.word	0x0000334c
200002a8:	00003354 	.word	0x00003354
200002ac:	00003352 	.word	0x00003352

200002b0 <aeabi_bits_funcs_end>:
200002b0:	0000534d 	.word	0x0000534d
200002b4:	0000434d 	.word	0x0000434d
200002b8:	00003453 	.word	0x00003453
200002bc:	00003443 	.word	0x00003443

200002c0 <stdio_usb>:
200002c0:	10007cad 00000000 10007c15 00000000     .|.......|......
200002d0:	00000100                                ....

200002d4 <ep_dir_string>:
200002d4:	1000ba54 1000ba58                       T...X...

200002dc <_usbd_qdef>:
200002dc:	20001e94 000c0010 00000000 00000000     ... ............
	...

200002fc <_impure_ptr>:
200002fc:	20000300                                ... 

20000300 <impure_data>:
20000300:	00000000 200005ec 20000654 200006bc     ....... T.. ... 
	...
200003a8:	00000001 00000000 abcd330e e66d1234     .........3..4.m.
200003b8:	0005deec 0000000b 00000000 00000000     ................
	...

20000728 <__malloc_av_>:
	...
20000730:	20000728 20000728 20000730 20000730     (.. (.. 0.. 0.. 
20000740:	20000738 20000738 20000740 20000740     8.. 8.. @.. @.. 
20000750:	20000748 20000748 20000750 20000750     H.. H.. P.. P.. 
20000760:	20000758 20000758 20000760 20000760     X.. X.. `.. `.. 
20000770:	20000768 20000768 20000770 20000770     h.. h.. p.. p.. 
20000780:	20000778 20000778 20000780 20000780     x.. x.. ... ... 
20000790:	20000788 20000788 20000790 20000790     ... ... ... ... 
200007a0:	20000798 20000798 200007a0 200007a0     ... ... ... ... 
200007b0:	200007a8 200007a8 200007b0 200007b0     ... ... ... ... 
200007c0:	200007b8 200007b8 200007c0 200007c0     ... ... ... ... 
200007d0:	200007c8 200007c8 200007d0 200007d0     ... ... ... ... 
200007e0:	200007d8 200007d8 200007e0 200007e0     ... ... ... ... 
200007f0:	200007e8 200007e8 200007f0 200007f0     ... ... ... ... 
20000800:	200007f8 200007f8 20000800 20000800     ... ... ... ... 
20000810:	20000808 20000808 20000810 20000810     ... ... ... ... 
20000820:	20000818 20000818 20000820 20000820     ... ...  ..  .. 
20000830:	20000828 20000828 20000830 20000830     (.. (.. 0.. 0.. 
20000840:	20000838 20000838 20000840 20000840     8.. 8.. @.. @.. 
20000850:	20000848 20000848 20000850 20000850     H.. H.. P.. P.. 
20000860:	20000858 20000858 20000860 20000860     X.. X.. `.. `.. 
20000870:	20000868 20000868 20000870 20000870     h.. h.. p.. p.. 
20000880:	20000878 20000878 20000880 20000880     x.. x.. ... ... 
20000890:	20000888 20000888 20000890 20000890     ... ... ... ... 
200008a0:	20000898 20000898 200008a0 200008a0     ... ... ... ... 
200008b0:	200008a8 200008a8 200008b0 200008b0     ... ... ... ... 
200008c0:	200008b8 200008b8 200008c0 200008c0     ... ... ... ... 
200008d0:	200008c8 200008c8 200008d0 200008d0     ... ... ... ... 
200008e0:	200008d8 200008d8 200008e0 200008e0     ... ... ... ... 
200008f0:	200008e8 200008e8 200008f0 200008f0     ... ... ... ... 
20000900:	200008f8 200008f8 20000900 20000900     ... ... ... ... 
20000910:	20000908 20000908 20000910 20000910     ... ... ... ... 
20000920:	20000918 20000918 20000920 20000920     ... ...  ..  .. 
20000930:	20000928 20000928 20000930 20000930     (.. (.. 0.. 0.. 
20000940:	20000938 20000938 20000940 20000940     8.. 8.. @.. @.. 
20000950:	20000948 20000948 20000950 20000950     H.. H.. P.. P.. 
20000960:	20000958 20000958 20000960 20000960     X.. X.. `.. `.. 
20000970:	20000968 20000968 20000970 20000970     h.. h.. p.. p.. 
20000980:	20000978 20000978 20000980 20000980     x.. x.. ... ... 
20000990:	20000988 20000988 20000990 20000990     ... ... ... ... 
200009a0:	20000998 20000998 200009a0 200009a0     ... ... ... ... 
200009b0:	200009a8 200009a8 200009b0 200009b0     ... ... ... ... 
200009c0:	200009b8 200009b8 200009c0 200009c0     ... ... ... ... 
200009d0:	200009c8 200009c8 200009d0 200009d0     ... ... ... ... 
200009e0:	200009d8 200009d8 200009e0 200009e0     ... ... ... ... 
200009f0:	200009e8 200009e8 200009f0 200009f0     ... ... ... ... 
20000a00:	200009f8 200009f8 20000a00 20000a00     ... ... ... ... 
20000a10:	20000a08 20000a08 20000a10 20000a10     ... ... ... ... 
20000a20:	20000a18 20000a18 20000a20 20000a20     ... ...  ..  .. 
20000a30:	20000a28 20000a28 20000a30 20000a30     (.. (.. 0.. 0.. 
20000a40:	20000a38 20000a38 20000a40 20000a40     8.. 8.. @.. @.. 
20000a50:	20000a48 20000a48 20000a50 20000a50     H.. H.. P.. P.. 
20000a60:	20000a58 20000a58 20000a60 20000a60     X.. X.. `.. `.. 
20000a70:	20000a68 20000a68 20000a70 20000a70     h.. h.. p.. p.. 
20000a80:	20000a78 20000a78 20000a80 20000a80     x.. x.. ... ... 
20000a90:	20000a88 20000a88 20000a90 20000a90     ... ... ... ... 
20000aa0:	20000a98 20000a98 20000aa0 20000aa0     ... ... ... ... 
20000ab0:	20000aa8 20000aa8 20000ab0 20000ab0     ... ... ... ... 
20000ac0:	20000ab8 20000ab8 20000ac0 20000ac0     ... ... ... ... 
20000ad0:	20000ac8 20000ac8 20000ad0 20000ad0     ... ... ... ... 
20000ae0:	20000ad8 20000ad8 20000ae0 20000ae0     ... ... ... ... 
20000af0:	20000ae8 20000ae8 20000af0 20000af0     ... ... ... ... 
20000b00:	20000af8 20000af8 20000b00 20000b00     ... ... ... ... 
20000b10:	20000b08 20000b08 20000b10 20000b10     ... ... ... ... 
20000b20:	20000b18 20000b18 20000b20 20000b20     ... ...  ..  .. 

20000b30 <__malloc_sbrk_base>:
20000b30:	ffffffff                                ....

20000b34 <__malloc_trim_threshold>:
20000b34:	00020000                                ....

20000b38 <print_mutex>:
	...

20000b40 <__mutex_array_end>:
20000b40:	10007771 	.word	0x10007771
20000b44:	100068fd 	.word	0x100068fd
20000b48:	10006ff5 	.word	0x10006ff5
20000b4c:	100076cd 	.word	0x100076cd

20000b50 <__frame_dummy_init_array_entry>:
20000b50:	100002ed                                ....
